---
triple:          'arm64-apple-darwin'
binary-path:     '../dij'
relocations:
  - { offset: 0x82C1, size: 0x8, addend: 0x0, symName: __ZNSt3__17advanceB8ne180100IPNS_4pairIxiEEllvEEvRT_T0_, symObjAddr: 0x4218, symBinAddr: 0x100006DF0, symSize: 0x38 }
  - { offset: 0x8541, size: 0x8, addend: 0x0, symName: __ZNSt3__17advanceB8ne180100INS_16reverse_iteratorIPNS_4pairIxiEEEEllvEEvRT_T0_, symObjAddr: 0x45E4, symBinAddr: 0x1000071BC, symSize: 0x38 }
  - { offset: 0x85AC, size: 0x8, addend: 0x0, symName: __ZNSt3__117__floyd_sift_downB8ne180100INS_17_ClassicAlgPolicyERNS_7greaterINS_4pairIxiEEEENS_11__wrap_iterIPS4_EEEET1_SA_OT0_NS_15iterator_traitsISA_E15difference_typeE, symObjAddr: 0x5070, symBinAddr: 0x100007C48, symSize: 0x148 }
  - { offset: 0x866C, size: 0x8, addend: 0x0, symName: __ZNSt3__124__put_character_sequenceB8ne180100IcNS_11char_traitsIcEEEERNS_13basic_ostreamIT_T0_EES7_PKS4_m, symObjAddr: 0x5280, symBinAddr: 0x100007E58, symSize: 0x1EC }
  - { offset: 0x9C4B, size: 0x8, addend: 0x0, symName: __ZNSt3__1lsB8ne180100INS_11char_traitsIcEEEERNS_13basic_ostreamIcT_EES6_PKc, symObjAddr: 0x910, symBinAddr: 0x1000034E8, symSize: 0x48 }
  - { offset: 0x9C91, size: 0x8, addend: 0x0, symName: __ZNSt3__14endlB8ne180100IcNS_11char_traitsIcEEEERNS_13basic_ostreamIT_T0_EES7_, symObjAddr: 0x9A8, symBinAddr: 0x100003580, symSize: 0x58 }
  - { offset: 0x9CD1, size: 0x8, addend: 0x0, symName: __ZNSt3__1neB8ne180100IPKNS_4pairIiiEEEEbRKNS_11__wrap_iterIT_EES9_, symObjAddr: 0xA60, symBinAddr: 0x100003638, symSize: 0x34 }
  - { offset: 0x9D14, size: 0x8, addend: 0x0, symName: __ZNSt3__120__throw_out_of_rangeB8ne180100EPKc, symObjAddr: 0xBDC, symBinAddr: 0x1000037B4, symSize: 0x64 }
  - { offset: 0x9D3C, size: 0x8, addend: 0x0, symName: __ZNSt3__112__to_addressB8ne180100IxEEPT_S2_, symObjAddr: 0xFAC, symBinAddr: 0x100003B84, symSize: 0x14 }
  - { offset: 0x9D71, size: 0x8, addend: 0x0, symName: __ZNSt3__112__destroy_atB8ne180100IxLi0EEEvPT_, symObjAddr: 0xFC0, symBinAddr: 0x100003B98, symSize: 0x10 }
  - { offset: 0x9DA8, size: 0x8, addend: 0x0, symName: __ZNSt3__119__libcpp_deallocateB8ne180100EPvmm, symObjAddr: 0x1010, symBinAddr: 0x100003BE8, symSize: 0x60 }
  - { offset: 0x9E0D, size: 0x8, addend: 0x0, symName: __ZNSt3__124__is_overaligned_for_newB8ne180100Em, symObjAddr: 0x1070, symBinAddr: 0x100003C48, symSize: 0x20 }
  - { offset: 0x9E3B, size: 0x8, addend: 0x0, symName: __ZNSt3__127__do_deallocate_handle_sizeB8ne180100IJSt11align_val_tEEEvPvmDpT_, symObjAddr: 0x1090, symBinAddr: 0x100003C68, symSize: 0x30 }
  - { offset: 0x9E8E, size: 0x8, addend: 0x0, symName: __ZNSt3__127__do_deallocate_handle_sizeB8ne180100IJEEEvPvmDpT_, symObjAddr: 0x10C0, symBinAddr: 0x100003C98, symSize: 0x28 }
  - { offset: 0x9ECC, size: 0x8, addend: 0x0, symName: __ZNSt3__124__libcpp_operator_deleteB8ne180100IJPvSt11align_val_tEEEvDpT_, symObjAddr: 0x10E8, symBinAddr: 0x100003CC0, symSize: 0x2C }
  - { offset: 0x9F15, size: 0x8, addend: 0x0, symName: __ZNSt3__124__libcpp_operator_deleteB8ne180100IJPvEEEvDpT_, symObjAddr: 0x1114, symBinAddr: 0x100003CEC, symSize: 0x24 }
  - { offset: 0x9F4A, size: 0x8, addend: 0x0, symName: __ZNSt3__122__make_exception_guardB8ne180100INS_6vectorIxNS_9allocatorIxEEE16__destroy_vectorEEENS_28__exception_guard_exceptionsIT_EES7_, symObjAddr: 0x12E8, symBinAddr: 0x100003EC0, symSize: 0x40 }
  - { offset: 0x9F7F, size: 0x8, addend: 0x0, symName: __ZNSt3__119__allocate_at_leastB8ne180100INS_9allocatorIxEEEENS_19__allocation_resultINS_16allocator_traitsIT_E7pointerEEERS5_m, symObjAddr: 0x1688, symBinAddr: 0x100004260, symSize: 0x40 }
  - { offset: 0x9FC2, size: 0x8, addend: 0x0, symName: __ZNSt3__13minB8ne180100ImEERKT_S3_S3_, symObjAddr: 0x1704, symBinAddr: 0x1000042DC, symSize: 0x2C }
  - { offset: 0xA1EF, size: 0x8, addend: 0x0, symName: __ZNSt3__13minB8ne180100ImNS_6__lessIvvEEEERKT_S5_S5_T0_, symObjAddr: 0x1794, symBinAddr: 0x10000436C, symSize: 0x54 }
  - { offset: 0xA47A, size: 0x8, addend: 0x0, symName: __ZNSt3__120__throw_length_errorB8ne180100EPKc, symObjAddr: 0x1878, symBinAddr: 0x100004450, symSize: 0x64 }
  - { offset: 0xA4A2, size: 0x8, addend: 0x0, symName: __ZNSt3__117__libcpp_allocateB8ne180100Emm, symObjAddr: 0x19E0, symBinAddr: 0x1000045B8, symSize: 0x60 }
  - { offset: 0xA4FC, size: 0x8, addend: 0x0, symName: __ZNSt3__121__libcpp_operator_newB8ne180100IJmSt11align_val_tEEEPvDpT_, symObjAddr: 0x1A40, symBinAddr: 0x100004618, symSize: 0x2C }
  - { offset: 0xA549, size: 0x8, addend: 0x0, symName: __ZNSt3__121__libcpp_operator_newB8ne180100IJmEEEPvDpT_, symObjAddr: 0x1A6C, symBinAddr: 0x100004644, symSize: 0x24 }
  - { offset: 0xA582, size: 0x8, addend: 0x0, symName: __ZNSt3__114__construct_atB8ne180100IxJRKxEPxEEPT_S5_DpOT0_, symObjAddr: 0x1BA4, symBinAddr: 0x10000477C, symSize: 0x2C }
  - { offset: 0xA5D5, size: 0x8, addend: 0x0, symName: __ZNSt3__112construct_atB8ne180100IxJRKxEPxEEPT_S5_DpOT0_, symObjAddr: 0x1BD0, symBinAddr: 0x1000047A8, symSize: 0x24 }
  - { offset: 0xA628, size: 0x8, addend: 0x0, symName: __ZNSt3__122__make_exception_guardB8ne180100INS_6vectorIiNS_9allocatorIiEEE16__destroy_vectorEEENS_28__exception_guard_exceptionsIT_EES7_, symObjAddr: 0x1D74, symBinAddr: 0x10000494C, symSize: 0x40 }
  - { offset: 0xA65D, size: 0x8, addend: 0x0, symName: __ZNSt3__119__allocate_at_leastB8ne180100INS_9allocatorIiEEEENS_19__allocation_resultINS_16allocator_traitsIT_E7pointerEEERS5_m, symObjAddr: 0x2168, symBinAddr: 0x100004D40, symSize: 0x40 }
  - { offset: 0xA6A0, size: 0x8, addend: 0x0, symName: __ZNSt3__112__to_addressB8ne180100IiEEPT_S2_, symObjAddr: 0x23C8, symBinAddr: 0x100004FA0, symSize: 0x14 }
  - { offset: 0xA6D5, size: 0x8, addend: 0x0, symName: __ZNSt3__114__construct_atB8ne180100IiJRKiEPiEEPT_S5_DpOT0_, symObjAddr: 0x244C, symBinAddr: 0x100005024, symSize: 0x2C }
  - { offset: 0xA728, size: 0x8, addend: 0x0, symName: __ZNSt3__112construct_atB8ne180100IiJRKiEPiEEPT_S5_DpOT0_, symObjAddr: 0x2478, symBinAddr: 0x100005050, symSize: 0x24 }
  - { offset: 0xA77B, size: 0x8, addend: 0x0, symName: __ZNSt3__112__destroy_atB8ne180100IiLi0EEEvPT_, symObjAddr: 0x26FC, symBinAddr: 0x1000052D4, symSize: 0x10 }
  - { offset: 0xA7B2, size: 0x8, addend: 0x0, symName: __ZNSt3__1eqB8ne180100IPKNS_4pairIiiEEEEbRKNS_11__wrap_iterIT_EES9_, symObjAddr: 0x2864, symBinAddr: 0x10000543C, symSize: 0x48 }
  - { offset: 0xA7F5, size: 0x8, addend: 0x0, symName: __ZNSt3__112__to_addressB8ne180100INS_4pairIiiEEEEPT_S4_, symObjAddr: 0x2BA8, symBinAddr: 0x100005780, symSize: 0x14 }
  - { offset: 0xA82A, size: 0x8, addend: 0x0, symName: __ZNSt3__112__destroy_atB8ne180100INS_4pairIiiEELi0EEEvPT_, symObjAddr: 0x2BBC, symBinAddr: 0x100005794, symSize: 0x10 }
  - { offset: 0xA861, size: 0x8, addend: 0x0, symName: __ZNSt3__112__to_addressB8ne180100INS_4pairIxiEEEEPT_S4_, symObjAddr: 0x2FAC, symBinAddr: 0x100005B84, symSize: 0x14 }
  - { offset: 0xA896, size: 0x8, addend: 0x0, symName: __ZNSt3__112__destroy_atB8ne180100INS_4pairIxiEELi0EEEvPT_, symObjAddr: 0x2FC0, symBinAddr: 0x100005B98, symSize: 0x10 }
  - { offset: 0xA8CD, size: 0x8, addend: 0x0, symName: __ZNSt3__19push_heapB8ne180100INS_11__wrap_iterIPNS_4pairIxiEEEENS_7greaterIS3_EEEEvT_S8_T0_, symObjAddr: 0x3320, symBinAddr: 0x100005EF8, symSize: 0x40 }
  - { offset: 0xA923, size: 0x8, addend: 0x0, symName: __ZNSt3__114__construct_atB8ne180100INS_4pairIxiEEJS2_EPS2_EEPT_S5_DpOT0_, symObjAddr: 0x3674, symBinAddr: 0x10000624C, symSize: 0x2C }
  - { offset: 0xA976, size: 0x8, addend: 0x0, symName: __ZNSt3__112construct_atB8ne180100INS_4pairIxiEEJS2_EPS2_EEPT_S5_DpOT0_, symObjAddr: 0x36A0, symBinAddr: 0x100006278, symSize: 0x24 }
  - { offset: 0xA9C9, size: 0x8, addend: 0x0, symName: __ZNSt3__13maxB8ne180100ImEERKT_S3_S3_, symObjAddr: 0x39BC, symBinAddr: 0x100006594, symSize: 0x2C }
  - { offset: 0xAA0C, size: 0x8, addend: 0x0, symName: __ZNSt3__13maxB8ne180100ImNS_6__lessIvvEEEERKT_S5_S5_T0_, symObjAddr: 0x3A70, symBinAddr: 0x100006648, symSize: 0x54 }
  - { offset: 0xAA66, size: 0x8, addend: 0x0, symName: __ZNSt3__119__allocate_at_leastB8ne180100INS_9allocatorINS_4pairIxiEEEEEENS_19__allocation_resultINS_16allocator_traitsIT_E7pointerEEERS7_m, symObjAddr: 0x3BD4, symBinAddr: 0x1000067AC, symSize: 0x40 }
  - { offset: 0xAAA9, size: 0x8, addend: 0x0, symName: __ZNSt3__142__uninitialized_allocator_move_if_noexceptB8ne180100INS_9allocatorINS_4pairIxiEEEENS_16reverse_iteratorIPS3_EES7_S7_EET2_RT_T0_T1_S8_, symObjAddr: 0x3D88, symBinAddr: 0x100006960, symSize: 0x12C }
  - { offset: 0xAB49, size: 0x8, addend: 0x0, symName: __ZNSt3__14swapB8ne180100IPNS_4pairIxiEEEENS_9enable_ifIXaasr21is_move_constructibleIT_EE5valuesr18is_move_assignableIS5_EE5valueEvE4typeERS5_S8_, symObjAddr: 0x3F00, symBinAddr: 0x100006AD8, symSize: 0x3C }
  - { offset: 0xAB9A, size: 0x8, addend: 0x0, symName: __ZNSt3__122__make_exception_guardB8ne180100INS_29_AllocatorDestroyRangeReverseINS_9allocatorINS_4pairIxiEEEENS_16reverse_iteratorIPS4_EEEEEENS_28__exception_guard_exceptionsIT_EESB_, symObjAddr: 0x3F50, symBinAddr: 0x100006B28, symSize: 0x4C }
  - { offset: 0xABD0, size: 0x8, addend: 0x0, symName: __ZNSt3__1neB8ne180100IPNS_4pairIxiEES3_EEbRKNS_16reverse_iteratorIT_EERKNS4_IT0_EE, symObjAddr: 0x3FE0, symBinAddr: 0x100006BB8, symSize: 0x48 }
  - { offset: 0xAC1C, size: 0x8, addend: 0x0, symName: __ZNSt3__112__to_addressB8ne180100INS_16reverse_iteratorIPNS_4pairIxiEEEEvEEu7__decayIDTclsr19__to_address_helperIT_EE6__callclsr3stdE7declvalIRKS6_EEEEES8_, symObjAddr: 0x4028, symBinAddr: 0x100006C00, symSize: 0x24 }
  - { offset: 0xAC7B, size: 0x8, addend: 0x0, symName: __ZNSt3__14prevB8ne180100IPNS_4pairIxiEELi0EEET_S4_NS_15iterator_traitsIS4_E15difference_typeE, symObjAddr: 0x41DC, symBinAddr: 0x100006DB4, symSize: 0x3C }
  - { offset: 0xACC4, size: 0x8, addend: 0x0, symName: __ZNSt3__121__convert_to_integralB8ne180100El, symObjAddr: 0x4250, symBinAddr: 0x100006E28, symSize: 0x14 }
  - { offset: 0xACF0, size: 0x8, addend: 0x0, symName: __ZNSt3__19__advanceB8ne180100IPNS_4pairIxiEEEEvRT_NS_15iterator_traitsIS4_E15difference_typeENS_26random_access_iterator_tagE, symObjAddr: 0x4264, symBinAddr: 0x100006E3C, symSize: 0x28 }
  - { offset: 0xAD39, size: 0x8, addend: 0x0, symName: __ZNSt3__119__allocator_destroyB8ne180100INS_9allocatorINS_4pairIxiEEEENS_16reverse_iteratorINS5_IPS3_EEEES8_EEvRT_T0_T1_, symObjAddr: 0x4390, symBinAddr: 0x100006F68, symSize: 0x70 }
  - { offset: 0xAD9E, size: 0x8, addend: 0x0, symName: __ZNSt3__1neB8ne180100INS_16reverse_iteratorIPNS_4pairIxiEEEES5_EEbRKNS1_IT_EERKNS1_IT0_EE, symObjAddr: 0x443C, symBinAddr: 0x100007014, symSize: 0x60 }
  - { offset: 0xADEA, size: 0x8, addend: 0x0, symName: __ZNSt3__112__to_addressB8ne180100INS_16reverse_iteratorINS1_IPNS_4pairIxiEEEEEEvEEu7__decayIDTclsr19__to_address_helperIT_EE6__callclsr3stdE7declvalIRKS7_EEEEES9_, symObjAddr: 0x449C, symBinAddr: 0x100007074, symSize: 0x24 }
  - { offset: 0xAE49, size: 0x8, addend: 0x0, symName: __ZNSt3__14prevB8ne180100INS_16reverse_iteratorIPNS_4pairIxiEEEELi0EEET_S6_NS_15iterator_traitsIS6_E15difference_typeE, symObjAddr: 0x4598, symBinAddr: 0x100007170, symSize: 0x4C }
  - { offset: 0xAE92, size: 0x8, addend: 0x0, symName: __ZNSt3__19__advanceB8ne180100INS_16reverse_iteratorIPNS_4pairIxiEEEEEEvRT_NS_15iterator_traitsIS6_E15difference_typeENS_26random_access_iterator_tagE, symObjAddr: 0x461C, symBinAddr: 0x1000071F4, symSize: 0x2C }
  - { offset: 0xAEDB, size: 0x8, addend: 0x0, symName: __ZNSt3__111__push_heapB8ne180100INS_17_ClassicAlgPolicyENS_11__wrap_iterIPNS_4pairIxiEEEENS_7greaterIS4_EEEEvT0_S9_RT1_, symObjAddr: 0x48D8, symBinAddr: 0x1000074B0, symSize: 0x5C }
  - { offset: 0xAF48, size: 0x8, addend: 0x0, symName: __ZNSt3__1miB8ne180100IPNS_4pairIxiEES3_EEDTmicldtfp_4baseEcldtfp0_4baseEERKNS_11__wrap_iterIT_EERKNS5_IT0_EE, symObjAddr: 0x4934, symBinAddr: 0x10000750C, symSize: 0x48 }
  - { offset: 0xAF94, size: 0x8, addend: 0x0, symName: __ZNSt3__19__sift_upB8ne180100INS_17_ClassicAlgPolicyERNS_7greaterINS_4pairIxiEEEENS_11__wrap_iterIPS4_EEEEvT1_SA_OT0_NS_15iterator_traitsISA_E15difference_typeE, symObjAddr: 0x497C, symBinAddr: 0x100007554, symSize: 0x15C }
  - { offset: 0xB0AF, size: 0x8, addend: 0x0, symName: __ZNSt3__1gtB8ne180100ENS_15strong_orderingENS_20_CmpUnspecifiedParamE, symObjAddr: 0x4C34, symBinAddr: 0x10000780C, symSize: 0x24 }
  - { offset: 0xB0E5, size: 0x8, addend: 0x0, symName: __ZNSt3__1ssB8ne180100IxixiEENS_26common_comparison_categoryIJDTclsr3stdE17__synth_three_wayclsr3stdE7declvalIRT_EEclsr3stdE7declvalIRT1_EEEEDTclsr3stdE17__synth_three_wayclsr3stdE7declvalIRT0_EEclsr3stdE7declvalIRT2_EEEEEE4typeERKNS_4pairIS2_S7_EERKNSE_IS4_S9_EE, symObjAddr: 0x4C58, symBinAddr: 0x100007830, symSize: 0x7C }
  - { offset: 0xB17F, size: 0x8, addend: 0x0, symName: __ZNSt3__117__synth_three_wayB8ne180100IxxEEDaRKT_RKT0_, symObjAddr: 0x4D08, symBinAddr: 0x1000078E0, symSize: 0x5C }
  - { offset: 0xB1CB, size: 0x8, addend: 0x0, symName: __ZNSt3__1eqB8ne180100ENS_15strong_orderingENS_20_CmpUnspecifiedParamE, symObjAddr: 0x4D64, symBinAddr: 0x10000793C, symSize: 0x24 }
  - { offset: 0xB201, size: 0x8, addend: 0x0, symName: __ZNSt3__117__synth_three_wayB8ne180100IiiEEDaRKT_RKT0_, symObjAddr: 0x4D88, symBinAddr: 0x100007960, symSize: 0x5C }
  - { offset: 0xB24D, size: 0x8, addend: 0x0, symName: __ZNSt3__18pop_heapB8ne180100INS_11__wrap_iterIPNS_4pairIxiEEEENS_7greaterIS3_EEEEvT_S8_T0_, symObjAddr: 0x4EC4, symBinAddr: 0x100007A9C, symSize: 0x58 }
  - { offset: 0xB2B1, size: 0x8, addend: 0x0, symName: __ZNSt3__110__pop_heapB8ne180100INS_17_ClassicAlgPolicyENS_7greaterINS_4pairIxiEEEENS_11__wrap_iterIPS4_EEEEvT1_S9_RT0_NS_15iterator_traitsIS9_E15difference_typeE, symObjAddr: 0x4F48, symBinAddr: 0x100007B20, symSize: 0x128 }
  - { offset: 0xB362, size: 0x8, addend: 0x0, symName: __ZNSt3__1eqB8ne180100IPNS_4pairIxiEEEEbRKNS_11__wrap_iterIT_EES8_, symObjAddr: 0x51B8, symBinAddr: 0x100007D90, symSize: 0x48 }
  - { offset: 0xB3A5, size: 0x8, addend: 0x0, symName: __ZNSt3__116__pad_and_outputB8ne180100IcNS_11char_traitsIcEEEENS_19ostreambuf_iteratorIT_T0_EES6_PKS4_S8_S8_RNS_8ios_baseES4_, symObjAddr: 0x54BC, symBinAddr: 0x100008094, symSize: 0x240 }
  - { offset: 0xB474, size: 0x8, addend: 0x0, symName: __ZNSt3__112__to_addressB8ne180100IcEEPT_S2_, symObjAddr: 0x5A24, symBinAddr: 0x1000085FC, symSize: 0x14 }
  - { offset: 0xB4A9, size: 0x8, addend: 0x0, symName: __ZNSt3__19use_facetB8ne180100INS_5ctypeIcEEEERKT_RKNS_6localeE, symObjAddr: 0x5CDC, symBinAddr: 0x1000088B4, symSize: 0x2C }
  - { offset: 0xB976, size: 0x8, addend: 0x0, symName: __ZNSt3__118__constexpr_strlenB8ne180100EPKc, symObjAddr: 0x5D74, symBinAddr: 0x10000894C, symSize: 0x24 }
  - { offset: 0xCB71, size: 0x8, addend: 0x0, symName: __ZSt28__throw_bad_array_new_lengthB8ne180100v, symObjAddr: 0x19AC, symBinAddr: 0x100004584, symSize: 0x34 }
  - { offset: 0xD3B9, size: 0x8, addend: 0x0, symName: __ZNSt3__16vectorINS_4pairIxiEENS_9allocatorIS2_EEE26__swap_out_circular_bufferERNS_14__split_bufferIS2_RS4_EE, symObjAddr: 0x3804, symBinAddr: 0x1000063DC, symSize: 0x110 }
  - { offset: 0xD79B, size: 0x8, addend: 0x0, symName: __ZN8Dijkstra12findAllPathsER5Graphi, symObjAddr: 0x0, symBinAddr: 0x100002BD8, symSize: 0x3C }
  - { offset: 0xD7DF, size: 0x8, addend: 0x0, symName: __ZN8Dijkstra8dijkstraER5Graphi, symObjAddr: 0x3C, symBinAddr: 0x100002C14, symSize: 0x490 }
  - { offset: 0xD954, size: 0x8, addend: 0x0, symName: __ZN8Dijkstra8findPathER5Graphii, symObjAddr: 0x4CC, symBinAddr: 0x1000030A4, symSize: 0xFC }
  - { offset: 0xD9B4, size: 0x8, addend: 0x0, symName: __ZNKSt3__16vectorIxNS_9allocatorIxEEE4sizeB8ne180100Ev, symObjAddr: 0x5C8, symBinAddr: 0x1000031A0, symSize: 0x28 }
  - { offset: 0xD9DF, size: 0x8, addend: 0x0, symName: __ZNSt3__14pairIixEC1B8ne180100IRixLi0EEEOT_OT0_, symObjAddr: 0x5F0, symBinAddr: 0x1000031C8, symSize: 0x3C }
  - { offset: 0xDA3C, size: 0x8, addend: 0x0, symName: __ZNSt3__16vectorIxNS_9allocatorIxEEE2atEm, symObjAddr: 0x62C, symBinAddr: 0x100003204, symSize: 0x60 }
  - { offset: 0xDA73, size: 0x8, addend: 0x0, symName: __ZNSt3__14pairIixEC1B8ne180100IRiRxLi0EEEOT_OT0_, symObjAddr: 0x68C, symBinAddr: 0x100003264, symSize: 0x3C }
  - { offset: 0xDAD1, size: 0x8, addend: 0x0, symName: __ZNSt3__16vectorIxNS_9allocatorIxEEED1B8ne180100Ev, symObjAddr: 0x6C8, symBinAddr: 0x1000032A0, symSize: 0x2C }
  - { offset: 0xDAFB, size: 0x8, addend: 0x0, symName: __ZNSt3__16vectorIxNS_9allocatorIxEEEC1EmRKx, symObjAddr: 0x6F4, symBinAddr: 0x1000032CC, symSize: 0x3C }
  - { offset: 0xDB45, size: 0x8, addend: 0x0, symName: __ZNSt3__16vectorIiNS_9allocatorIiEEEC1EmRKi, symObjAddr: 0x730, symBinAddr: 0x100003308, symSize: 0x3C }
  - { offset: 0xDBDF, size: 0x8, addend: 0x0, symName: __ZNSt3__114priority_queueINS_4pairIxiEENS_6vectorIS2_NS_9allocatorIS2_EEEENS_7greaterIS2_EEEC1B8ne180100Ev, symObjAddr: 0x76C, symBinAddr: 0x100003344, symSize: 0x2C }
  - { offset: 0xDC09, size: 0x8, addend: 0x0, symName: __ZNSt3__16vectorIxNS_9allocatorIxEEEixB8ne180100Em, symObjAddr: 0x798, symBinAddr: 0x100003370, symSize: 0x24 }
  - { offset: 0xDC40, size: 0x8, addend: 0x0, symName: __ZNSt3__16vectorIiNS_9allocatorIiEEEixB8ne180100Em, symObjAddr: 0x7BC, symBinAddr: 0x100003394, symSize: 0x24 }
  - { offset: 0xDC76, size: 0x8, addend: 0x0, symName: __ZNSt3__114priority_queueINS_4pairIxiEENS_6vectorIS2_NS_9allocatorIS2_EEEENS_7greaterIS2_EEE4pushEOS2_, symObjAddr: 0x7E0, symBinAddr: 0x1000033B8, symSize: 0x58 }
  - { offset: 0xDCAD, size: 0x8, addend: 0x0, symName: __ZNSt3__14pairIxiEC1B8ne180100IxRiLi0EEEOT_OT0_, symObjAddr: 0x838, symBinAddr: 0x100003410, symSize: 0x3C }
  - { offset: 0xDD0B, size: 0x8, addend: 0x0, symName: __ZNKSt3__114priority_queueINS_4pairIxiEENS_6vectorIS2_NS_9allocatorIS2_EEEENS_7greaterIS2_EEE5emptyB8ne180100Ev, symObjAddr: 0x874, symBinAddr: 0x10000344C, symSize: 0x28 }
  - { offset: 0xDD31, size: 0x8, addend: 0x0, symName: __ZNKSt3__114priority_queueINS_4pairIxiEENS_6vectorIS2_NS_9allocatorIS2_EEEENS_7greaterIS2_EEE3topB8ne180100Ev, symObjAddr: 0x89C, symBinAddr: 0x100003474, symSize: 0x24 }
  - { offset: 0xDD56, size: 0x8, addend: 0x0, symName: __ZNSt3__114priority_queueINS_4pairIxiEENS_6vectorIS2_NS_9allocatorIS2_EEEENS_7greaterIS2_EEE3popEv, symObjAddr: 0x8C0, symBinAddr: 0x100003498, symSize: 0x50 }
  - { offset: 0xDD7E, size: 0x8, addend: 0x0, symName: __ZNKSt3__114priority_queueINS_4pairIxiEENS_6vectorIS2_NS_9allocatorIS2_EEEENS_7greaterIS2_EEE4sizeB8ne180100Ev, symObjAddr: 0x958, symBinAddr: 0x100003530, symSize: 0x24 }
  - { offset: 0xDDA4, size: 0x8, addend: 0x0, symName: __ZNSt3__113basic_ostreamIcNS_11char_traitsIcEEElsB8ne180100EPFRS3_S4_E, symObjAddr: 0x97C, symBinAddr: 0x100003554, symSize: 0x2C }
  - { offset: 0xDDD7, size: 0x8, addend: 0x0, symName: __ZNKSt3__16vectorINS_4pairIiiEENS_9allocatorIS2_EEE5beginB8ne180100Ev, symObjAddr: 0xA00, symBinAddr: 0x1000035D8, symSize: 0x30 }
  - { offset: 0xDDFE, size: 0x8, addend: 0x0, symName: __ZNKSt3__16vectorINS_4pairIiiEENS_9allocatorIS2_EEE3endB8ne180100Ev, symObjAddr: 0xA30, symBinAddr: 0x100003608, symSize: 0x30 }
  - { offset: 0xDE26, size: 0x8, addend: 0x0, symName: __ZNKSt3__111__wrap_iterIPKNS_4pairIiiEEEdeB8ne180100Ev, symObjAddr: 0xA94, symBinAddr: 0x10000366C, symSize: 0x18 }
  - { offset: 0xDE4C, size: 0x8, addend: 0x0, symName: __ZNSt3__14pairIxiEC1B8ne180100IRxRiLi0EEEOT_OT0_, symObjAddr: 0xAAC, symBinAddr: 0x100003684, symSize: 0x3C }
  - { offset: 0xDEAA, size: 0x8, addend: 0x0, symName: __ZNSt3__111__wrap_iterIPKNS_4pairIiiEEEppB8ne180100Ev, symObjAddr: 0xAE8, symBinAddr: 0x1000036C0, symSize: 0x20 }
  - { offset: 0xDED0, size: 0x8, addend: 0x0, symName: __ZNSt3__16vectorINS_4pairIiiEENS_9allocatorIS2_EEED1B8ne180100Ev, symObjAddr: 0xB08, symBinAddr: 0x1000036E0, symSize: 0x2C }
  - { offset: 0xDEFA, size: 0x8, addend: 0x0, symName: __ZNSt3__114priority_queueINS_4pairIxiEENS_6vectorIS2_NS_9allocatorIS2_EEEENS_7greaterIS2_EEED1Ev, symObjAddr: 0xB34, symBinAddr: 0x10000370C, symSize: 0x2C }
  - { offset: 0xDF27, size: 0x8, addend: 0x0, symName: __ZNSt3__16vectorIiNS_9allocatorIiEEED1B8ne180100Ev, symObjAddr: 0xB60, symBinAddr: 0x100003738, symSize: 0x2C }
  - { offset: 0xDF51, size: 0x8, addend: 0x0, symName: __ZNSt3__14pairIixEC2B8ne180100IRixLi0EEEOT_OT0_, symObjAddr: 0xB8C, symBinAddr: 0x100003764, symSize: 0x34 }
  - { offset: 0xDFAF, size: 0x8, addend: 0x0, symName: __ZNKSt3__16vectorIxNS_9allocatorIxEEE20__throw_out_of_rangeB8ne180100Ev, symObjAddr: 0xBC0, symBinAddr: 0x100003798, symSize: 0x1C }
  - { offset: 0xDFD5, size: 0x8, addend: 0x0, symName: __ZNSt12out_of_rangeC1B8ne180100EPKc, symObjAddr: 0xC40, symBinAddr: 0x100003818, symSize: 0x34 }
  - { offset: 0xE00D, size: 0x8, addend: 0x0, symName: __ZNSt12out_of_rangeC2B8ne180100EPKc, symObjAddr: 0xC74, symBinAddr: 0x10000384C, symSize: 0x44 }
  - { offset: 0xE045, size: 0x8, addend: 0x0, symName: __ZNSt3__14pairIixEC2B8ne180100IRiRxLi0EEEOT_OT0_, symObjAddr: 0xCB8, symBinAddr: 0x100003890, symSize: 0x34 }
  - { offset: 0xE0A3, size: 0x8, addend: 0x0, symName: __ZNSt3__16vectorIxNS_9allocatorIxEEED2B8ne180100Ev, symObjAddr: 0xCEC, symBinAddr: 0x1000038C4, symSize: 0x44 }
  - { offset: 0xE0CD, size: 0x8, addend: 0x0, symName: __ZNSt3__16vectorIxNS_9allocatorIxEEE16__destroy_vectorC1B8ne180100ERS3_, symObjAddr: 0xD30, symBinAddr: 0x100003908, symSize: 0x34 }
  - { offset: 0xE106, size: 0x8, addend: 0x0, symName: __ZNSt3__16vectorIxNS_9allocatorIxEEE16__destroy_vectorclB8ne180100Ev, symObjAddr: 0xD74, symBinAddr: 0x10000394C, symSize: 0x90 }
  - { offset: 0xE12C, size: 0x8, addend: 0x0, symName: __ZNSt3__16vectorIxNS_9allocatorIxEEE16__destroy_vectorC2B8ne180100ERS3_, symObjAddr: 0xE04, symBinAddr: 0x1000039DC, symSize: 0x20 }
  - { offset: 0xE165, size: 0x8, addend: 0x0, symName: __ZNSt3__16vectorIxNS_9allocatorIxEEE7__clearB8ne180100Ev, symObjAddr: 0xE24, symBinAddr: 0x1000039FC, symSize: 0x28 }
  - { offset: 0xE18B, size: 0x8, addend: 0x0, symName: __ZNKSt3__16vectorIxNS_9allocatorIxEEE17__annotate_deleteB8ne180100Ev, symObjAddr: 0xE4C, symBinAddr: 0x100003A24, symSize: 0x10 }
  - { offset: 0xE1B1, size: 0x8, addend: 0x0, symName: __ZNSt3__116allocator_traitsINS_9allocatorIxEEE10deallocateB8ne180100ERS2_Pxm, symObjAddr: 0xE5C, symBinAddr: 0x100003A34, symSize: 0x34 }
  - { offset: 0xE1F3, size: 0x8, addend: 0x0, symName: __ZNSt3__16vectorIxNS_9allocatorIxEEE7__allocB8ne180100Ev, symObjAddr: 0xE90, symBinAddr: 0x100003A68, symSize: 0x28 }
  - { offset: 0xE219, size: 0x8, addend: 0x0, symName: __ZNKSt3__16vectorIxNS_9allocatorIxEEE8capacityB8ne180100Ev, symObjAddr: 0xEB8, symBinAddr: 0x100003A90, symSize: 0x40 }
  - { offset: 0xE23F, size: 0x8, addend: 0x0, symName: __ZNSt3__16vectorIxNS_9allocatorIxEEE22__base_destruct_at_endB8ne180100EPx, symObjAddr: 0xEF8, symBinAddr: 0x100003AD0, symSize: 0x8C }
  - { offset: 0xE283, size: 0x8, addend: 0x0, symName: __ZNSt3__116allocator_traitsINS_9allocatorIxEEE7destroyB8ne180100IxvvEEvRS2_PT_, symObjAddr: 0xF84, symBinAddr: 0x100003B5C, symSize: 0x28 }
  - { offset: 0xE2BE, size: 0x8, addend: 0x0, symName: __ZNSt3__19allocatorIxE10deallocateB8ne180100EPxm, symObjAddr: 0xFD0, symBinAddr: 0x100003BA8, symSize: 0x40 }
  - { offset: 0xE300, size: 0x8, addend: 0x0, symName: __ZNSt3__117__compressed_pairIPxNS_9allocatorIxEEE6secondB8ne180100Ev, symObjAddr: 0x1138, symBinAddr: 0x100003D10, symSize: 0x24 }
  - { offset: 0xE326, size: 0x8, addend: 0x0, symName: __ZNSt3__122__compressed_pair_elemINS_9allocatorIxEELi1ELb1EE5__getB8ne180100Ev, symObjAddr: 0x115C, symBinAddr: 0x100003D34, symSize: 0x14 }
  - { offset: 0xE34C, size: 0x8, addend: 0x0, symName: __ZNKSt3__16vectorIxNS_9allocatorIxEEE9__end_capB8ne180100Ev, symObjAddr: 0x1170, symBinAddr: 0x100003D48, symSize: 0x28 }
  - { offset: 0xE372, size: 0x8, addend: 0x0, symName: __ZNKSt3__117__compressed_pairIPxNS_9allocatorIxEEE5firstB8ne180100Ev, symObjAddr: 0x1198, symBinAddr: 0x100003D70, symSize: 0x24 }
  - { offset: 0xE398, size: 0x8, addend: 0x0, symName: __ZNKSt3__122__compressed_pair_elemIPxLi0ELb0EE5__getB8ne180100Ev, symObjAddr: 0x11BC, symBinAddr: 0x100003D94, symSize: 0x14 }
  - { offset: 0xE3BE, size: 0x8, addend: 0x0, symName: __ZNSt3__16vectorIxNS_9allocatorIxEEEC2EmRKx, symObjAddr: 0x11D0, symBinAddr: 0x100003DA8, symSize: 0xDC }
  - { offset: 0xE427, size: 0x8, addend: 0x0, symName: __ZNSt3__117__compressed_pairIPxNS_9allocatorIxEEEC1B8ne180100IDnNS_18__default_init_tagEEEOT_OT0_, symObjAddr: 0x12AC, symBinAddr: 0x100003E84, symSize: 0x3C }
  - { offset: 0xE47F, size: 0x8, addend: 0x0, symName: __ZNSt3__16vectorIxNS_9allocatorIxEEE11__vallocateB8ne180100Em, symObjAddr: 0x1328, symBinAddr: 0x100003F00, symSize: 0xAC }
  - { offset: 0xE4C2, size: 0x8, addend: 0x0, symName: __ZNSt3__16vectorIxNS_9allocatorIxEEE18__construct_at_endEmRKx, symObjAddr: 0x13D4, symBinAddr: 0x100003FAC, symSize: 0xD0 }
  - { offset: 0xE543, size: 0x8, addend: 0x0, symName: __ZNSt3__128__exception_guard_exceptionsINS_6vectorIxNS_9allocatorIxEEE16__destroy_vectorEE10__completeB8ne180100Ev, symObjAddr: 0x14A4, symBinAddr: 0x10000407C, symSize: 0x1C }
  - { offset: 0xE569, size: 0x8, addend: 0x0, symName: __ZNSt3__128__exception_guard_exceptionsINS_6vectorIxNS_9allocatorIxEEE16__destroy_vectorEED1B8ne180100Ev, symObjAddr: 0x14C0, symBinAddr: 0x100004098, symSize: 0x2C }
  - { offset: 0xE593, size: 0x8, addend: 0x0, symName: __ZNSt3__117__compressed_pairIPxNS_9allocatorIxEEEC2B8ne180100IDnNS_18__default_init_tagEEEOT_OT0_, symObjAddr: 0x14EC, symBinAddr: 0x1000040C4, symSize: 0x40 }
  - { offset: 0xE5EB, size: 0x8, addend: 0x0, symName: __ZNSt3__122__compressed_pair_elemIPxLi0ELb0EEC2B8ne180100IDnvEEOT_, symObjAddr: 0x152C, symBinAddr: 0x100004104, symSize: 0x1C }
  - { offset: 0xE62D, size: 0x8, addend: 0x0, symName: __ZNSt3__122__compressed_pair_elemINS_9allocatorIxEELi1ELb1EEC2B8ne180100ENS_18__default_init_tagE, symObjAddr: 0x1548, symBinAddr: 0x100004120, symSize: 0x2C }
  - { offset: 0xE661, size: 0x8, addend: 0x0, symName: __ZNSt3__19allocatorIxEC2B8ne180100Ev, symObjAddr: 0x1574, symBinAddr: 0x10000414C, symSize: 0x2C }
  - { offset: 0xE68B, size: 0x8, addend: 0x0, symName: __ZNSt3__116__non_trivial_ifILb1ENS_9allocatorIxEEEC2B8ne180100Ev, symObjAddr: 0x15A0, symBinAddr: 0x100004178, symSize: 0x14 }
  - { offset: 0xE6B5, size: 0x8, addend: 0x0, symName: __ZNSt3__128__exception_guard_exceptionsINS_6vectorIxNS_9allocatorIxEEE16__destroy_vectorEEC1B8ne180100ES5_, symObjAddr: 0x15B4, symBinAddr: 0x10000418C, symSize: 0x34 }
  - { offset: 0xE6ED, size: 0x8, addend: 0x0, symName: __ZNSt3__128__exception_guard_exceptionsINS_6vectorIxNS_9allocatorIxEEE16__destroy_vectorEEC2B8ne180100ES5_, symObjAddr: 0x15E8, symBinAddr: 0x1000041C0, symSize: 0x24 }
  - { offset: 0xE724, size: 0x8, addend: 0x0, symName: __ZNKSt3__16vectorIxNS_9allocatorIxEEE8max_sizeEv, symObjAddr: 0x160C, symBinAddr: 0x1000041E4, symSize: 0x60 }
  - { offset: 0xE74C, size: 0x8, addend: 0x0, symName: __ZNKSt3__16vectorIxNS_9allocatorIxEEE20__throw_length_errorB8ne180100Ev, symObjAddr: 0x166C, symBinAddr: 0x100004244, symSize: 0x1C }
  - { offset: 0xE772, size: 0x8, addend: 0x0, symName: __ZNSt3__16vectorIxNS_9allocatorIxEEE9__end_capB8ne180100Ev, symObjAddr: 0x16C8, symBinAddr: 0x1000042A0, symSize: 0x28 }
  - { offset: 0xE798, size: 0x8, addend: 0x0, symName: __ZNKSt3__16vectorIxNS_9allocatorIxEEE14__annotate_newB8ne180100Em, symObjAddr: 0x16F0, symBinAddr: 0x1000042C8, symSize: 0x14 }
  - { offset: 0xE7D7, size: 0x8, addend: 0x0, symName: __ZNSt3__116allocator_traitsINS_9allocatorIxEEE8max_sizeB8ne180100IS2_vvEEmRKS2_, symObjAddr: 0x1730, symBinAddr: 0x100004308, symSize: 0x28 }
  - { offset: 0xE803, size: 0x8, addend: 0x0, symName: __ZNKSt3__16vectorIxNS_9allocatorIxEEE7__allocB8ne180100Ev, symObjAddr: 0x1758, symBinAddr: 0x100004330, symSize: 0x28 }
  - { offset: 0xE829, size: 0x8, addend: 0x0, symName: __ZNSt3__114numeric_limitsIlE3maxB8ne180100Ev, symObjAddr: 0x1780, symBinAddr: 0x100004358, symSize: 0x14 }
  - { offset: 0xE851, size: 0x8, addend: 0x0, symName: __ZNKSt3__16__lessIvvEclB8ne180100ImmEEbRKT_RKT0_, symObjAddr: 0x17E8, symBinAddr: 0x1000043C0, symSize: 0x34 }
  - { offset: 0xE8A5, size: 0x8, addend: 0x0, symName: __ZNSt3__114numeric_limitsImE3maxB8ne180100Ev, symObjAddr: 0x181C, symBinAddr: 0x1000043F4, symSize: 0x14 }
  - { offset: 0xE8B9, size: 0x8, addend: 0x0, symName: __ZNSt3__123__libcpp_numeric_limitsImLb1EE3maxB8ne180100Ev, symObjAddr: 0x1830, symBinAddr: 0x100004408, symSize: 0x8 }
  - { offset: 0xE8CD, size: 0x8, addend: 0x0, symName: __ZNKSt3__117__compressed_pairIPxNS_9allocatorIxEEE6secondB8ne180100Ev, symObjAddr: 0x1838, symBinAddr: 0x100004410, symSize: 0x24 }
  - { offset: 0xE8F3, size: 0x8, addend: 0x0, symName: __ZNKSt3__122__compressed_pair_elemINS_9allocatorIxEELi1ELb1EE5__getB8ne180100Ev, symObjAddr: 0x185C, symBinAddr: 0x100004434, symSize: 0x14 }
  - { offset: 0xE919, size: 0x8, addend: 0x0, symName: __ZNSt3__123__libcpp_numeric_limitsIlLb1EE3maxB8ne180100Ev, symObjAddr: 0x1870, symBinAddr: 0x100004448, symSize: 0x8 }
  - { offset: 0xE92D, size: 0x8, addend: 0x0, symName: __ZNSt12length_errorC1B8ne180100EPKc, symObjAddr: 0x18DC, symBinAddr: 0x1000044B4, symSize: 0x34 }
  - { offset: 0xE965, size: 0x8, addend: 0x0, symName: __ZNSt12length_errorC2B8ne180100EPKc, symObjAddr: 0x1910, symBinAddr: 0x1000044E8, symSize: 0x44 }
  - { offset: 0xE99D, size: 0x8, addend: 0x0, symName: __ZNSt3__19allocatorIxE8allocateB8ne180100Em, symObjAddr: 0x1954, symBinAddr: 0x10000452C, symSize: 0x58 }
  - { offset: 0xE9D1, size: 0x8, addend: 0x0, symName: __ZNSt3__117__compressed_pairIPxNS_9allocatorIxEEE5firstB8ne180100Ev, symObjAddr: 0x1A90, symBinAddr: 0x100004668, symSize: 0x24 }
  - { offset: 0xE9F7, size: 0x8, addend: 0x0, symName: __ZNSt3__122__compressed_pair_elemIPxLi0ELb0EE5__getB8ne180100Ev, symObjAddr: 0x1AB4, symBinAddr: 0x10000468C, symSize: 0x14 }
  - { offset: 0xEA36, size: 0x8, addend: 0x0, symName: __ZNSt3__16vectorIxNS_9allocatorIxEEE21_ConstructTransactionC1B8ne180100ERS3_m, symObjAddr: 0x1AC8, symBinAddr: 0x1000046A0, symSize: 0x3C }
  - { offset: 0xEA83, size: 0x8, addend: 0x0, symName: __ZNSt3__116allocator_traitsINS_9allocatorIxEEE9constructB8ne180100IxJRKxEvvEEvRS2_PT_DpOT0_, symObjAddr: 0x1B04, symBinAddr: 0x1000046DC, symSize: 0x30 }
  - { offset: 0xEAD8, size: 0x8, addend: 0x0, symName: __ZNSt3__16vectorIxNS_9allocatorIxEEE21_ConstructTransactionD1B8ne180100Ev, symObjAddr: 0x1B34, symBinAddr: 0x10000470C, symSize: 0x2C }
  - { offset: 0xEB02, size: 0x8, addend: 0x0, symName: __ZNSt3__16vectorIxNS_9allocatorIxEEE21_ConstructTransactionC2B8ne180100ERS3_m, symObjAddr: 0x1B60, symBinAddr: 0x100004738, symSize: 0x44 }
  - { offset: 0xEB4A, size: 0x8, addend: 0x0, symName: __ZNSt3__16vectorIxNS_9allocatorIxEEE21_ConstructTransactionD2B8ne180100Ev, symObjAddr: 0x1BF4, symBinAddr: 0x1000047CC, symSize: 0x20 }
  - { offset: 0xEB74, size: 0x8, addend: 0x0, symName: __ZNSt3__128__exception_guard_exceptionsINS_6vectorIxNS_9allocatorIxEEE16__destroy_vectorEED2B8ne180100Ev, symObjAddr: 0x1C14, symBinAddr: 0x1000047EC, symSize: 0x48 }
  - { offset: 0xEB9E, size: 0x8, addend: 0x0, symName: __ZNSt3__16vectorIiNS_9allocatorIiEEEC2EmRKi, symObjAddr: 0x1C5C, symBinAddr: 0x100004834, symSize: 0xDC }
  - { offset: 0xEBFD, size: 0x8, addend: 0x0, symName: __ZNSt3__117__compressed_pairIPiNS_9allocatorIiEEEC1B8ne180100IDnNS_18__default_init_tagEEEOT_OT0_, symObjAddr: 0x1D38, symBinAddr: 0x100004910, symSize: 0x3C }
  - { offset: 0xEC55, size: 0x8, addend: 0x0, symName: __ZNSt3__16vectorIiNS_9allocatorIiEEE16__destroy_vectorC1B8ne180100ERS3_, symObjAddr: 0x1DB4, symBinAddr: 0x10000498C, symSize: 0x34 }
  - { offset: 0xEC8E, size: 0x8, addend: 0x0, symName: __ZNSt3__16vectorIiNS_9allocatorIiEEE11__vallocateB8ne180100Em, symObjAddr: 0x1DE8, symBinAddr: 0x1000049C0, symSize: 0xAC }
  - { offset: 0xECD1, size: 0x8, addend: 0x0, symName: __ZNSt3__16vectorIiNS_9allocatorIiEEE18__construct_at_endEmRKi, symObjAddr: 0x1E94, symBinAddr: 0x100004A6C, symSize: 0xD0 }
  - { offset: 0xED52, size: 0x8, addend: 0x0, symName: __ZNSt3__128__exception_guard_exceptionsINS_6vectorIiNS_9allocatorIiEEE16__destroy_vectorEE10__completeB8ne180100Ev, symObjAddr: 0x1F64, symBinAddr: 0x100004B3C, symSize: 0x1C }
  - { offset: 0xED78, size: 0x8, addend: 0x0, symName: __ZNSt3__128__exception_guard_exceptionsINS_6vectorIiNS_9allocatorIiEEE16__destroy_vectorEED1B8ne180100Ev, symObjAddr: 0x1F80, symBinAddr: 0x100004B58, symSize: 0x2C }
  - { offset: 0xEDA2, size: 0x8, addend: 0x0, symName: __ZNSt3__117__compressed_pairIPiNS_9allocatorIiEEEC2B8ne180100IDnNS_18__default_init_tagEEEOT_OT0_, symObjAddr: 0x1FAC, symBinAddr: 0x100004B84, symSize: 0x40 }
  - { offset: 0xEDFA, size: 0x8, addend: 0x0, symName: __ZNSt3__122__compressed_pair_elemIPiLi0ELb0EEC2B8ne180100IDnvEEOT_, symObjAddr: 0x1FEC, symBinAddr: 0x100004BC4, symSize: 0x1C }
  - { offset: 0xEE3C, size: 0x8, addend: 0x0, symName: __ZNSt3__122__compressed_pair_elemINS_9allocatorIiEELi1ELb1EEC2B8ne180100ENS_18__default_init_tagE, symObjAddr: 0x2008, symBinAddr: 0x100004BE0, symSize: 0x2C }
  - { offset: 0xEE70, size: 0x8, addend: 0x0, symName: __ZNSt3__19allocatorIiEC2B8ne180100Ev, symObjAddr: 0x2034, symBinAddr: 0x100004C0C, symSize: 0x2C }
  - { offset: 0xEE9A, size: 0x8, addend: 0x0, symName: __ZNSt3__116__non_trivial_ifILb1ENS_9allocatorIiEEEC2B8ne180100Ev, symObjAddr: 0x2060, symBinAddr: 0x100004C38, symSize: 0x14 }
  - { offset: 0xEEC4, size: 0x8, addend: 0x0, symName: __ZNSt3__128__exception_guard_exceptionsINS_6vectorIiNS_9allocatorIiEEE16__destroy_vectorEEC1B8ne180100ES5_, symObjAddr: 0x2074, symBinAddr: 0x100004C4C, symSize: 0x34 }
  - { offset: 0xEEFC, size: 0x8, addend: 0x0, symName: __ZNSt3__128__exception_guard_exceptionsINS_6vectorIiNS_9allocatorIiEEE16__destroy_vectorEEC2B8ne180100ES5_, symObjAddr: 0x20A8, symBinAddr: 0x100004C80, symSize: 0x24 }
  - { offset: 0xEF34, size: 0x8, addend: 0x0, symName: __ZNSt3__16vectorIiNS_9allocatorIiEEE16__destroy_vectorC2B8ne180100ERS3_, symObjAddr: 0x20CC, symBinAddr: 0x100004CA4, symSize: 0x20 }
  - { offset: 0xEF6C, size: 0x8, addend: 0x0, symName: __ZNKSt3__16vectorIiNS_9allocatorIiEEE8max_sizeEv, symObjAddr: 0x20EC, symBinAddr: 0x100004CC4, symSize: 0x60 }
  - { offset: 0xEF94, size: 0x8, addend: 0x0, symName: __ZNKSt3__16vectorIiNS_9allocatorIiEEE20__throw_length_errorB8ne180100Ev, symObjAddr: 0x214C, symBinAddr: 0x100004D24, symSize: 0x1C }
  - { offset: 0xEFBA, size: 0x8, addend: 0x0, symName: __ZNSt3__16vectorIiNS_9allocatorIiEEE7__allocB8ne180100Ev, symObjAddr: 0x21A8, symBinAddr: 0x100004D80, symSize: 0x28 }
  - { offset: 0xEFE0, size: 0x8, addend: 0x0, symName: __ZNSt3__16vectorIiNS_9allocatorIiEEE9__end_capB8ne180100Ev, symObjAddr: 0x21D0, symBinAddr: 0x100004DA8, symSize: 0x28 }
  - { offset: 0xF006, size: 0x8, addend: 0x0, symName: __ZNKSt3__16vectorIiNS_9allocatorIiEEE14__annotate_newB8ne180100Em, symObjAddr: 0x21F8, symBinAddr: 0x100004DD0, symSize: 0x14 }
  - { offset: 0xF045, size: 0x8, addend: 0x0, symName: __ZNSt3__116allocator_traitsINS_9allocatorIiEEE8max_sizeB8ne180100IS2_vvEEmRKS2_, symObjAddr: 0x220C, symBinAddr: 0x100004DE4, symSize: 0x28 }
  - { offset: 0xF071, size: 0x8, addend: 0x0, symName: __ZNKSt3__16vectorIiNS_9allocatorIiEEE7__allocB8ne180100Ev, symObjAddr: 0x2234, symBinAddr: 0x100004E0C, symSize: 0x28 }
  - { offset: 0xF097, size: 0x8, addend: 0x0, symName: __ZNKSt3__117__compressed_pairIPiNS_9allocatorIiEEE6secondB8ne180100Ev, symObjAddr: 0x225C, symBinAddr: 0x100004E34, symSize: 0x24 }
  - { offset: 0xF0BD, size: 0x8, addend: 0x0, symName: __ZNKSt3__122__compressed_pair_elemINS_9allocatorIiEELi1ELb1EE5__getB8ne180100Ev, symObjAddr: 0x2280, symBinAddr: 0x100004E58, symSize: 0x14 }
  - { offset: 0xF0E3, size: 0x8, addend: 0x0, symName: __ZNSt3__19allocatorIiE8allocateB8ne180100Em, symObjAddr: 0x2294, symBinAddr: 0x100004E6C, symSize: 0x58 }
  - { offset: 0xF117, size: 0x8, addend: 0x0, symName: __ZNSt3__117__compressed_pairIPiNS_9allocatorIiEEE6secondB8ne180100Ev, symObjAddr: 0x22EC, symBinAddr: 0x100004EC4, symSize: 0x24 }
  - { offset: 0xF13D, size: 0x8, addend: 0x0, symName: __ZNSt3__122__compressed_pair_elemINS_9allocatorIiEELi1ELb1EE5__getB8ne180100Ev, symObjAddr: 0x2310, symBinAddr: 0x100004EE8, symSize: 0x14 }
  - { offset: 0xF163, size: 0x8, addend: 0x0, symName: __ZNSt3__117__compressed_pairIPiNS_9allocatorIiEEE5firstB8ne180100Ev, symObjAddr: 0x2324, symBinAddr: 0x100004EFC, symSize: 0x24 }
  - { offset: 0xF189, size: 0x8, addend: 0x0, symName: __ZNSt3__122__compressed_pair_elemIPiLi0ELb0EE5__getB8ne180100Ev, symObjAddr: 0x2348, symBinAddr: 0x100004F20, symSize: 0x14 }
  - { offset: 0xF1C8, size: 0x8, addend: 0x0, symName: __ZNSt3__16vectorIiNS_9allocatorIiEEE21_ConstructTransactionC1B8ne180100ERS3_m, symObjAddr: 0x235C, symBinAddr: 0x100004F34, symSize: 0x3C }
  - { offset: 0xF215, size: 0x8, addend: 0x0, symName: __ZNSt3__116allocator_traitsINS_9allocatorIiEEE9constructB8ne180100IiJRKiEvvEEvRS2_PT_DpOT0_, symObjAddr: 0x2398, symBinAddr: 0x100004F70, symSize: 0x30 }
  - { offset: 0xF26A, size: 0x8, addend: 0x0, symName: __ZNSt3__16vectorIiNS_9allocatorIiEEE21_ConstructTransactionD1B8ne180100Ev, symObjAddr: 0x23DC, symBinAddr: 0x100004FB4, symSize: 0x2C }
  - { offset: 0xF294, size: 0x8, addend: 0x0, symName: __ZNSt3__16vectorIiNS_9allocatorIiEEE21_ConstructTransactionC2B8ne180100ERS3_m, symObjAddr: 0x2408, symBinAddr: 0x100004FE0, symSize: 0x44 }
  - { offset: 0xF2DC, size: 0x8, addend: 0x0, symName: __ZNSt3__16vectorIiNS_9allocatorIiEEE21_ConstructTransactionD2B8ne180100Ev, symObjAddr: 0x249C, symBinAddr: 0x100005074, symSize: 0x20 }
  - { offset: 0xF306, size: 0x8, addend: 0x0, symName: __ZNSt3__128__exception_guard_exceptionsINS_6vectorIiNS_9allocatorIiEEE16__destroy_vectorEED2B8ne180100Ev, symObjAddr: 0x24BC, symBinAddr: 0x100005094, symSize: 0x50 }
  - { offset: 0xF330, size: 0x8, addend: 0x0, symName: __ZNSt3__16vectorIiNS_9allocatorIiEEE16__destroy_vectorclB8ne180100Ev, symObjAddr: 0x250C, symBinAddr: 0x1000050E4, symSize: 0x90 }
  - { offset: 0xF356, size: 0x8, addend: 0x0, symName: __ZNSt3__16vectorIiNS_9allocatorIiEEE7__clearB8ne180100Ev, symObjAddr: 0x259C, symBinAddr: 0x100005174, symSize: 0x28 }
  - { offset: 0xF37C, size: 0x8, addend: 0x0, symName: __ZNKSt3__16vectorIiNS_9allocatorIiEEE17__annotate_deleteB8ne180100Ev, symObjAddr: 0x25C4, symBinAddr: 0x10000519C, symSize: 0x10 }
  - { offset: 0xF3A2, size: 0x8, addend: 0x0, symName: __ZNSt3__116allocator_traitsINS_9allocatorIiEEE10deallocateB8ne180100ERS2_Pim, symObjAddr: 0x25D4, symBinAddr: 0x1000051AC, symSize: 0x34 }
  - { offset: 0xF3E4, size: 0x8, addend: 0x0, symName: __ZNKSt3__16vectorIiNS_9allocatorIiEEE8capacityB8ne180100Ev, symObjAddr: 0x2608, symBinAddr: 0x1000051E0, symSize: 0x40 }
  - { offset: 0xF40A, size: 0x8, addend: 0x0, symName: __ZNSt3__16vectorIiNS_9allocatorIiEEE22__base_destruct_at_endB8ne180100EPi, symObjAddr: 0x2648, symBinAddr: 0x100005220, symSize: 0x8C }
  - { offset: 0xF44E, size: 0x8, addend: 0x0, symName: __ZNSt3__116allocator_traitsINS_9allocatorIiEEE7destroyB8ne180100IivvEEvRS2_PT_, symObjAddr: 0x26D4, symBinAddr: 0x1000052AC, symSize: 0x28 }
  - { offset: 0xF489, size: 0x8, addend: 0x0, symName: __ZNSt3__19allocatorIiE10deallocateB8ne180100EPim, symObjAddr: 0x270C, symBinAddr: 0x1000052E4, symSize: 0x40 }
  - { offset: 0xF4CB, size: 0x8, addend: 0x0, symName: __ZNKSt3__16vectorIiNS_9allocatorIiEEE9__end_capB8ne180100Ev, symObjAddr: 0x274C, symBinAddr: 0x100005324, symSize: 0x28 }
  - { offset: 0xF4F1, size: 0x8, addend: 0x0, symName: __ZNKSt3__117__compressed_pairIPiNS_9allocatorIiEEE5firstB8ne180100Ev, symObjAddr: 0x2774, symBinAddr: 0x10000534C, symSize: 0x24 }
  - { offset: 0xF517, size: 0x8, addend: 0x0, symName: __ZNKSt3__122__compressed_pair_elemIPiLi0ELb0EE5__getB8ne180100Ev, symObjAddr: 0x2798, symBinAddr: 0x100005370, symSize: 0x14 }
  - { offset: 0xF53D, size: 0x8, addend: 0x0, symName: __ZNSt3__14pairIxiEC2B8ne180100IxRiLi0EEEOT_OT0_, symObjAddr: 0x27AC, symBinAddr: 0x100005384, symSize: 0x34 }
  - { offset: 0xF59B, size: 0x8, addend: 0x0, symName: __ZNKSt3__16vectorINS_4pairIiiEENS_9allocatorIS2_EEE11__make_iterB8ne180100EPKS2_, symObjAddr: 0x27E0, symBinAddr: 0x1000053B8, symSize: 0x30 }
  - { offset: 0xF5D0, size: 0x8, addend: 0x0, symName: __ZNSt3__111__wrap_iterIPKNS_4pairIiiEEEC1B8ne180100ES4_, symObjAddr: 0x2810, symBinAddr: 0x1000053E8, symSize: 0x34 }
  - { offset: 0xF608, size: 0x8, addend: 0x0, symName: __ZNSt3__111__wrap_iterIPKNS_4pairIiiEEEC2B8ne180100ES4_, symObjAddr: 0x2844, symBinAddr: 0x10000541C, symSize: 0x20 }
  - { offset: 0xF640, size: 0x8, addend: 0x0, symName: __ZNKSt3__111__wrap_iterIPKNS_4pairIiiEEE4baseB8ne180100Ev, symObjAddr: 0x28AC, symBinAddr: 0x100005484, symSize: 0x18 }
  - { offset: 0xF666, size: 0x8, addend: 0x0, symName: __ZNSt3__14pairIxiEC2B8ne180100IRxRiLi0EEEOT_OT0_, symObjAddr: 0x28C4, symBinAddr: 0x10000549C, symSize: 0x34 }
  - { offset: 0xF6C4, size: 0x8, addend: 0x0, symName: __ZNSt3__16vectorINS_4pairIiiEENS_9allocatorIS2_EEED2B8ne180100Ev, symObjAddr: 0x28F8, symBinAddr: 0x1000054D0, symSize: 0x44 }
  - { offset: 0xF6EE, size: 0x8, addend: 0x0, symName: __ZNSt3__16vectorINS_4pairIiiEENS_9allocatorIS2_EEE16__destroy_vectorC1B8ne180100ERS5_, symObjAddr: 0x293C, symBinAddr: 0x100005514, symSize: 0x34 }
  - { offset: 0xF727, size: 0x8, addend: 0x0, symName: __ZNSt3__16vectorINS_4pairIiiEENS_9allocatorIS2_EEE16__destroy_vectorclB8ne180100Ev, symObjAddr: 0x2970, symBinAddr: 0x100005548, symSize: 0x90 }
  - { offset: 0xF74D, size: 0x8, addend: 0x0, symName: __ZNSt3__16vectorINS_4pairIiiEENS_9allocatorIS2_EEE16__destroy_vectorC2B8ne180100ERS5_, symObjAddr: 0x2A00, symBinAddr: 0x1000055D8, symSize: 0x20 }
  - { offset: 0xF786, size: 0x8, addend: 0x0, symName: __ZNSt3__16vectorINS_4pairIiiEENS_9allocatorIS2_EEE7__clearB8ne180100Ev, symObjAddr: 0x2A20, symBinAddr: 0x1000055F8, symSize: 0x28 }
  - { offset: 0xF7AC, size: 0x8, addend: 0x0, symName: __ZNKSt3__16vectorINS_4pairIiiEENS_9allocatorIS2_EEE17__annotate_deleteB8ne180100Ev, symObjAddr: 0x2A48, symBinAddr: 0x100005620, symSize: 0x10 }
  - { offset: 0xF7D2, size: 0x8, addend: 0x0, symName: __ZNSt3__116allocator_traitsINS_9allocatorINS_4pairIiiEEEEE10deallocateB8ne180100ERS4_PS3_m, symObjAddr: 0x2A58, symBinAddr: 0x100005630, symSize: 0x34 }
  - { offset: 0xF814, size: 0x8, addend: 0x0, symName: __ZNSt3__16vectorINS_4pairIiiEENS_9allocatorIS2_EEE7__allocB8ne180100Ev, symObjAddr: 0x2A8C, symBinAddr: 0x100005664, symSize: 0x28 }
  - { offset: 0xF83A, size: 0x8, addend: 0x0, symName: __ZNKSt3__16vectorINS_4pairIiiEENS_9allocatorIS2_EEE8capacityB8ne180100Ev, symObjAddr: 0x2AB4, symBinAddr: 0x10000568C, symSize: 0x40 }
  - { offset: 0xF860, size: 0x8, addend: 0x0, symName: __ZNSt3__16vectorINS_4pairIiiEENS_9allocatorIS2_EEE22__base_destruct_at_endB8ne180100EPS2_, symObjAddr: 0x2AF4, symBinAddr: 0x1000056CC, symSize: 0x8C }
  - { offset: 0xF8A4, size: 0x8, addend: 0x0, symName: __ZNSt3__116allocator_traitsINS_9allocatorINS_4pairIiiEEEEE7destroyB8ne180100IS3_vvEEvRS4_PT_, symObjAddr: 0x2B80, symBinAddr: 0x100005758, symSize: 0x28 }
  - { offset: 0xF8DF, size: 0x8, addend: 0x0, symName: __ZNSt3__19allocatorINS_4pairIiiEEE10deallocateB8ne180100EPS2_m, symObjAddr: 0x2BCC, symBinAddr: 0x1000057A4, symSize: 0x40 }
  - { offset: 0xF921, size: 0x8, addend: 0x0, symName: __ZNSt3__117__compressed_pairIPNS_4pairIiiEENS_9allocatorIS2_EEE6secondB8ne180100Ev, symObjAddr: 0x2C0C, symBinAddr: 0x1000057E4, symSize: 0x24 }
  - { offset: 0xF947, size: 0x8, addend: 0x0, symName: __ZNSt3__122__compressed_pair_elemINS_9allocatorINS_4pairIiiEEEELi1ELb1EE5__getB8ne180100Ev, symObjAddr: 0x2C30, symBinAddr: 0x100005808, symSize: 0x14 }
  - { offset: 0xF96D, size: 0x8, addend: 0x0, symName: __ZNKSt3__16vectorINS_4pairIiiEENS_9allocatorIS2_EEE9__end_capB8ne180100Ev, symObjAddr: 0x2C44, symBinAddr: 0x10000581C, symSize: 0x28 }
  - { offset: 0xF993, size: 0x8, addend: 0x0, symName: __ZNKSt3__117__compressed_pairIPNS_4pairIiiEENS_9allocatorIS2_EEE5firstB8ne180100Ev, symObjAddr: 0x2C6C, symBinAddr: 0x100005844, symSize: 0x24 }
  - { offset: 0xF9B9, size: 0x8, addend: 0x0, symName: __ZNKSt3__122__compressed_pair_elemIPNS_4pairIiiEELi0ELb0EE5__getB8ne180100Ev, symObjAddr: 0x2C90, symBinAddr: 0x100005868, symSize: 0x14 }
  - { offset: 0xF9DF, size: 0x8, addend: 0x0, symName: __ZNSt3__114priority_queueINS_4pairIxiEENS_6vectorIS2_NS_9allocatorIS2_EEEENS_7greaterIS2_EEED2Ev, symObjAddr: 0x2CA4, symBinAddr: 0x10000587C, symSize: 0x2C }
  - { offset: 0xFA0C, size: 0x8, addend: 0x0, symName: __ZNSt3__16vectorINS_4pairIxiEENS_9allocatorIS2_EEED1B8ne180100Ev, symObjAddr: 0x2CD0, symBinAddr: 0x1000058A8, symSize: 0x2C }
  - { offset: 0xFA36, size: 0x8, addend: 0x0, symName: __ZNSt3__16vectorINS_4pairIxiEENS_9allocatorIS2_EEED2B8ne180100Ev, symObjAddr: 0x2CFC, symBinAddr: 0x1000058D4, symSize: 0x44 }
  - { offset: 0xFA60, size: 0x8, addend: 0x0, symName: __ZNSt3__16vectorINS_4pairIxiEENS_9allocatorIS2_EEE16__destroy_vectorC1B8ne180100ERS5_, symObjAddr: 0x2D40, symBinAddr: 0x100005918, symSize: 0x34 }
  - { offset: 0xFA99, size: 0x8, addend: 0x0, symName: __ZNSt3__16vectorINS_4pairIxiEENS_9allocatorIS2_EEE16__destroy_vectorclB8ne180100Ev, symObjAddr: 0x2D74, symBinAddr: 0x10000594C, symSize: 0x90 }
  - { offset: 0xFABF, size: 0x8, addend: 0x0, symName: __ZNSt3__16vectorINS_4pairIxiEENS_9allocatorIS2_EEE16__destroy_vectorC2B8ne180100ERS5_, symObjAddr: 0x2E04, symBinAddr: 0x1000059DC, symSize: 0x20 }
  - { offset: 0xFAF8, size: 0x8, addend: 0x0, symName: __ZNSt3__16vectorINS_4pairIxiEENS_9allocatorIS2_EEE7__clearB8ne180100Ev, symObjAddr: 0x2E24, symBinAddr: 0x1000059FC, symSize: 0x28 }
  - { offset: 0xFB1E, size: 0x8, addend: 0x0, symName: __ZNKSt3__16vectorINS_4pairIxiEENS_9allocatorIS2_EEE17__annotate_deleteB8ne180100Ev, symObjAddr: 0x2E4C, symBinAddr: 0x100005A24, symSize: 0x10 }
  - { offset: 0xFB44, size: 0x8, addend: 0x0, symName: __ZNSt3__116allocator_traitsINS_9allocatorINS_4pairIxiEEEEE10deallocateB8ne180100ERS4_PS3_m, symObjAddr: 0x2E5C, symBinAddr: 0x100005A34, symSize: 0x34 }
  - { offset: 0xFB86, size: 0x8, addend: 0x0, symName: __ZNSt3__16vectorINS_4pairIxiEENS_9allocatorIS2_EEE7__allocB8ne180100Ev, symObjAddr: 0x2E90, symBinAddr: 0x100005A68, symSize: 0x28 }
  - { offset: 0xFBAC, size: 0x8, addend: 0x0, symName: __ZNKSt3__16vectorINS_4pairIxiEENS_9allocatorIS2_EEE8capacityB8ne180100Ev, symObjAddr: 0x2EB8, symBinAddr: 0x100005A90, symSize: 0x40 }
  - { offset: 0xFBD2, size: 0x8, addend: 0x0, symName: __ZNSt3__16vectorINS_4pairIxiEENS_9allocatorIS2_EEE22__base_destruct_at_endB8ne180100EPS2_, symObjAddr: 0x2EF8, symBinAddr: 0x100005AD0, symSize: 0x8C }
  - { offset: 0xFC16, size: 0x8, addend: 0x0, symName: __ZNSt3__116allocator_traitsINS_9allocatorINS_4pairIxiEEEEE7destroyB8ne180100IS3_vvEEvRS4_PT_, symObjAddr: 0x2F84, symBinAddr: 0x100005B5C, symSize: 0x28 }
  - { offset: 0xFC51, size: 0x8, addend: 0x0, symName: __ZNSt3__19allocatorINS_4pairIxiEEE10deallocateB8ne180100EPS2_m, symObjAddr: 0x2FD0, symBinAddr: 0x100005BA8, symSize: 0x40 }
  - { offset: 0xFC93, size: 0x8, addend: 0x0, symName: __ZNSt3__117__compressed_pairIPNS_4pairIxiEENS_9allocatorIS2_EEE6secondB8ne180100Ev, symObjAddr: 0x3010, symBinAddr: 0x100005BE8, symSize: 0x24 }
  - { offset: 0xFCB9, size: 0x8, addend: 0x0, symName: __ZNSt3__122__compressed_pair_elemINS_9allocatorINS_4pairIxiEEEELi1ELb1EE5__getB8ne180100Ev, symObjAddr: 0x3034, symBinAddr: 0x100005C0C, symSize: 0x14 }
  - { offset: 0xFCDF, size: 0x8, addend: 0x0, symName: __ZNKSt3__16vectorINS_4pairIxiEENS_9allocatorIS2_EEE9__end_capB8ne180100Ev, symObjAddr: 0x3048, symBinAddr: 0x100005C20, symSize: 0x28 }
  - { offset: 0xFD05, size: 0x8, addend: 0x0, symName: __ZNKSt3__117__compressed_pairIPNS_4pairIxiEENS_9allocatorIS2_EEE5firstB8ne180100Ev, symObjAddr: 0x3070, symBinAddr: 0x100005C48, symSize: 0x24 }
  - { offset: 0xFD2B, size: 0x8, addend: 0x0, symName: __ZNKSt3__122__compressed_pair_elemIPNS_4pairIxiEELi0ELb0EE5__getB8ne180100Ev, symObjAddr: 0x3094, symBinAddr: 0x100005C6C, symSize: 0x14 }
  - { offset: 0xFD51, size: 0x8, addend: 0x0, symName: __ZNSt3__16vectorIiNS_9allocatorIiEEED2B8ne180100Ev, symObjAddr: 0x30A8, symBinAddr: 0x100005C80, symSize: 0x40 }
  - { offset: 0xFD7B, size: 0x8, addend: 0x0, symName: __ZNSt3__114priority_queueINS_4pairIxiEENS_6vectorIS2_NS_9allocatorIS2_EEEENS_7greaterIS2_EEEC2B8ne180100Ev, symObjAddr: 0x30E8, symBinAddr: 0x100005CC0, symSize: 0x2C }
  - { offset: 0xFDA5, size: 0x8, addend: 0x0, symName: __ZNSt3__16vectorINS_4pairIxiEENS_9allocatorIS2_EEEC1B8ne180100Ev, symObjAddr: 0x3114, symBinAddr: 0x100005CEC, symSize: 0x2C }
  - { offset: 0xFDCF, size: 0x8, addend: 0x0, symName: __ZNSt3__16vectorINS_4pairIxiEENS_9allocatorIS2_EEEC2B8ne180100Ev, symObjAddr: 0x3140, symBinAddr: 0x100005D18, symSize: 0x4C }
  - { offset: 0xFDF9, size: 0x8, addend: 0x0, symName: __ZNSt3__117__compressed_pairIPNS_4pairIxiEENS_9allocatorIS2_EEEC1B8ne180100IDnNS_18__default_init_tagEEEOT_OT0_, symObjAddr: 0x318C, symBinAddr: 0x100005D64, symSize: 0x3C }
  - { offset: 0xFE51, size: 0x8, addend: 0x0, symName: __ZNSt3__117__compressed_pairIPNS_4pairIxiEENS_9allocatorIS2_EEEC2B8ne180100IDnNS_18__default_init_tagEEEOT_OT0_, symObjAddr: 0x31C8, symBinAddr: 0x100005DA0, symSize: 0x40 }
  - { offset: 0xFEA9, size: 0x8, addend: 0x0, symName: __ZNSt3__122__compressed_pair_elemIPNS_4pairIxiEELi0ELb0EEC2B8ne180100IDnvEEOT_, symObjAddr: 0x3208, symBinAddr: 0x100005DE0, symSize: 0x1C }
  - { offset: 0xFEEB, size: 0x8, addend: 0x0, symName: __ZNSt3__122__compressed_pair_elemINS_9allocatorINS_4pairIxiEEEELi1ELb1EEC2B8ne180100ENS_18__default_init_tagE, symObjAddr: 0x3224, symBinAddr: 0x100005DFC, symSize: 0x2C }
  - { offset: 0xFF1F, size: 0x8, addend: 0x0, symName: __ZNSt3__19allocatorINS_4pairIxiEEEC2B8ne180100Ev, symObjAddr: 0x3250, symBinAddr: 0x100005E28, symSize: 0x2C }
  - { offset: 0xFF49, size: 0x8, addend: 0x0, symName: __ZNSt3__116__non_trivial_ifILb1ENS_9allocatorINS_4pairIxiEEEEEC2B8ne180100Ev, symObjAddr: 0x327C, symBinAddr: 0x100005E54, symSize: 0x14 }
  - { offset: 0xFF72, size: 0x8, addend: 0x0, symName: __ZNSt3__16vectorINS_4pairIxiEENS_9allocatorIS2_EEE9push_backB8ne180100EOS2_, symObjAddr: 0x3290, symBinAddr: 0x100005E68, symSize: 0x90 }
  - { offset: 0xFFB7, size: 0x8, addend: 0x0, symName: __ZNSt3__16vectorINS_4pairIxiEENS_9allocatorIS2_EEE5beginB8ne180100Ev, symObjAddr: 0x3360, symBinAddr: 0x100005F38, symSize: 0x30 }
  - { offset: 0xFFDE, size: 0x8, addend: 0x0, symName: __ZNSt3__16vectorINS_4pairIxiEENS_9allocatorIS2_EEE3endB8ne180100Ev, symObjAddr: 0x3390, symBinAddr: 0x100005F68, symSize: 0x30 }
  - { offset: 0x10006, size: 0x8, addend: 0x0, symName: __ZNSt3__16vectorINS_4pairIxiEENS_9allocatorIS2_EEE9__end_capB8ne180100Ev, symObjAddr: 0x33C0, symBinAddr: 0x100005F98, symSize: 0x28 }
  - { offset: 0x1002C, size: 0x8, addend: 0x0, symName: __ZNSt3__16vectorINS_4pairIxiEENS_9allocatorIS2_EEE22__construct_one_at_endB8ne180100IJS2_EEEvDpOT_, symObjAddr: 0x33E8, symBinAddr: 0x100005FC0, symSize: 0x90 }
  - { offset: 0x1007A, size: 0x8, addend: 0x0, symName: __ZNSt3__16vectorINS_4pairIxiEENS_9allocatorIS2_EEE21__push_back_slow_pathIS2_EEPS2_OT_, symObjAddr: 0x3478, symBinAddr: 0x100006050, symSize: 0xE8 }
  - { offset: 0x100D8, size: 0x8, addend: 0x0, symName: __ZNSt3__117__compressed_pairIPNS_4pairIxiEENS_9allocatorIS2_EEE5firstB8ne180100Ev, symObjAddr: 0x3560, symBinAddr: 0x100006138, symSize: 0x24 }
  - { offset: 0x100FE, size: 0x8, addend: 0x0, symName: __ZNSt3__122__compressed_pair_elemIPNS_4pairIxiEELi0ELb0EE5__getB8ne180100Ev, symObjAddr: 0x3584, symBinAddr: 0x10000615C, symSize: 0x14 }
  - { offset: 0x1013D, size: 0x8, addend: 0x0, symName: __ZNSt3__16vectorINS_4pairIxiEENS_9allocatorIS2_EEE21_ConstructTransactionC1B8ne180100ERS5_m, symObjAddr: 0x3598, symBinAddr: 0x100006170, symSize: 0x3C }
  - { offset: 0x10185, size: 0x8, addend: 0x0, symName: __ZNSt3__116allocator_traitsINS_9allocatorINS_4pairIxiEEEEE9constructB8ne180100IS3_JS3_EvvEEvRS4_PT_DpOT0_, symObjAddr: 0x35D4, symBinAddr: 0x1000061AC, symSize: 0x30 }
  - { offset: 0x101DA, size: 0x8, addend: 0x0, symName: __ZNSt3__16vectorINS_4pairIxiEENS_9allocatorIS2_EEE21_ConstructTransactionD1B8ne180100Ev, symObjAddr: 0x3604, symBinAddr: 0x1000061DC, symSize: 0x2C }
  - { offset: 0x10204, size: 0x8, addend: 0x0, symName: __ZNSt3__16vectorINS_4pairIxiEENS_9allocatorIS2_EEE21_ConstructTransactionC2B8ne180100ERS5_m, symObjAddr: 0x3630, symBinAddr: 0x100006208, symSize: 0x44 }
  - { offset: 0x1024C, size: 0x8, addend: 0x0, symName: __ZNSt3__16vectorINS_4pairIxiEENS_9allocatorIS2_EEE21_ConstructTransactionD2B8ne180100Ev, symObjAddr: 0x36C4, symBinAddr: 0x10000629C, symSize: 0x20 }
  - { offset: 0x10275, size: 0x8, addend: 0x0, symName: __ZNKSt3__16vectorINS_4pairIxiEENS_9allocatorIS2_EEE11__recommendB8ne180100Em, symObjAddr: 0x36E4, symBinAddr: 0x1000062BC, symSize: 0xB4 }
  - { offset: 0x102CA, size: 0x8, addend: 0x0, symName: __ZNKSt3__16vectorINS_4pairIxiEENS_9allocatorIS2_EEE4sizeB8ne180100Ev, symObjAddr: 0x3798, symBinAddr: 0x100006370, symSize: 0x28 }
  - { offset: 0x102F0, size: 0x8, addend: 0x0, symName: __ZNSt3__114__split_bufferINS_4pairIxiEERNS_9allocatorIS2_EEEC1EmmS5_, symObjAddr: 0x37C0, symBinAddr: 0x100006398, symSize: 0x44 }
  - { offset: 0x10346, size: 0x8, addend: 0x0, symName: __ZNSt3__114__split_bufferINS_4pairIxiEERNS_9allocatorIS2_EEED1Ev, symObjAddr: 0x3914, symBinAddr: 0x1000064EC, symSize: 0x2C }
  - { offset: 0x10371, size: 0x8, addend: 0x0, symName: __ZNKSt3__16vectorINS_4pairIxiEENS_9allocatorIS2_EEE8max_sizeEv, symObjAddr: 0x3940, symBinAddr: 0x100006518, symSize: 0x60 }
  - { offset: 0x10399, size: 0x8, addend: 0x0, symName: __ZNKSt3__16vectorINS_4pairIxiEENS_9allocatorIS2_EEE20__throw_length_errorB8ne180100Ev, symObjAddr: 0x39A0, symBinAddr: 0x100006578, symSize: 0x1C }
  - { offset: 0x103C9, size: 0x8, addend: 0x0, symName: __ZNSt3__116allocator_traitsINS_9allocatorINS_4pairIxiEEEEE8max_sizeB8ne180100IS4_vvEEmRKS4_, symObjAddr: 0x39E8, symBinAddr: 0x1000065C0, symSize: 0x28 }
  - { offset: 0x103F5, size: 0x8, addend: 0x0, symName: __ZNKSt3__16vectorINS_4pairIxiEENS_9allocatorIS2_EEE7__allocB8ne180100Ev, symObjAddr: 0x3A10, symBinAddr: 0x1000065E8, symSize: 0x28 }
  - { offset: 0x1041B, size: 0x8, addend: 0x0, symName: __ZNKSt3__117__compressed_pairIPNS_4pairIxiEENS_9allocatorIS2_EEE6secondB8ne180100Ev, symObjAddr: 0x3A38, symBinAddr: 0x100006610, symSize: 0x24 }
  - { offset: 0x10441, size: 0x8, addend: 0x0, symName: __ZNKSt3__122__compressed_pair_elemINS_9allocatorINS_4pairIxiEEEELi1ELb1EE5__getB8ne180100Ev, symObjAddr: 0x3A5C, symBinAddr: 0x100006634, symSize: 0x14 }
  - { offset: 0x10467, size: 0x8, addend: 0x0, symName: __ZNSt3__114__split_bufferINS_4pairIxiEERNS_9allocatorIS2_EEEC2EmmS5_, symObjAddr: 0x3AC4, symBinAddr: 0x10000669C, symSize: 0xD4 }
  - { offset: 0x104DA, size: 0x8, addend: 0x0, symName: __ZNSt3__117__compressed_pairIPNS_4pairIxiEERNS_9allocatorIS2_EEEC1B8ne180100IDnS6_EEOT_OT0_, symObjAddr: 0x3B98, symBinAddr: 0x100006770, symSize: 0x3C }
  - { offset: 0x10532, size: 0x8, addend: 0x0, symName: __ZNSt3__114__split_bufferINS_4pairIxiEERNS_9allocatorIS2_EEE7__allocB8ne180100Ev, symObjAddr: 0x3C14, symBinAddr: 0x1000067EC, symSize: 0x28 }
  - { offset: 0x10558, size: 0x8, addend: 0x0, symName: __ZNSt3__114__split_bufferINS_4pairIxiEERNS_9allocatorIS2_EEE9__end_capB8ne180100Ev, symObjAddr: 0x3C3C, symBinAddr: 0x100006814, symSize: 0x28 }
  - { offset: 0x1057E, size: 0x8, addend: 0x0, symName: __ZNSt3__117__compressed_pairIPNS_4pairIxiEERNS_9allocatorIS2_EEEC2B8ne180100IDnS6_EEOT_OT0_, symObjAddr: 0x3C64, symBinAddr: 0x10000683C, symSize: 0x48 }
  - { offset: 0x105D6, size: 0x8, addend: 0x0, symName: __ZNSt3__122__compressed_pair_elemIRNS_9allocatorINS_4pairIxiEEEELi1ELb0EEC2B8ne180100IS5_vEEOT_, symObjAddr: 0x3CAC, symBinAddr: 0x100006884, symSize: 0x20 }
  - { offset: 0x10618, size: 0x8, addend: 0x0, symName: __ZNSt3__19allocatorINS_4pairIxiEEE8allocateB8ne180100Em, symObjAddr: 0x3CCC, symBinAddr: 0x1000068A4, symSize: 0x58 }
  - { offset: 0x1064C, size: 0x8, addend: 0x0, symName: __ZNSt3__117__compressed_pairIPNS_4pairIxiEERNS_9allocatorIS2_EEE6secondB8ne180100Ev, symObjAddr: 0x3D24, symBinAddr: 0x1000068FC, symSize: 0x28 }
  - { offset: 0x10672, size: 0x8, addend: 0x0, symName: __ZNSt3__122__compressed_pair_elemIRNS_9allocatorINS_4pairIxiEEEELi1ELb0EE5__getB8ne180100Ev, symObjAddr: 0x3D4C, symBinAddr: 0x100006924, symSize: 0x18 }
  - { offset: 0x10698, size: 0x8, addend: 0x0, symName: __ZNSt3__117__compressed_pairIPNS_4pairIxiEERNS_9allocatorIS2_EEE5firstB8ne180100Ev, symObjAddr: 0x3D64, symBinAddr: 0x10000693C, symSize: 0x24 }
  - { offset: 0x106BE, size: 0x8, addend: 0x0, symName: __ZNSt3__116reverse_iteratorIPNS_4pairIxiEEEC1B8ne180100ES3_, symObjAddr: 0x3EB4, symBinAddr: 0x100006A8C, symSize: 0x34 }
  - { offset: 0x106F6, size: 0x8, addend: 0x0, symName: __ZNKSt3__116reverse_iteratorIPNS_4pairIxiEEE4baseB8ne180100Ev, symObjAddr: 0x3EE8, symBinAddr: 0x100006AC0, symSize: 0x18 }
  - { offset: 0x1071C, size: 0x8, addend: 0x0, symName: __ZNKSt3__16vectorINS_4pairIxiEENS_9allocatorIS2_EEE14__annotate_newB8ne180100Em, symObjAddr: 0x3F3C, symBinAddr: 0x100006B14, symSize: 0x14 }
  - { offset: 0x10751, size: 0x8, addend: 0x0, symName: __ZNSt3__129_AllocatorDestroyRangeReverseINS_9allocatorINS_4pairIxiEEEENS_16reverse_iteratorIPS3_EEEC1B8ne180100ERS4_RS7_SA_, symObjAddr: 0x3F9C, symBinAddr: 0x100006B74, symSize: 0x44 }
  - { offset: 0x107A8, size: 0x8, addend: 0x0, symName: __ZNKSt3__116reverse_iteratorIPNS_4pairIxiEEEdeB8ne180100Ev, symObjAddr: 0x404C, symBinAddr: 0x100006C24, symSize: 0x28 }
  - { offset: 0x107DC, size: 0x8, addend: 0x0, symName: __ZNSt3__116reverse_iteratorIPNS_4pairIxiEEEppB8ne180100Ev, symObjAddr: 0x4074, symBinAddr: 0x100006C4C, symSize: 0x20 }
  - { offset: 0x10802, size: 0x8, addend: 0x0, symName: __ZNSt3__128__exception_guard_exceptionsINS_29_AllocatorDestroyRangeReverseINS_9allocatorINS_4pairIxiEEEENS_16reverse_iteratorIPS4_EEEEE10__completeB8ne180100Ev, symObjAddr: 0x4094, symBinAddr: 0x100006C6C, symSize: 0x1C }
  - { offset: 0x10828, size: 0x8, addend: 0x0, symName: __ZNSt3__128__exception_guard_exceptionsINS_29_AllocatorDestroyRangeReverseINS_9allocatorINS_4pairIxiEEEENS_16reverse_iteratorIPS4_EEEEED1B8ne180100Ev, symObjAddr: 0x40B0, symBinAddr: 0x100006C88, symSize: 0x2C }
  - { offset: 0x10852, size: 0x8, addend: 0x0, symName: __ZNSt3__128__exception_guard_exceptionsINS_29_AllocatorDestroyRangeReverseINS_9allocatorINS_4pairIxiEEEENS_16reverse_iteratorIPS4_EEEEEC1B8ne180100ES9_, symObjAddr: 0x40DC, symBinAddr: 0x100006CB4, symSize: 0x34 }
  - { offset: 0x1088B, size: 0x8, addend: 0x0, symName: __ZNSt3__128__exception_guard_exceptionsINS_29_AllocatorDestroyRangeReverseINS_9allocatorINS_4pairIxiEEEENS_16reverse_iteratorIPS4_EEEEEC2B8ne180100ES9_, symObjAddr: 0x4110, symBinAddr: 0x100006CE8, symSize: 0x30 }
  - { offset: 0x108C4, size: 0x8, addend: 0x0, symName: __ZNSt3__129_AllocatorDestroyRangeReverseINS_9allocatorINS_4pairIxiEEEENS_16reverse_iteratorIPS3_EEEC2B8ne180100ERS4_RS7_SA_, symObjAddr: 0x4140, symBinAddr: 0x100006D18, symSize: 0x38 }
  - { offset: 0x10920, size: 0x8, addend: 0x0, symName: __ZNSt3__119__to_address_helperINS_16reverse_iteratorIPNS_4pairIxiEEEEvE6__callB8ne180100ERKS5_, symObjAddr: 0x4178, symBinAddr: 0x100006D50, symSize: 0x38 }
  - { offset: 0x10943, size: 0x8, addend: 0x0, symName: __ZNKSt3__116reverse_iteratorIPNS_4pairIxiEEEptB8ne180100Ev, symObjAddr: 0x41B0, symBinAddr: 0x100006D88, symSize: 0x2C }
  - { offset: 0x10969, size: 0x8, addend: 0x0, symName: __ZNSt3__128__exception_guard_exceptionsINS_29_AllocatorDestroyRangeReverseINS_9allocatorINS_4pairIxiEEEENS_16reverse_iteratorIPS4_EEEEED2B8ne180100Ev, symObjAddr: 0x428C, symBinAddr: 0x100006E64, symSize: 0x50 }
  - { offset: 0x10993, size: 0x8, addend: 0x0, symName: __ZNKSt3__129_AllocatorDestroyRangeReverseINS_9allocatorINS_4pairIxiEEEENS_16reverse_iteratorIPS3_EEEclB8ne180100Ev, symObjAddr: 0x42DC, symBinAddr: 0x100006EB4, symSize: 0xB4 }
  - { offset: 0x109BA, size: 0x8, addend: 0x0, symName: __ZNSt3__116reverse_iteratorINS0_IPNS_4pairIxiEEEEEC1B8ne180100ES4_, symObjAddr: 0x4400, symBinAddr: 0x100006FD8, symSize: 0x3C }
  - { offset: 0x109F2, size: 0x8, addend: 0x0, symName: __ZNSt3__116reverse_iteratorINS0_IPNS_4pairIxiEEEEEppB8ne180100Ev, symObjAddr: 0x44C0, symBinAddr: 0x100007098, symSize: 0x30 }
  - { offset: 0x10A18, size: 0x8, addend: 0x0, symName: __ZNKSt3__116reverse_iteratorINS0_IPNS_4pairIxiEEEEE4baseB8ne180100Ev, symObjAddr: 0x44F0, symBinAddr: 0x1000070C8, symSize: 0x24 }
  - { offset: 0x10A43, size: 0x8, addend: 0x0, symName: __ZNSt3__119__to_address_helperINS_16reverse_iteratorINS1_IPNS_4pairIxiEEEEEEvE6__callB8ne180100ERKS6_, symObjAddr: 0x4514, symBinAddr: 0x1000070EC, symSize: 0x38 }
  - { offset: 0x10A66, size: 0x8, addend: 0x0, symName: __ZNKSt3__116reverse_iteratorINS0_IPNS_4pairIxiEEEEEptB8ne180100Ev, symObjAddr: 0x454C, symBinAddr: 0x100007124, symSize: 0x4C }
  - { offset: 0x10A8C, size: 0x8, addend: 0x0, symName: __ZNSt3__116reverse_iteratorIPNS_4pairIxiEEEpLB8ne180100El, symObjAddr: 0x4648, symBinAddr: 0x100007220, symSize: 0x30 }
  - { offset: 0x10AC0, size: 0x8, addend: 0x0, symName: __ZNSt3__116reverse_iteratorIPNS_4pairIxiEEEmmB8ne180100Ev, symObjAddr: 0x4678, symBinAddr: 0x100007250, symSize: 0x20 }
  - { offset: 0x10AE6, size: 0x8, addend: 0x0, symName: __ZNSt3__116reverse_iteratorINS0_IPNS_4pairIxiEEEEEC2B8ne180100ES4_, symObjAddr: 0x4698, symBinAddr: 0x100007270, symSize: 0x2C }
  - { offset: 0x10B1E, size: 0x8, addend: 0x0, symName: __ZNSt3__116reverse_iteratorIPNS_4pairIxiEEEC2B8ne180100ES3_, symObjAddr: 0x46C4, symBinAddr: 0x10000729C, symSize: 0x28 }
  - { offset: 0x10B56, size: 0x8, addend: 0x0, symName: __ZNSt3__114__split_bufferINS_4pairIxiEERNS_9allocatorIS2_EEED2Ev, symObjAddr: 0x46EC, symBinAddr: 0x1000072C4, symSize: 0x8C }
  - { offset: 0x10B82, size: 0x8, addend: 0x0, symName: __ZNSt3__114__split_bufferINS_4pairIxiEERNS_9allocatorIS2_EEE5clearB8ne180100Ev, symObjAddr: 0x4778, symBinAddr: 0x100007350, symSize: 0x28 }
  - { offset: 0x10BA8, size: 0x8, addend: 0x0, symName: __ZNKSt3__114__split_bufferINS_4pairIxiEERNS_9allocatorIS2_EEE8capacityB8ne180100Ev, symObjAddr: 0x47A0, symBinAddr: 0x100007378, symSize: 0x40 }
  - { offset: 0x10BCE, size: 0x8, addend: 0x0, symName: __ZNSt3__114__split_bufferINS_4pairIxiEERNS_9allocatorIS2_EEE17__destruct_at_endB8ne180100EPS2_, symObjAddr: 0x47E0, symBinAddr: 0x1000073B8, symSize: 0x2C }
  - { offset: 0x10C01, size: 0x8, addend: 0x0, symName: __ZNSt3__114__split_bufferINS_4pairIxiEERNS_9allocatorIS2_EEE17__destruct_at_endB8ne180100EPS2_NS_17integral_constantIbLb0EEE, symObjAddr: 0x480C, symBinAddr: 0x1000073E4, symSize: 0x80 }
  - { offset: 0x10C41, size: 0x8, addend: 0x0, symName: __ZNKSt3__114__split_bufferINS_4pairIxiEERNS_9allocatorIS2_EEE9__end_capB8ne180100Ev, symObjAddr: 0x488C, symBinAddr: 0x100007464, symSize: 0x28 }
  - { offset: 0x10C67, size: 0x8, addend: 0x0, symName: __ZNKSt3__117__compressed_pairIPNS_4pairIxiEERNS_9allocatorIS2_EEE5firstB8ne180100Ev, symObjAddr: 0x48B4, symBinAddr: 0x10000748C, symSize: 0x24 }
  - { offset: 0x10C8D, size: 0x8, addend: 0x0, symName: __ZNKSt3__111__wrap_iterIPNS_4pairIxiEEE4baseB8ne180100Ev, symObjAddr: 0x4AD8, symBinAddr: 0x1000076B0, symSize: 0x18 }
  - { offset: 0x10CB3, size: 0x8, addend: 0x0, symName: __ZNKSt3__111__wrap_iterIPNS_4pairIxiEEEplB8ne180100El, symObjAddr: 0x4AF0, symBinAddr: 0x1000076C8, symSize: 0x3C }
  - { offset: 0x10CF5, size: 0x8, addend: 0x0, symName: __ZNKSt3__17greaterINS_4pairIxiEEEclB8ne180100ERKS2_S5_, symObjAddr: 0x4B2C, symBinAddr: 0x100007704, symSize: 0x50 }
  - { offset: 0x10D39, size: 0x8, addend: 0x0, symName: __ZNKSt3__111__wrap_iterIPNS_4pairIxiEEEdeB8ne180100Ev, symObjAddr: 0x4B7C, symBinAddr: 0x100007754, symSize: 0x18 }
  - { offset: 0x10D5F, size: 0x8, addend: 0x0, symName: __ZNSt3__111__wrap_iterIPNS_4pairIxiEEEmmB8ne180100Ev, symObjAddr: 0x4B94, symBinAddr: 0x10000776C, symSize: 0x20 }
  - { offset: 0x10D8A, size: 0x8, addend: 0x0, symName: __ZNSt3__18_IterOpsINS_17_ClassicAlgPolicyEE11__iter_moveB8ne180100IRNS_11__wrap_iterIPNS_4pairIxiEEEELi0EEEDTclsr3stdE4movedeclsr3stdE7declvalIRT_EEEEOSA_, symObjAddr: 0x4BB4, symBinAddr: 0x10000778C, symSize: 0x28 }
  - { offset: 0x10DBC, size: 0x8, addend: 0x0, symName: __ZNSt3__14pairIxiEaSB8ne180100EOS1_, symObjAddr: 0x4BDC, symBinAddr: 0x1000077B4, symSize: 0x30 }
  - { offset: 0x10DF1, size: 0x8, addend: 0x0, symName: __ZNSt3__111__wrap_iterIPNS_4pairIxiEEEpLB8ne180100El, symObjAddr: 0x4C0C, symBinAddr: 0x1000077E4, symSize: 0x28 }
  - { offset: 0x10E34, size: 0x8, addend: 0x0, symName: __ZNSt3__120_CmpUnspecifiedParamC1B8ne180100EMS0_i, symObjAddr: 0x4CD4, symBinAddr: 0x1000078AC, symSize: 0x34 }
  - { offset: 0x10E68, size: 0x8, addend: 0x0, symName: __ZNSt3__120_CmpUnspecifiedParamC2B8ne180100EMS0_i, symObjAddr: 0x4DE4, symBinAddr: 0x1000079BC, symSize: 0x18 }
  - { offset: 0x10E9C, size: 0x8, addend: 0x0, symName: __ZNSt3__18_IterOpsINS_17_ClassicAlgPolicyEE25__validate_iter_referenceB8ne180100IRNS_11__wrap_iterIPNS_4pairIxiEEEEEEvv, symObjAddr: 0x4DFC, symBinAddr: 0x1000079D4, symSize: 0x4 }
  - { offset: 0x10EBA, size: 0x8, addend: 0x0, symName: __ZNSt3__16vectorINS_4pairIxiEENS_9allocatorIS2_EEE11__make_iterB8ne180100EPS2_, symObjAddr: 0x4E00, symBinAddr: 0x1000079D8, symSize: 0x30 }
  - { offset: 0x10EEF, size: 0x8, addend: 0x0, symName: __ZNSt3__111__wrap_iterIPNS_4pairIxiEEEC1B8ne180100ES3_, symObjAddr: 0x4E30, symBinAddr: 0x100007A08, symSize: 0x34 }
  - { offset: 0x10F27, size: 0x8, addend: 0x0, symName: __ZNSt3__111__wrap_iterIPNS_4pairIxiEEEC2B8ne180100ES3_, symObjAddr: 0x4E64, symBinAddr: 0x100007A3C, symSize: 0x20 }
  - { offset: 0x10F5F, size: 0x8, addend: 0x0, symName: __ZNKSt3__16vectorINS_4pairIxiEENS_9allocatorIS2_EEE5emptyB8ne180100Ev, symObjAddr: 0x4E84, symBinAddr: 0x100007A5C, symSize: 0x28 }
  - { offset: 0x10F85, size: 0x8, addend: 0x0, symName: __ZNKSt3__16vectorINS_4pairIxiEENS_9allocatorIS2_EEE5frontB8ne180100Ev, symObjAddr: 0x4EAC, symBinAddr: 0x100007A84, symSize: 0x18 }
  - { offset: 0x10FAA, size: 0x8, addend: 0x0, symName: __ZNSt3__16vectorINS_4pairIxiEENS_9allocatorIS2_EEE8pop_backEv, symObjAddr: 0x4F1C, symBinAddr: 0x100007AF4, symSize: 0x2C }
  - { offset: 0x10FD2, size: 0x8, addend: 0x0, symName: __ZNSt3__111__wrap_iterIPNS_4pairIxiEEEppB8ne180100Ev, symObjAddr: 0x5200, symBinAddr: 0x100007DD8, symSize: 0x20 }
  - { offset: 0x10FF8, size: 0x8, addend: 0x0, symName: __ZNSt3__16vectorINS_4pairIxiEENS_9allocatorIS2_EEE17__destruct_at_endB8ne180100EPS2_, symObjAddr: 0x5220, symBinAddr: 0x100007DF8, symSize: 0x4C }
  - { offset: 0x1103C, size: 0x8, addend: 0x0, symName: __ZNKSt3__16vectorINS_4pairIxiEENS_9allocatorIS2_EEE17__annotate_shrinkB8ne180100Em, symObjAddr: 0x526C, symBinAddr: 0x100007E44, symSize: 0x14 }
  - { offset: 0x11071, size: 0x8, addend: 0x0, symName: __ZNSt3__111char_traitsIcE6lengthB8ne180100EPKc, symObjAddr: 0x546C, symBinAddr: 0x100008044, symSize: 0x34 }
  - { offset: 0x110B2, size: 0x8, addend: 0x0, symName: __ZNKSt3__113basic_ostreamIcNS_11char_traitsIcEEE6sentrycvbB8ne180100Ev, symObjAddr: 0x54A0, symBinAddr: 0x100008078, symSize: 0x1C }
  - { offset: 0x110D8, size: 0x8, addend: 0x0, symName: __ZNSt3__119ostreambuf_iteratorIcNS_11char_traitsIcEEEC1B8ne180100ERNS_13basic_ostreamIcS2_EE, symObjAddr: 0x56FC, symBinAddr: 0x1000082D4, symSize: 0x34 }
  - { offset: 0x11110, size: 0x8, addend: 0x0, symName: __ZNKSt3__18ios_base5flagsB8ne180100Ev, symObjAddr: 0x5730, symBinAddr: 0x100008308, symSize: 0x18 }
  - { offset: 0x11137, size: 0x8, addend: 0x0, symName: __ZNKSt3__19basic_iosIcNS_11char_traitsIcEEE4fillB8ne180100Ev, symObjAddr: 0x5748, symBinAddr: 0x100008320, symSize: 0x64 }
  - { offset: 0x1115F, size: 0x8, addend: 0x0, symName: __ZNKSt3__119ostreambuf_iteratorIcNS_11char_traitsIcEEE6failedB8ne180100Ev, symObjAddr: 0x57AC, symBinAddr: 0x100008384, symSize: 0x24 }
  - { offset: 0x11185, size: 0x8, addend: 0x0, symName: __ZNSt3__19basic_iosIcNS_11char_traitsIcEEE8setstateB8ne180100Ej, symObjAddr: 0x57D0, symBinAddr: 0x1000083A8, symSize: 0x2C }
  - { offset: 0x111BA, size: 0x8, addend: 0x0, symName: __ZNKSt3__18ios_base5widthB8ne180100Ev, symObjAddr: 0x57FC, symBinAddr: 0x1000083D4, symSize: 0x18 }
  - { offset: 0x111E2, size: 0x8, addend: 0x0, symName: __ZNSt3__115basic_streambufIcNS_11char_traitsIcEEE5sputnB8ne180100EPKcl, symObjAddr: 0x5814, symBinAddr: 0x1000083EC, symSize: 0x3C }
  - { offset: 0x11224, size: 0x8, addend: 0x0, symName: __ZNSt3__112basic_stringIcNS_11char_traitsIcEENS_9allocatorIcEEEC1B8ne180100Emc, symObjAddr: 0x5850, symBinAddr: 0x100008428, symSize: 0x3C }
  - { offset: 0x1126C, size: 0x8, addend: 0x0, symName: __ZNSt3__112basic_stringIcNS_11char_traitsIcEENS_9allocatorIcEEE4dataB8ne180100Ev, symObjAddr: 0x588C, symBinAddr: 0x100008464, symSize: 0x28 }
  - { offset: 0x11292, size: 0x8, addend: 0x0, symName: __ZNSt3__18ios_base5widthB8ne180100El, symObjAddr: 0x58B4, symBinAddr: 0x10000848C, symSize: 0x2C }
  - { offset: 0x112D8, size: 0x8, addend: 0x0, symName: __ZNSt3__112basic_stringIcNS_11char_traitsIcEENS_9allocatorIcEEEC2B8ne180100Emc, symObjAddr: 0x58E0, symBinAddr: 0x1000084B8, symSize: 0x4C }
  - { offset: 0x11320, size: 0x8, addend: 0x0, symName: __ZNSt3__117__compressed_pairINS_12basic_stringIcNS_11char_traitsIcEENS_9allocatorIcEEE5__repES5_EC1B8ne180100INS_18__default_init_tagESA_EEOT_OT0_, symObjAddr: 0x592C, symBinAddr: 0x100008504, symSize: 0x3C }
  - { offset: 0x11378, size: 0x8, addend: 0x0, symName: __ZNSt3__117__compressed_pairINS_12basic_stringIcNS_11char_traitsIcEENS_9allocatorIcEEE5__repES5_EC2B8ne180100INS_18__default_init_tagESA_EEOT_OT0_, symObjAddr: 0x5968, symBinAddr: 0x100008540, symSize: 0x3C }
  - { offset: 0x113D0, size: 0x8, addend: 0x0, symName: __ZNSt3__122__compressed_pair_elemINS_12basic_stringIcNS_11char_traitsIcEENS_9allocatorIcEEE5__repELi0ELb0EEC2B8ne180100ENS_18__default_init_tagE, symObjAddr: 0x59A4, symBinAddr: 0x10000857C, symSize: 0x14 }
  - { offset: 0x11404, size: 0x8, addend: 0x0, symName: __ZNSt3__122__compressed_pair_elemINS_9allocatorIcEELi1ELb1EEC2B8ne180100ENS_18__default_init_tagE, symObjAddr: 0x59B8, symBinAddr: 0x100008590, symSize: 0x2C }
  - { offset: 0x11438, size: 0x8, addend: 0x0, symName: __ZNSt3__19allocatorIcEC2B8ne180100Ev, symObjAddr: 0x59E4, symBinAddr: 0x1000085BC, symSize: 0x2C }
  - { offset: 0x11462, size: 0x8, addend: 0x0, symName: __ZNSt3__116__non_trivial_ifILb1ENS_9allocatorIcEEEC2B8ne180100Ev, symObjAddr: 0x5A10, symBinAddr: 0x1000085E8, symSize: 0x14 }
  - { offset: 0x1148C, size: 0x8, addend: 0x0, symName: __ZNSt3__112basic_stringIcNS_11char_traitsIcEENS_9allocatorIcEEE13__get_pointerB8ne180100Ev, symObjAddr: 0x5A38, symBinAddr: 0x100008610, symSize: 0x54 }
  - { offset: 0x114B2, size: 0x8, addend: 0x0, symName: __ZNKSt3__112basic_stringIcNS_11char_traitsIcEENS_9allocatorIcEEE9__is_longB8ne180100Ev, symObjAddr: 0x5A8C, symBinAddr: 0x100008664, symSize: 0x38 }
  - { offset: 0x114D8, size: 0x8, addend: 0x0, symName: __ZNSt3__112basic_stringIcNS_11char_traitsIcEENS_9allocatorIcEEE18__get_long_pointerB8ne180100Ev, symObjAddr: 0x5AC4, symBinAddr: 0x10000869C, symSize: 0x28 }
  - { offset: 0x114FE, size: 0x8, addend: 0x0, symName: __ZNSt3__112basic_stringIcNS_11char_traitsIcEENS_9allocatorIcEEE19__get_short_pointerB8ne180100Ev, symObjAddr: 0x5AEC, symBinAddr: 0x1000086C4, symSize: 0x28 }
  - { offset: 0x11524, size: 0x8, addend: 0x0, symName: __ZNKSt3__117__compressed_pairINS_12basic_stringIcNS_11char_traitsIcEENS_9allocatorIcEEE5__repES5_E5firstB8ne180100Ev, symObjAddr: 0x5B14, symBinAddr: 0x1000086EC, symSize: 0x24 }
  - { offset: 0x1154A, size: 0x8, addend: 0x0, symName: __ZNKSt3__122__compressed_pair_elemINS_12basic_stringIcNS_11char_traitsIcEENS_9allocatorIcEEE5__repELi0ELb0EE5__getB8ne180100Ev, symObjAddr: 0x5B38, symBinAddr: 0x100008710, symSize: 0x14 }
  - { offset: 0x11570, size: 0x8, addend: 0x0, symName: __ZNSt3__117__compressed_pairINS_12basic_stringIcNS_11char_traitsIcEENS_9allocatorIcEEE5__repES5_E5firstB8ne180100Ev, symObjAddr: 0x5B4C, symBinAddr: 0x100008724, symSize: 0x24 }
  - { offset: 0x11596, size: 0x8, addend: 0x0, symName: __ZNSt3__122__compressed_pair_elemINS_12basic_stringIcNS_11char_traitsIcEENS_9allocatorIcEEE5__repELi0ELb0EE5__getB8ne180100Ev, symObjAddr: 0x5B70, symBinAddr: 0x100008748, symSize: 0x14 }
  - { offset: 0x115BC, size: 0x8, addend: 0x0, symName: __ZNSt3__114pointer_traitsIPcE10pointer_toB8ne180100ERc, symObjAddr: 0x5B84, symBinAddr: 0x10000875C, symSize: 0x14 }
  - { offset: 0x115DF, size: 0x8, addend: 0x0, symName: __ZNSt3__119ostreambuf_iteratorIcNS_11char_traitsIcEEEC2B8ne180100ERNS_13basic_ostreamIcS2_EE, symObjAddr: 0x5B98, symBinAddr: 0x100008770, symSize: 0x54 }
  - { offset: 0x11616, size: 0x8, addend: 0x0, symName: __ZNKSt3__19basic_iosIcNS_11char_traitsIcEEE5rdbufB8ne180100Ev, symObjAddr: 0x5BEC, symBinAddr: 0x1000087C4, symSize: 0x24 }
  - { offset: 0x1163E, size: 0x8, addend: 0x0, symName: __ZNKSt3__18ios_base5rdbufB8ne180100Ev, symObjAddr: 0x5C10, symBinAddr: 0x1000087E8, symSize: 0x18 }
  - { offset: 0x11664, size: 0x8, addend: 0x0, symName: __ZNSt3__111char_traitsIcE11eq_int_typeB8ne180100Eii, symObjAddr: 0x5C28, symBinAddr: 0x100008800, symSize: 0x28 }
  - { offset: 0x11697, size: 0x8, addend: 0x0, symName: __ZNSt3__111char_traitsIcE3eofB8ne180100Ev, symObjAddr: 0x5C50, symBinAddr: 0x100008828, symSize: 0x8 }
  - { offset: 0x116AA, size: 0x8, addend: 0x0, symName: __ZNKSt3__19basic_iosIcNS_11char_traitsIcEEE5widenB8ne180100Ec, symObjAddr: 0x5C58, symBinAddr: 0x100008830, symSize: 0x84 }
  - { offset: 0x11723, size: 0x8, addend: 0x0, symName: __ZNKSt3__15ctypeIcE5widenB8ne180100Ec, symObjAddr: 0x5D08, symBinAddr: 0x1000088E0, symSize: 0x38 }
  - { offset: 0x11757, size: 0x8, addend: 0x0, symName: __ZNSt3__18ios_base8setstateB8ne180100Ej, symObjAddr: 0x5D40, symBinAddr: 0x100008918, symSize: 0x34 }
  - { offset: 0x172E2, size: 0x8, addend: 0x0, symName: __ZNSt3__17advanceB8ne180100IPNS_4pairIiNS1_IiiEEEEllvEEvRT_T0_, symObjAddr: 0x28D8, symBinAddr: 0x10000AE74, symSize: 0x38 }
  - { offset: 0x18A78, size: 0x8, addend: 0x0, symName: __ZNSt3__17advanceB8ne180100IPNS_4pairIiiEEllvEEvRT_T0_, symObjAddr: 0x3EE8, symBinAddr: 0x10000C1C4, symSize: 0x38 }
  - { offset: 0x18CF8, size: 0x8, addend: 0x0, symName: __ZNSt3__17advanceB8ne180100INS_16reverse_iteratorIPNS_4pairIiiEEEEllvEEvRT_T0_, symObjAddr: 0x42D8, symBinAddr: 0x10000C57C, symSize: 0x38 }
  - { offset: 0x18D73, size: 0x8, addend: 0x0, symName: __ZNSt3__14copyB8ne180100IPiS1_EET0_T_S3_S2_, symObjAddr: 0x11E8, symBinAddr: 0x100009A50, symSize: 0x40 }
  - { offset: 0x18DCD, size: 0x8, addend: 0x0, symName: __ZNSt3__122__make_exception_guardB8ne180100INS_6vectorINS_4pairIiNS2_IiiEEEENS_9allocatorIS4_EEE16__destroy_vectorEEENS_28__exception_guard_exceptionsIT_EESA_, symObjAddr: 0x1910, symBinAddr: 0x10000A178, symSize: 0x40 }
  - { offset: 0x18E02, size: 0x8, addend: 0x0, symName: __ZNSt3__119__allocate_at_leastB8ne180100INS_9allocatorINS_4pairIiNS2_IiiEEEEEEEENS_19__allocation_resultINS_16allocator_traitsIT_E7pointerEEERS8_m, symObjAddr: 0x1C00, symBinAddr: 0x10000A468, symSize: 0x40 }
  - { offset: 0x18E45, size: 0x8, addend: 0x0, symName: __ZNSt3__130__uninitialized_allocator_copyB8ne180100INS_9allocatorINS_4pairIiNS2_IiiEEEEEEPS4_S6_S6_EET2_RT_T0_T1_S7_, symObjAddr: 0x20A0, symBinAddr: 0x10000A63C, symSize: 0x80 }
  - { offset: 0x18EE2, size: 0x8, addend: 0x0, symName: __ZNSt3__114__unwrap_rangeB8ne180100IPNS_4pairIiNS1_IiiEEEES4_EEDaT_T0_, symObjAddr: 0x2198, symBinAddr: 0x10000A734, symSize: 0x3C }
  - { offset: 0x18F2E, size: 0x8, addend: 0x0, symName: __ZNSt3__135__uninitialized_allocator_copy_implB8ne180100INS_9allocatorINS_4pairIiNS2_IiiEEEEEEPS4_S6_S6_EET2_RT_T0_T1_S7_, symObjAddr: 0x21D4, symBinAddr: 0x10000A770, symSize: 0xF4 }
  - { offset: 0x18FCC, size: 0x8, addend: 0x0, symName: __ZNSt3__113__unwrap_iterB8ne180100IPNS_4pairIiNS1_IiiEEEENS_18__unwrap_iter_implIS4_Lb1EEELi0EEEDTclsrT0_8__unwrapclsr3stdE7declvalIT_EEEES8_, symObjAddr: 0x22C8, symBinAddr: 0x10000A864, symSize: 0x24 }
  - { offset: 0x19010, size: 0x8, addend: 0x0, symName: __ZNSt3__113__rewrap_iterB8ne180100IPNS_4pairIiNS1_IiiEEEES4_NS_18__unwrap_iter_implIS4_Lb1EEEEET_S7_T0_, symObjAddr: 0x22EC, symBinAddr: 0x10000A888, symSize: 0x3C }
  - { offset: 0x19167, size: 0x8, addend: 0x0, symName: __ZNSt3__122__make_exception_guardB8ne180100INS_29_AllocatorDestroyRangeReverseINS_9allocatorINS_4pairIiNS3_IiiEEEEEEPS5_EEEENS_28__exception_guard_exceptionsIT_EESA_, symObjAddr: 0x23F0, symBinAddr: 0x10000A98C, symSize: 0x4C }
  - { offset: 0x1919D, size: 0x8, addend: 0x0, symName: __ZNSt3__112__to_addressB8ne180100INS_4pairIiNS1_IiiEEEEEEPT_S5_, symObjAddr: 0x24B0, symBinAddr: 0x10000AA4C, symSize: 0x14 }
  - { offset: 0x191D2, size: 0x8, addend: 0x0, symName: __ZNSt3__114__construct_atB8ne180100INS_4pairIiNS1_IiiEEEEJRS3_EPS3_EEPT_S7_DpOT0_, symObjAddr: 0x25A8, symBinAddr: 0x10000AB44, symSize: 0x2C }
  - { offset: 0x19225, size: 0x8, addend: 0x0, symName: __ZNSt3__112construct_atB8ne180100INS_4pairIiNS1_IiiEEEEJRS3_EPS3_EEPT_S7_DpOT0_, symObjAddr: 0x25D4, symBinAddr: 0x10000AB70, symSize: 0x2C }
  - { offset: 0x19278, size: 0x8, addend: 0x0, symName: __ZNSt3__119__allocator_destroyB8ne180100INS_9allocatorINS_4pairIiNS2_IiiEEEEEENS_16reverse_iteratorIPS4_EES8_EEvRT_T0_T1_, symObjAddr: 0x26B8, symBinAddr: 0x10000AC54, symSize: 0x70 }
  - { offset: 0x192DB, size: 0x8, addend: 0x0, symName: __ZNSt3__1neB8ne180100IPNS_4pairIiNS1_IiiEEEES4_EEbRKNS_16reverse_iteratorIT_EERKNS5_IT0_EE, symObjAddr: 0x275C, symBinAddr: 0x10000ACF8, symSize: 0x48 }
  - { offset: 0x19327, size: 0x8, addend: 0x0, symName: __ZNSt3__112__to_addressB8ne180100INS_16reverse_iteratorIPNS_4pairIiNS2_IiiEEEEEEvEEu7__decayIDTclsr19__to_address_helperIT_EE6__callclsr3stdE7declvalIRKS7_EEEEES9_, symObjAddr: 0x27CC, symBinAddr: 0x10000AD68, symSize: 0x24 }
  - { offset: 0x1935D, size: 0x8, addend: 0x0, symName: __ZNSt3__112__destroy_atB8ne180100INS_4pairIiNS1_IiiEEEELi0EEEvPT_, symObjAddr: 0x2828, symBinAddr: 0x10000ADC4, symSize: 0x10 }
  - { offset: 0x193BD, size: 0x8, addend: 0x0, symName: __ZNSt3__14prevB8ne180100IPNS_4pairIiNS1_IiiEEEELi0EEET_S5_NS_15iterator_traitsIS5_E15difference_typeE, symObjAddr: 0x289C, symBinAddr: 0x10000AE38, symSize: 0x3C }
  - { offset: 0x19406, size: 0x8, addend: 0x0, symName: __ZNSt3__19__advanceB8ne180100IPNS_4pairIiNS1_IiiEEEEEEvRT_NS_15iterator_traitsIS5_E15difference_typeENS_26random_access_iterator_tagE, symObjAddr: 0x2924, symBinAddr: 0x10000AEAC, symSize: 0x30 }
  - { offset: 0x194A2, size: 0x8, addend: 0x0, symName: __ZNSt3__114__construct_atB8ne180100INS_4pairIiiEEJS2_EPS2_EEPT_S5_DpOT0_, symObjAddr: 0x325C, symBinAddr: 0x10000B6A0, symSize: 0x2C }
  - { offset: 0x194F5, size: 0x8, addend: 0x0, symName: __ZNSt3__112construct_atB8ne180100INS_4pairIiiEEJS2_EPS2_EEPT_S5_DpOT0_, symObjAddr: 0x3288, symBinAddr: 0x10000B6CC, symSize: 0x24 }
  - { offset: 0x19548, size: 0x8, addend: 0x0, symName: __ZNSt3__119__allocate_at_leastB8ne180100INS_9allocatorINS_4pairIiiEEEEEENS_19__allocation_resultINS_16allocator_traitsIT_E7pointerEEERS7_m, symObjAddr: 0x3894, symBinAddr: 0x10000BB80, symSize: 0x40 }
  - { offset: 0x1958B, size: 0x8, addend: 0x0, symName: __ZNSt3__142__uninitialized_allocator_move_if_noexceptB8ne180100INS_9allocatorINS_4pairIiiEEEENS_16reverse_iteratorIPS3_EES7_S7_EET2_RT_T0_T1_S8_, symObjAddr: 0x3A58, symBinAddr: 0x10000BD34, symSize: 0x12C }
  - { offset: 0x1962B, size: 0x8, addend: 0x0, symName: __ZNSt3__14swapB8ne180100IPNS_4pairIiiEEEENS_9enable_ifIXaasr21is_move_constructibleIT_EE5valuesr18is_move_assignableIS5_EE5valueEvE4typeERS5_S8_, symObjAddr: 0x3BD0, symBinAddr: 0x10000BEAC, symSize: 0x3C }
  - { offset: 0x1967C, size: 0x8, addend: 0x0, symName: __ZNSt3__122__make_exception_guardB8ne180100INS_29_AllocatorDestroyRangeReverseINS_9allocatorINS_4pairIiiEEEENS_16reverse_iteratorIPS4_EEEEEENS_28__exception_guard_exceptionsIT_EESB_, symObjAddr: 0x3C20, symBinAddr: 0x10000BEFC, symSize: 0x4C }
  - { offset: 0x196B2, size: 0x8, addend: 0x0, symName: __ZNSt3__1neB8ne180100IPNS_4pairIiiEES3_EEbRKNS_16reverse_iteratorIT_EERKNS4_IT0_EE, symObjAddr: 0x3CB0, symBinAddr: 0x10000BF8C, symSize: 0x48 }
  - { offset: 0x196FE, size: 0x8, addend: 0x0, symName: __ZNSt3__112__to_addressB8ne180100INS_16reverse_iteratorIPNS_4pairIiiEEEEvEEu7__decayIDTclsr19__to_address_helperIT_EE6__callclsr3stdE7declvalIRKS6_EEEEES8_, symObjAddr: 0x3CF8, symBinAddr: 0x10000BFD4, symSize: 0x24 }
  - { offset: 0x1975D, size: 0x8, addend: 0x0, symName: __ZNSt3__14prevB8ne180100IPNS_4pairIiiEELi0EEET_S4_NS_15iterator_traitsIS4_E15difference_typeE, symObjAddr: 0x3EAC, symBinAddr: 0x10000C188, symSize: 0x3C }
  - { offset: 0x197A6, size: 0x8, addend: 0x0, symName: __ZNSt3__19__advanceB8ne180100IPNS_4pairIiiEEEEvRT_NS_15iterator_traitsIS4_E15difference_typeENS_26random_access_iterator_tagE, symObjAddr: 0x3F20, symBinAddr: 0x10000C1FC, symSize: 0x28 }
  - { offset: 0x197EF, size: 0x8, addend: 0x0, symName: __ZNSt3__119__allocator_destroyB8ne180100INS_9allocatorINS_4pairIiiEEEENS_16reverse_iteratorINS5_IPS3_EEEES8_EEvRT_T0_T1_, symObjAddr: 0x404C, symBinAddr: 0x10000C328, symSize: 0x70 }
  - { offset: 0x19854, size: 0x8, addend: 0x0, symName: __ZNSt3__1neB8ne180100INS_16reverse_iteratorIPNS_4pairIiiEEEES5_EEbRKNS1_IT_EERKNS1_IT0_EE, symObjAddr: 0x40F8, symBinAddr: 0x10000C3D4, symSize: 0x60 }
  - { offset: 0x198A0, size: 0x8, addend: 0x0, symName: __ZNSt3__112__to_addressB8ne180100INS_16reverse_iteratorINS1_IPNS_4pairIiiEEEEEEvEEu7__decayIDTclsr19__to_address_helperIT_EE6__callclsr3stdE7declvalIRKS7_EEEEES9_, symObjAddr: 0x4180, symBinAddr: 0x10000C434, symSize: 0x24 }
  - { offset: 0x198FF, size: 0x8, addend: 0x0, symName: __ZNSt3__14prevB8ne180100INS_16reverse_iteratorIPNS_4pairIiiEEEELi0EEET_S6_NS_15iterator_traitsIS6_E15difference_typeE, symObjAddr: 0x428C, symBinAddr: 0x10000C530, symSize: 0x4C }
  - { offset: 0x19948, size: 0x8, addend: 0x0, symName: __ZNSt3__19__advanceB8ne180100INS_16reverse_iteratorIPNS_4pairIiiEEEEEEvRT_NS_15iterator_traitsIS6_E15difference_typeENS_26random_access_iterator_tagE, symObjAddr: 0x4310, symBinAddr: 0x10000C5B4, symSize: 0x2C }
  - { offset: 0x19991, size: 0x8, addend: 0x0, symName: __ZNSt3__16__copyB8ne180100INS_17_ClassicAlgPolicyEPiS2_S2_EENS_4pairIT0_T2_EES4_T1_S5_, symObjAddr: 0x4948, symBinAddr: 0x10000C8C0, symSize: 0x44 }
  - { offset: 0x199FD, size: 0x8, addend: 0x0, symName: __ZNSt3__123__dispatch_copy_or_moveB8ne180100INS_17_ClassicAlgPolicyENS_11__copy_loopIS1_EENS_14__copy_trivialEPiS5_S5_EENS_4pairIT2_T4_EES7_T3_S8_, symObjAddr: 0x498C, symBinAddr: 0x10000C904, symSize: 0x44 }
  - { offset: 0x19A7B, size: 0x8, addend: 0x0, symName: __ZNSt3__121__unwrap_and_dispatchB8ne180100INS_10__overloadINS_11__copy_loopINS_17_ClassicAlgPolicyEEENS_14__copy_trivialEEEPiS7_S7_Li0EEENS_4pairIT0_T2_EES9_T1_SA_, symObjAddr: 0x49D0, symBinAddr: 0x10000C948, symSize: 0xB4 }
  - { offset: 0x19B09, size: 0x8, addend: 0x0, symName: __ZNSt3__114__unwrap_rangeB8ne180100IPiS1_EEDaT_T0_, symObjAddr: 0x4A84, symBinAddr: 0x10000C9FC, symSize: 0x3C }
  - { offset: 0x19C9E, size: 0x8, addend: 0x0, symName: __ZNSt3__113__unwrap_iterB8ne180100IPiNS_18__unwrap_iter_implIS1_Lb1EEELi0EEEDTclsrT0_8__unwrapclsr3stdE7declvalIT_EEEES5_, symObjAddr: 0x4B08, symBinAddr: 0x10000CA80, symSize: 0x24 }
  - { offset: 0x19CE2, size: 0x8, addend: 0x0, symName: __ZNSt3__19make_pairB8ne180100IPiS1_EENS_4pairINS_18__unwrap_ref_decayIT_E4typeENS3_IT0_E4typeEEEOS4_OS7_, symObjAddr: 0x4B2C, symBinAddr: 0x10000CAA4, symSize: 0x38 }
  - { offset: 0x19D31, size: 0x8, addend: 0x0, symName: __ZNSt3__114__rewrap_rangeB8ne180100IPiS1_S1_EET0_S2_T1_, symObjAddr: 0x4B64, symBinAddr: 0x10000CADC, symSize: 0x2C }
  - { offset: 0x19D86, size: 0x8, addend: 0x0, symName: __ZNSt3__113__rewrap_iterB8ne180100IPiS1_NS_18__unwrap_iter_implIS1_Lb1EEEEET_S4_T0_, symObjAddr: 0x4B90, symBinAddr: 0x10000CB08, symSize: 0x3C }
  - { offset: 0x19E2B, size: 0x8, addend: 0x0, symName: __ZNSt3__119__copy_trivial_implB8ne180100IiiEENS_4pairIPT_PT0_EES3_S3_S5_, symObjAddr: 0x4C94, symBinAddr: 0x10000CC0C, symSize: 0x80 }
  - { offset: 0x19E93, size: 0x8, addend: 0x0, symName: __ZNSt3__119__constexpr_memmoveB8ne180100IiiLi0EEEPT_S2_PT0_NS_15__element_countE, symObjAddr: 0x4D14, symBinAddr: 0x10000CC8C, symSize: 0x64 }
  - { offset: 0x19F01, size: 0x8, addend: 0x0, symName: __ZNSt3__19make_pairB8ne180100IRPiS1_EENS_4pairINS_18__unwrap_ref_decayIT_E4typeENS4_IT0_E4typeEEEOS5_OS8_, symObjAddr: 0x4D78, symBinAddr: 0x10000CCF0, symSize: 0x38 }
  - { offset: 0x1B120, size: 0x8, addend: 0x0, symName: __ZNSt3__16vectorINS_4pairIiiEENS_9allocatorIS2_EEE26__swap_out_circular_bufferERNS_14__split_bufferIS2_RS4_EE, symObjAddr: 0x3424, symBinAddr: 0x10000B830, symSize: 0x110 }
  - { offset: 0x1B203, size: 0x8, addend: 0x0, symName: __ZN5Graph12reverseGraphEv, symObjAddr: 0x0, symBinAddr: 0x100008970, symSize: 0x46C }
  - { offset: 0x1B3CD, size: 0x8, addend: 0x0, symName: __ZN5GraphC1EPiS0_S0_iii, symObjAddr: 0x46C, symBinAddr: 0x100008DDC, symSize: 0x5C }
  - { offset: 0x1B44B, size: 0x8, addend: 0x0, symName: __ZN5GraphD1Ev, symObjAddr: 0x4C8, symBinAddr: 0x100008E38, symSize: 0x2C }
  - { offset: 0x1B477, size: 0x8, addend: 0x0, symName: __ZN5GraphC2EicNSt3__16vectorINS0_4pairIiNS2_IiiEEEENS0_9allocatorIS4_EEEE, symObjAddr: 0x4F4, symBinAddr: 0x100008E64, symSize: 0x2D4 }
  - { offset: 0x1B4F2, size: 0x8, addend: 0x0, symName: __ZN5Graph7setTypeEc, symObjAddr: 0x7C8, symBinAddr: 0x100009138, symSize: 0x1C }
  - { offset: 0x1B528, size: 0x8, addend: 0x0, symName: __ZN5Graph9setArraysEiNSt3__16vectorINS0_4pairIiNS2_IiiEEEENS0_9allocatorIS4_EEEE, symObjAddr: 0x7E4, symBinAddr: 0x100009154, symSize: 0x390 }
  - { offset: 0x1B670, size: 0x8, addend: 0x0, symName: __ZNSt3__16vectorINS_4pairIiNS1_IiiEEEENS_9allocatorIS3_EEEC1ERKS6_, symObjAddr: 0xB74, symBinAddr: 0x1000094E4, symSize: 0x34 }
  - { offset: 0x1B6AB, size: 0x8, addend: 0x0, symName: __ZNSt3__16vectorINS_4pairIiNS1_IiiEEEENS_9allocatorIS3_EEED1B8ne180100Ev, symObjAddr: 0xBA8, symBinAddr: 0x100009518, symSize: 0x2C }
  - { offset: 0x1B6D5, size: 0x8, addend: 0x0, symName: __ZNKSt3__16vectorINS_4pairIiNS1_IiiEEEENS_9allocatorIS3_EEE4sizeB8ne180100Ev, symObjAddr: 0xBD4, symBinAddr: 0x100009544, symSize: 0x28 }
  - { offset: 0x1B6FB, size: 0x8, addend: 0x0, symName: __ZN5GraphC1EicNSt3__16vectorINS0_4pairIiNS2_IiiEEEENS0_9allocatorIS4_EEEE, symObjAddr: 0xCD8, symBinAddr: 0x10000956C, symSize: 0x44 }
  - { offset: 0x1B752, size: 0x8, addend: 0x0, symName: __ZNK5Graph13getNeighboursEi, symObjAddr: 0xD1C, symBinAddr: 0x1000095B0, symSize: 0x134 }
  - { offset: 0x1B7CF, size: 0x8, addend: 0x0, symName: __ZNSt3__16vectorINS_4pairIiiEENS_9allocatorIS2_EEEC1B8ne180100Ev, symObjAddr: 0xE50, symBinAddr: 0x1000096E4, symSize: 0x2C }
  - { offset: 0x1B7F8, size: 0x8, addend: 0x0, symName: __ZNSt3__16vectorINS_4pairIiiEENS_9allocatorIS2_EEE9push_backB8ne180100EOS2_, symObjAddr: 0xE7C, symBinAddr: 0x100009710, symSize: 0x90 }
  - { offset: 0x1B843, size: 0x8, addend: 0x0, symName: __ZNSt3__14pairIiiEC1B8ne180100IRiS3_Li0EEEOT_OT0_, symObjAddr: 0xF0C, symBinAddr: 0x1000097A0, symSize: 0x3C }
  - { offset: 0x1B8A0, size: 0x8, addend: 0x0, symName: __ZNSt3__16vectorINS_4pairIiNS1_IiiEEEENS_9allocatorIS3_EEE2atEm, symObjAddr: 0xF74, symBinAddr: 0x1000097DC, symSize: 0x68 }
  - { offset: 0x1B8D7, size: 0x8, addend: 0x0, symName: __ZN5GraphD2Ev, symObjAddr: 0xFDC, symBinAddr: 0x100009844, symSize: 0xB4 }
  - { offset: 0x1B903, size: 0x8, addend: 0x0, symName: __ZN5GraphC2ERKS_, symObjAddr: 0x1090, symBinAddr: 0x1000098F8, symSize: 0x158 }
  - { offset: 0x1B93D, size: 0x8, addend: 0x0, symName: __ZN5GraphC1ERKS_, symObjAddr: 0x1228, symBinAddr: 0x100009A90, symSize: 0x34 }
  - { offset: 0x1B977, size: 0x8, addend: 0x0, symName: __ZN5GraphaSERKS_, symObjAddr: 0x125C, symBinAddr: 0x100009AC4, symSize: 0x200 }
  - { offset: 0x1B9AD, size: 0x8, addend: 0x0, symName: __ZN5GraphC2EOS_, symObjAddr: 0x145C, symBinAddr: 0x100009CC4, symSize: 0x6C }
  - { offset: 0x1B9E7, size: 0x8, addend: 0x0, symName: __ZN5GraphC1EOS_, symObjAddr: 0x14C8, symBinAddr: 0x100009D30, symSize: 0x34 }
  - { offset: 0x1BA21, size: 0x8, addend: 0x0, symName: __ZN5GraphaSEOS_, symObjAddr: 0x14FC, symBinAddr: 0x100009D64, symSize: 0x148 }
  - { offset: 0x1BA57, size: 0x8, addend: 0x0, symName: __ZN5GraphC2EPiS0_S0_iii, symObjAddr: 0x1644, symBinAddr: 0x100009EAC, symSize: 0x5C }
  - { offset: 0x1BAD5, size: 0x8, addend: 0x0, symName: __ZNSt3__16vectorINS_4pairIiNS1_IiiEEEENS_9allocatorIS3_EEEC2ERKS6_, symObjAddr: 0x16A0, symBinAddr: 0x100009F08, symSize: 0x94 }
  - { offset: 0x1BB1A, size: 0x8, addend: 0x0, symName: __ZNSt3__116allocator_traitsINS_9allocatorINS_4pairIiNS2_IiiEEEEEEE37select_on_container_copy_constructionB8ne180100IS5_vvEES5_RKS5_, symObjAddr: 0x1734, symBinAddr: 0x100009F9C, symSize: 0x10 }
  - { offset: 0x1BB49, size: 0x8, addend: 0x0, symName: __ZNKSt3__16vectorINS_4pairIiNS1_IiiEEEENS_9allocatorIS3_EEE7__allocB8ne180100Ev, symObjAddr: 0x1744, symBinAddr: 0x100009FAC, symSize: 0x28 }
  - { offset: 0x1BB79, size: 0x8, addend: 0x0, symName: __ZNSt3__117__compressed_pairIPNS_4pairIiNS1_IiiEEEENS_9allocatorIS3_EEEC1B8ne180100IDnS6_EEOT_OT0_, symObjAddr: 0x176C, symBinAddr: 0x100009FD4, symSize: 0x3C }
  - { offset: 0x1BBD1, size: 0x8, addend: 0x0, symName: __ZNSt3__16vectorINS_4pairIiNS1_IiiEEEENS_9allocatorIS3_EEE16__init_with_sizeB8ne180100IPS3_S8_EEvT_T0_m, symObjAddr: 0x17A8, symBinAddr: 0x10000A010, symSize: 0xB8 }
  - { offset: 0x1BC45, size: 0x8, addend: 0x0, symName: __ZNKSt3__117__compressed_pairIPNS_4pairIiNS1_IiiEEEENS_9allocatorIS3_EEE6secondB8ne180100Ev, symObjAddr: 0x1860, symBinAddr: 0x10000A0C8, symSize: 0x24 }
  - { offset: 0x1BC6B, size: 0x8, addend: 0x0, symName: __ZNKSt3__122__compressed_pair_elemINS_9allocatorINS_4pairIiNS2_IiiEEEEEELi1ELb1EE5__getB8ne180100Ev, symObjAddr: 0x1884, symBinAddr: 0x10000A0EC, symSize: 0x14 }
  - { offset: 0x1BC91, size: 0x8, addend: 0x0, symName: __ZNSt3__117__compressed_pairIPNS_4pairIiNS1_IiiEEEENS_9allocatorIS3_EEEC2B8ne180100IDnS6_EEOT_OT0_, symObjAddr: 0x1898, symBinAddr: 0x10000A100, symSize: 0x44 }
  - { offset: 0x1BCE9, size: 0x8, addend: 0x0, symName: __ZNSt3__122__compressed_pair_elemIPNS_4pairIiNS1_IiiEEEELi0ELb0EEC2B8ne180100IDnvEEOT_, symObjAddr: 0x18DC, symBinAddr: 0x10000A144, symSize: 0x1C }
  - { offset: 0x1BD2B, size: 0x8, addend: 0x0, symName: __ZNSt3__122__compressed_pair_elemINS_9allocatorINS_4pairIiNS2_IiiEEEEEELi1ELb1EEC2B8ne180100IS5_vEEOT_, symObjAddr: 0x18F8, symBinAddr: 0x10000A160, symSize: 0x18 }
  - { offset: 0x1BD6D, size: 0x8, addend: 0x0, symName: __ZNSt3__16vectorINS_4pairIiNS1_IiiEEEENS_9allocatorIS3_EEE16__destroy_vectorC1B8ne180100ERS6_, symObjAddr: 0x1950, symBinAddr: 0x10000A1B8, symSize: 0x34 }
  - { offset: 0x1BDA6, size: 0x8, addend: 0x0, symName: __ZNSt3__16vectorINS_4pairIiNS1_IiiEEEENS_9allocatorIS3_EEE11__vallocateB8ne180100Em, symObjAddr: 0x1984, symBinAddr: 0x10000A1EC, symSize: 0xB4 }
  - { offset: 0x1BDE9, size: 0x8, addend: 0x0, symName: __ZNSt3__16vectorINS_4pairIiNS1_IiiEEEENS_9allocatorIS3_EEE18__construct_at_endIPS3_S8_EEvT_T0_m, symObjAddr: 0x1A38, symBinAddr: 0x10000A2A0, symSize: 0x8C }
  - { offset: 0x1BE5F, size: 0x8, addend: 0x0, symName: __ZNSt3__128__exception_guard_exceptionsINS_6vectorINS_4pairIiNS2_IiiEEEENS_9allocatorIS4_EEE16__destroy_vectorEE10__completeB8ne180100Ev, symObjAddr: 0x1AC4, symBinAddr: 0x10000A32C, symSize: 0x1C }
  - { offset: 0x1BE85, size: 0x8, addend: 0x0, symName: __ZNSt3__128__exception_guard_exceptionsINS_6vectorINS_4pairIiNS2_IiiEEEENS_9allocatorIS4_EEE16__destroy_vectorEED1B8ne180100Ev, symObjAddr: 0x1AE0, symBinAddr: 0x10000A348, symSize: 0x2C }
  - { offset: 0x1BEAF, size: 0x8, addend: 0x0, symName: __ZNSt3__128__exception_guard_exceptionsINS_6vectorINS_4pairIiNS2_IiiEEEENS_9allocatorIS4_EEE16__destroy_vectorEEC1B8ne180100ES8_, symObjAddr: 0x1B0C, symBinAddr: 0x10000A374, symSize: 0x34 }
  - { offset: 0x1BEE7, size: 0x8, addend: 0x0, symName: __ZNSt3__128__exception_guard_exceptionsINS_6vectorINS_4pairIiNS2_IiiEEEENS_9allocatorIS4_EEE16__destroy_vectorEEC2B8ne180100ES8_, symObjAddr: 0x1B40, symBinAddr: 0x10000A3A8, symSize: 0x24 }
  - { offset: 0x1BF1F, size: 0x8, addend: 0x0, symName: __ZNSt3__16vectorINS_4pairIiNS1_IiiEEEENS_9allocatorIS3_EEE16__destroy_vectorC2B8ne180100ERS6_, symObjAddr: 0x1B64, symBinAddr: 0x10000A3CC, symSize: 0x20 }
  - { offset: 0x1BF57, size: 0x8, addend: 0x0, symName: __ZNKSt3__16vectorINS_4pairIiNS1_IiiEEEENS_9allocatorIS3_EEE8max_sizeEv, symObjAddr: 0x1B84, symBinAddr: 0x10000A3EC, symSize: 0x60 }
  - { offset: 0x1BF7F, size: 0x8, addend: 0x0, symName: __ZNKSt3__16vectorINS_4pairIiNS1_IiiEEEENS_9allocatorIS3_EEE20__throw_length_errorB8ne180100Ev, symObjAddr: 0x1BE4, symBinAddr: 0x10000A44C, symSize: 0x1C }
  - { offset: 0x1BFA5, size: 0x8, addend: 0x0, symName: __ZNSt3__16vectorINS_4pairIiNS1_IiiEEEENS_9allocatorIS3_EEE7__allocB8ne180100Ev, symObjAddr: 0x1C40, symBinAddr: 0x10000A4A8, symSize: 0x28 }
  - { offset: 0x1BFCB, size: 0x8, addend: 0x0, symName: __ZNSt3__16vectorINS_4pairIiNS1_IiiEEEENS_9allocatorIS3_EEE9__end_capB8ne180100Ev, symObjAddr: 0x1C68, symBinAddr: 0x10000A4D0, symSize: 0x28 }
  - { offset: 0x1BFF1, size: 0x8, addend: 0x0, symName: __ZNKSt3__16vectorINS_4pairIiNS1_IiiEEEENS_9allocatorIS3_EEE14__annotate_newB8ne180100Em, symObjAddr: 0x1C90, symBinAddr: 0x10000A4F8, symSize: 0x14 }
  - { offset: 0x1C026, size: 0x8, addend: 0x0, symName: __ZNSt3__116allocator_traitsINS_9allocatorINS_4pairIiNS2_IiiEEEEEEE8max_sizeB8ne180100IS5_vvEEmRKS5_, symObjAddr: 0x1CD0, symBinAddr: 0x10000A50C, symSize: 0x28 }
  - { offset: 0x1C052, size: 0x8, addend: 0x0, symName: __ZNSt3__19allocatorINS_4pairIiNS1_IiiEEEEE8allocateB8ne180100Em, symObjAddr: 0x1E94, symBinAddr: 0x10000A534, symSize: 0x5C }
  - { offset: 0x1C086, size: 0x8, addend: 0x0, symName: __ZNSt3__117__compressed_pairIPNS_4pairIiNS1_IiiEEEENS_9allocatorIS3_EEE6secondB8ne180100Ev, symObjAddr: 0x1FF4, symBinAddr: 0x10000A590, symSize: 0x24 }
  - { offset: 0x1C0AC, size: 0x8, addend: 0x0, symName: __ZNSt3__122__compressed_pair_elemINS_9allocatorINS_4pairIiNS2_IiiEEEEEELi1ELb1EE5__getB8ne180100Ev, symObjAddr: 0x2018, symBinAddr: 0x10000A5B4, symSize: 0x14 }
  - { offset: 0x1C0D2, size: 0x8, addend: 0x0, symName: __ZNSt3__117__compressed_pairIPNS_4pairIiNS1_IiiEEEENS_9allocatorIS3_EEE5firstB8ne180100Ev, symObjAddr: 0x202C, symBinAddr: 0x10000A5C8, symSize: 0x24 }
  - { offset: 0x1C0F8, size: 0x8, addend: 0x0, symName: __ZNSt3__122__compressed_pair_elemIPNS_4pairIiNS1_IiiEEEELi0ELb0EE5__getB8ne180100Ev, symObjAddr: 0x2050, symBinAddr: 0x10000A5EC, symSize: 0x14 }
  - { offset: 0x1C137, size: 0x8, addend: 0x0, symName: __ZNSt3__16vectorINS_4pairIiNS1_IiiEEEENS_9allocatorIS3_EEE21_ConstructTransactionC1B8ne180100ERS6_m, symObjAddr: 0x2064, symBinAddr: 0x10000A600, symSize: 0x3C }
  - { offset: 0x1C17F, size: 0x8, addend: 0x0, symName: __ZNSt3__16vectorINS_4pairIiNS1_IiiEEEENS_9allocatorIS3_EEE21_ConstructTransactionD1B8ne180100Ev, symObjAddr: 0x2120, symBinAddr: 0x10000A6BC, symSize: 0x2C }
  - { offset: 0x1C1A9, size: 0x8, addend: 0x0, symName: __ZNSt3__16vectorINS_4pairIiNS1_IiiEEEENS_9allocatorIS3_EEE21_ConstructTransactionC2B8ne180100ERS6_m, symObjAddr: 0x214C, symBinAddr: 0x10000A6E8, symSize: 0x4C }
  - { offset: 0x1C20A, size: 0x8, addend: 0x0, symName: __ZNSt3__119__unwrap_range_implIPNS_4pairIiNS1_IiiEEEES4_E8__unwrapB8ne180100ES4_S4_, symObjAddr: 0x2328, symBinAddr: 0x10000A8C4, symSize: 0x58 }
  - { offset: 0x1C240, size: 0x8, addend: 0x0, symName: __ZNSt3__14pairIPNS0_IiNS0_IiiEEEES3_EC1B8ne180100IS3_S3_Li0EEEOT_OT0_, symObjAddr: 0x2380, symBinAddr: 0x10000A91C, symSize: 0x3C }
  - { offset: 0x1C29E, size: 0x8, addend: 0x0, symName: __ZNSt3__14pairIPNS0_IiNS0_IiiEEEES3_EC2B8ne180100IS3_S3_Li0EEEOT_OT0_, symObjAddr: 0x23BC, symBinAddr: 0x10000A958, symSize: 0x34 }
  - { offset: 0x1C2FC, size: 0x8, addend: 0x0, symName: __ZNSt3__129_AllocatorDestroyRangeReverseINS_9allocatorINS_4pairIiNS2_IiiEEEEEEPS4_EC1B8ne180100ERS5_RS6_S9_, symObjAddr: 0x243C, symBinAddr: 0x10000A9D8, symSize: 0x44 }
  - { offset: 0x1C353, size: 0x8, addend: 0x0, symName: __ZNSt3__116allocator_traitsINS_9allocatorINS_4pairIiNS2_IiiEEEEEEE9constructB8ne180100IS4_JRS4_EvvEEvRS5_PT_DpOT0_, symObjAddr: 0x2480, symBinAddr: 0x10000AA1C, symSize: 0x30 }
  - { offset: 0x1C3A8, size: 0x8, addend: 0x0, symName: __ZNSt3__128__exception_guard_exceptionsINS_29_AllocatorDestroyRangeReverseINS_9allocatorINS_4pairIiNS3_IiiEEEEEEPS5_EEE10__completeB8ne180100Ev, symObjAddr: 0x24C4, symBinAddr: 0x10000AA60, symSize: 0x1C }
  - { offset: 0x1C3CE, size: 0x8, addend: 0x0, symName: __ZNSt3__128__exception_guard_exceptionsINS_29_AllocatorDestroyRangeReverseINS_9allocatorINS_4pairIiNS3_IiiEEEEEEPS5_EEED1B8ne180100Ev, symObjAddr: 0x24E0, symBinAddr: 0x10000AA7C, symSize: 0x2C }
  - { offset: 0x1C3F8, size: 0x8, addend: 0x0, symName: __ZNSt3__128__exception_guard_exceptionsINS_29_AllocatorDestroyRangeReverseINS_9allocatorINS_4pairIiNS3_IiiEEEEEEPS5_EEEC1B8ne180100ES8_, symObjAddr: 0x250C, symBinAddr: 0x10000AAA8, symSize: 0x34 }
  - { offset: 0x1C431, size: 0x8, addend: 0x0, symName: __ZNSt3__128__exception_guard_exceptionsINS_29_AllocatorDestroyRangeReverseINS_9allocatorINS_4pairIiNS3_IiiEEEEEEPS5_EEEC2B8ne180100ES8_, symObjAddr: 0x2540, symBinAddr: 0x10000AADC, symSize: 0x30 }
  - { offset: 0x1C46A, size: 0x8, addend: 0x0, symName: __ZNSt3__129_AllocatorDestroyRangeReverseINS_9allocatorINS_4pairIiNS2_IiiEEEEEEPS4_EC2B8ne180100ERS5_RS6_S9_, symObjAddr: 0x2570, symBinAddr: 0x10000AB0C, symSize: 0x38 }
  - { offset: 0x1C4C1, size: 0x8, addend: 0x0, symName: __ZNSt3__128__exception_guard_exceptionsINS_29_AllocatorDestroyRangeReverseINS_9allocatorINS_4pairIiNS3_IiiEEEEEEPS5_EEED2B8ne180100Ev, symObjAddr: 0x2600, symBinAddr: 0x10000AB9C, symSize: 0x50 }
  - { offset: 0x1C4EB, size: 0x8, addend: 0x0, symName: __ZNKSt3__129_AllocatorDestroyRangeReverseINS_9allocatorINS_4pairIiNS2_IiiEEEEEEPS4_EclB8ne180100Ev, symObjAddr: 0x2650, symBinAddr: 0x10000ABEC, symSize: 0x68 }
  - { offset: 0x1C511, size: 0x8, addend: 0x0, symName: __ZNSt3__116reverse_iteratorIPNS_4pairIiNS1_IiiEEEEEC1B8ne180100ES4_, symObjAddr: 0x2728, symBinAddr: 0x10000ACC4, symSize: 0x34 }
  - { offset: 0x1C549, size: 0x8, addend: 0x0, symName: __ZNSt3__116allocator_traitsINS_9allocatorINS_4pairIiNS2_IiiEEEEEEE7destroyB8ne180100IS4_vvEEvRS5_PT_, symObjAddr: 0x27A4, symBinAddr: 0x10000AD40, symSize: 0x28 }
  - { offset: 0x1C584, size: 0x8, addend: 0x0, symName: __ZNSt3__116reverse_iteratorIPNS_4pairIiNS1_IiiEEEEEppB8ne180100Ev, symObjAddr: 0x27F0, symBinAddr: 0x10000AD8C, symSize: 0x20 }
  - { offset: 0x1C5AA, size: 0x8, addend: 0x0, symName: __ZNKSt3__116reverse_iteratorIPNS_4pairIiNS1_IiiEEEEE4baseB8ne180100Ev, symObjAddr: 0x2810, symBinAddr: 0x10000ADAC, symSize: 0x18 }
  - { offset: 0x1C5D5, size: 0x8, addend: 0x0, symName: __ZNSt3__119__to_address_helperINS_16reverse_iteratorIPNS_4pairIiNS2_IiiEEEEEEvE6__callB8ne180100ERKS6_, symObjAddr: 0x2838, symBinAddr: 0x10000ADD4, symSize: 0x38 }
  - { offset: 0x1C5F8, size: 0x8, addend: 0x0, symName: __ZNKSt3__116reverse_iteratorIPNS_4pairIiNS1_IiiEEEEEptB8ne180100Ev, symObjAddr: 0x2870, symBinAddr: 0x10000AE0C, symSize: 0x2C }
  - { offset: 0x1C61E, size: 0x8, addend: 0x0, symName: __ZNSt3__116reverse_iteratorIPNS_4pairIiNS1_IiiEEEEEC2B8ne180100ES4_, symObjAddr: 0x2954, symBinAddr: 0x10000AEDC, symSize: 0x28 }
  - { offset: 0x1C656, size: 0x8, addend: 0x0, symName: __ZNSt3__118__unwrap_iter_implIPNS_4pairIiNS1_IiiEEEELb1EE8__unwrapB8ne180100ES4_, symObjAddr: 0x297C, symBinAddr: 0x10000AF04, symSize: 0x24 }
  - { offset: 0x1C679, size: 0x8, addend: 0x0, symName: __ZNSt3__118__unwrap_iter_implIPNS_4pairIiNS1_IiiEEEELb1EE8__rewrapB8ne180100ES4_S4_, symObjAddr: 0x29A0, symBinAddr: 0x10000AF28, symSize: 0x58 }
  - { offset: 0x1C6AA, size: 0x8, addend: 0x0, symName: __ZNSt3__16vectorINS_4pairIiNS1_IiiEEEENS_9allocatorIS3_EEE21_ConstructTransactionD2B8ne180100Ev, symObjAddr: 0x29F8, symBinAddr: 0x10000AF80, symSize: 0x20 }
  - { offset: 0x1C6D4, size: 0x8, addend: 0x0, symName: __ZNSt3__128__exception_guard_exceptionsINS_6vectorINS_4pairIiNS2_IiiEEEENS_9allocatorIS4_EEE16__destroy_vectorEED2B8ne180100Ev, symObjAddr: 0x2A18, symBinAddr: 0x10000AFA0, symSize: 0x50 }
  - { offset: 0x1C6FE, size: 0x8, addend: 0x0, symName: __ZNSt3__16vectorINS_4pairIiNS1_IiiEEEENS_9allocatorIS3_EEE16__destroy_vectorclB8ne180100Ev, symObjAddr: 0x2A68, symBinAddr: 0x10000AFF0, symSize: 0x90 }
  - { offset: 0x1C724, size: 0x8, addend: 0x0, symName: __ZNSt3__16vectorINS_4pairIiNS1_IiiEEEENS_9allocatorIS3_EEE7__clearB8ne180100Ev, symObjAddr: 0x2AF8, symBinAddr: 0x10000B080, symSize: 0x28 }
  - { offset: 0x1C74A, size: 0x8, addend: 0x0, symName: __ZNKSt3__16vectorINS_4pairIiNS1_IiiEEEENS_9allocatorIS3_EEE17__annotate_deleteB8ne180100Ev, symObjAddr: 0x2B20, symBinAddr: 0x10000B0A8, symSize: 0x10 }
  - { offset: 0x1C770, size: 0x8, addend: 0x0, symName: __ZNSt3__116allocator_traitsINS_9allocatorINS_4pairIiNS2_IiiEEEEEEE10deallocateB8ne180100ERS5_PS4_m, symObjAddr: 0x2B30, symBinAddr: 0x10000B0B8, symSize: 0x34 }
  - { offset: 0x1C7B2, size: 0x8, addend: 0x0, symName: __ZNKSt3__16vectorINS_4pairIiNS1_IiiEEEENS_9allocatorIS3_EEE8capacityB8ne180100Ev, symObjAddr: 0x2B64, symBinAddr: 0x10000B0EC, symSize: 0x40 }
  - { offset: 0x1C7D8, size: 0x8, addend: 0x0, symName: __ZNSt3__16vectorINS_4pairIiNS1_IiiEEEENS_9allocatorIS3_EEE22__base_destruct_at_endB8ne180100EPS3_, symObjAddr: 0x2BA4, symBinAddr: 0x10000B12C, symSize: 0x8C }
  - { offset: 0x1C81C, size: 0x8, addend: 0x0, symName: __ZNSt3__19allocatorINS_4pairIiNS1_IiiEEEEE10deallocateB8ne180100EPS3_m, symObjAddr: 0x2C30, symBinAddr: 0x10000B1B8, symSize: 0x44 }
  - { offset: 0x1C85E, size: 0x8, addend: 0x0, symName: __ZNKSt3__16vectorINS_4pairIiNS1_IiiEEEENS_9allocatorIS3_EEE9__end_capB8ne180100Ev, symObjAddr: 0x2D7C, symBinAddr: 0x10000B1FC, symSize: 0x28 }
  - { offset: 0x1C884, size: 0x8, addend: 0x0, symName: __ZNKSt3__117__compressed_pairIPNS_4pairIiNS1_IiiEEEENS_9allocatorIS3_EEE5firstB8ne180100Ev, symObjAddr: 0x2DA4, symBinAddr: 0x10000B224, symSize: 0x24 }
  - { offset: 0x1C8AA, size: 0x8, addend: 0x0, symName: __ZNKSt3__122__compressed_pair_elemIPNS_4pairIiNS1_IiiEEEELi0ELb0EE5__getB8ne180100Ev, symObjAddr: 0x2DC8, symBinAddr: 0x10000B248, symSize: 0x14 }
  - { offset: 0x1C8D0, size: 0x8, addend: 0x0, symName: __ZNSt3__16vectorINS_4pairIiNS1_IiiEEEENS_9allocatorIS3_EEED2B8ne180100Ev, symObjAddr: 0x2DDC, symBinAddr: 0x10000B25C, symSize: 0x40 }
  - { offset: 0x1C8FA, size: 0x8, addend: 0x0, symName: __ZNSt3__16vectorINS_4pairIiiEENS_9allocatorIS2_EEEC2B8ne180100Ev, symObjAddr: 0x2E1C, symBinAddr: 0x10000B29C, symSize: 0x4C }
  - { offset: 0x1C929, size: 0x8, addend: 0x0, symName: __ZNSt3__117__compressed_pairIPNS_4pairIiiEENS_9allocatorIS2_EEEC1B8ne180100IDnNS_18__default_init_tagEEEOT_OT0_, symObjAddr: 0x2E68, symBinAddr: 0x10000B2E8, symSize: 0x3C }
  - { offset: 0x1C981, size: 0x8, addend: 0x0, symName: __ZNSt3__117__compressed_pairIPNS_4pairIiiEENS_9allocatorIS2_EEEC2B8ne180100IDnNS_18__default_init_tagEEEOT_OT0_, symObjAddr: 0x2EA4, symBinAddr: 0x10000B324, symSize: 0x40 }
  - { offset: 0x1C9D9, size: 0x8, addend: 0x0, symName: __ZNSt3__122__compressed_pair_elemIPNS_4pairIiiEELi0ELb0EEC2B8ne180100IDnvEEOT_, symObjAddr: 0x2EE4, symBinAddr: 0x10000B364, symSize: 0x1C }
  - { offset: 0x1CA1B, size: 0x8, addend: 0x0, symName: __ZNSt3__122__compressed_pair_elemINS_9allocatorINS_4pairIiiEEEELi1ELb1EEC2B8ne180100ENS_18__default_init_tagE, symObjAddr: 0x2F00, symBinAddr: 0x10000B380, symSize: 0x2C }
  - { offset: 0x1CA4F, size: 0x8, addend: 0x0, symName: __ZNSt3__19allocatorINS_4pairIiiEEEC2B8ne180100Ev, symObjAddr: 0x2F2C, symBinAddr: 0x10000B3AC, symSize: 0x2C }
  - { offset: 0x1CA79, size: 0x8, addend: 0x0, symName: __ZNSt3__116__non_trivial_ifILb1ENS_9allocatorINS_4pairIiiEEEEEC2B8ne180100Ev, symObjAddr: 0x2F58, symBinAddr: 0x10000B3D8, symSize: 0x14 }
  - { offset: 0x1CAA3, size: 0x8, addend: 0x0, symName: __ZNSt3__16vectorINS_4pairIiiEENS_9allocatorIS2_EEE9__end_capB8ne180100Ev, symObjAddr: 0x2F6C, symBinAddr: 0x10000B3EC, symSize: 0x28 }
  - { offset: 0x1CAC9, size: 0x8, addend: 0x0, symName: __ZNSt3__16vectorINS_4pairIiiEENS_9allocatorIS2_EEE22__construct_one_at_endB8ne180100IJS2_EEEvDpOT_, symObjAddr: 0x2F94, symBinAddr: 0x10000B414, symSize: 0x90 }
  - { offset: 0x1CB17, size: 0x8, addend: 0x0, symName: __ZNSt3__16vectorINS_4pairIiiEENS_9allocatorIS2_EEE21__push_back_slow_pathIS2_EEPS2_OT_, symObjAddr: 0x3024, symBinAddr: 0x10000B4A4, symSize: 0xE8 }
  - { offset: 0x1CB75, size: 0x8, addend: 0x0, symName: __ZNSt3__117__compressed_pairIPNS_4pairIiiEENS_9allocatorIS2_EEE5firstB8ne180100Ev, symObjAddr: 0x310C, symBinAddr: 0x10000B58C, symSize: 0x24 }
  - { offset: 0x1CB9B, size: 0x8, addend: 0x0, symName: __ZNSt3__122__compressed_pair_elemIPNS_4pairIiiEELi0ELb0EE5__getB8ne180100Ev, symObjAddr: 0x3130, symBinAddr: 0x10000B5B0, symSize: 0x14 }
  - { offset: 0x1CBDA, size: 0x8, addend: 0x0, symName: __ZNSt3__16vectorINS_4pairIiiEENS_9allocatorIS2_EEE21_ConstructTransactionC1B8ne180100ERS5_m, symObjAddr: 0x3144, symBinAddr: 0x10000B5C4, symSize: 0x3C }
  - { offset: 0x1CC22, size: 0x8, addend: 0x0, symName: __ZNSt3__116allocator_traitsINS_9allocatorINS_4pairIiiEEEEE9constructB8ne180100IS3_JS3_EvvEEvRS4_PT_DpOT0_, symObjAddr: 0x3180, symBinAddr: 0x10000B600, symSize: 0x30 }
  - { offset: 0x1CC77, size: 0x8, addend: 0x0, symName: __ZNSt3__16vectorINS_4pairIiiEENS_9allocatorIS2_EEE21_ConstructTransactionD1B8ne180100Ev, symObjAddr: 0x31EC, symBinAddr: 0x10000B630, symSize: 0x2C }
  - { offset: 0x1CCA1, size: 0x8, addend: 0x0, symName: __ZNSt3__16vectorINS_4pairIiiEENS_9allocatorIS2_EEE21_ConstructTransactionC2B8ne180100ERS5_m, symObjAddr: 0x3218, symBinAddr: 0x10000B65C, symSize: 0x44 }
  - { offset: 0x1CCE9, size: 0x8, addend: 0x0, symName: __ZNSt3__16vectorINS_4pairIiiEENS_9allocatorIS2_EEE21_ConstructTransactionD2B8ne180100Ev, symObjAddr: 0x32E4, symBinAddr: 0x10000B6F0, symSize: 0x20 }
  - { offset: 0x1CD12, size: 0x8, addend: 0x0, symName: __ZNKSt3__16vectorINS_4pairIiiEENS_9allocatorIS2_EEE11__recommendB8ne180100Em, symObjAddr: 0x3304, symBinAddr: 0x10000B710, symSize: 0xB4 }
  - { offset: 0x1CD67, size: 0x8, addend: 0x0, symName: __ZNKSt3__16vectorINS_4pairIiiEENS_9allocatorIS2_EEE4sizeB8ne180100Ev, symObjAddr: 0x33B8, symBinAddr: 0x10000B7C4, symSize: 0x28 }
  - { offset: 0x1CD8D, size: 0x8, addend: 0x0, symName: __ZNSt3__114__split_bufferINS_4pairIiiEERNS_9allocatorIS2_EEEC1EmmS5_, symObjAddr: 0x33E0, symBinAddr: 0x10000B7EC, symSize: 0x44 }
  - { offset: 0x1CDE3, size: 0x8, addend: 0x0, symName: __ZNSt3__114__split_bufferINS_4pairIiiEERNS_9allocatorIS2_EEED1Ev, symObjAddr: 0x3534, symBinAddr: 0x10000B940, symSize: 0x2C }
  - { offset: 0x1CE0E, size: 0x8, addend: 0x0, symName: __ZNKSt3__16vectorINS_4pairIiiEENS_9allocatorIS2_EEE8max_sizeEv, symObjAddr: 0x3560, symBinAddr: 0x10000B96C, symSize: 0x60 }
  - { offset: 0x1CE36, size: 0x8, addend: 0x0, symName: __ZNKSt3__16vectorINS_4pairIiiEENS_9allocatorIS2_EEE20__throw_length_errorB8ne180100Ev, symObjAddr: 0x35C0, symBinAddr: 0x10000B9CC, symSize: 0x1C }
  - { offset: 0x1CE66, size: 0x8, addend: 0x0, symName: __ZNSt3__116allocator_traitsINS_9allocatorINS_4pairIiiEEEEE8max_sizeB8ne180100IS4_vvEEmRKS4_, symObjAddr: 0x3648, symBinAddr: 0x10000B9E8, symSize: 0x28 }
  - { offset: 0x1CE92, size: 0x8, addend: 0x0, symName: __ZNKSt3__16vectorINS_4pairIiiEENS_9allocatorIS2_EEE7__allocB8ne180100Ev, symObjAddr: 0x3670, symBinAddr: 0x10000BA10, symSize: 0x28 }
  - { offset: 0x1CEB8, size: 0x8, addend: 0x0, symName: __ZNKSt3__117__compressed_pairIPNS_4pairIiiEENS_9allocatorIS2_EEE6secondB8ne180100Ev, symObjAddr: 0x3698, symBinAddr: 0x10000BA38, symSize: 0x24 }
  - { offset: 0x1CEDE, size: 0x8, addend: 0x0, symName: __ZNKSt3__122__compressed_pair_elemINS_9allocatorINS_4pairIiiEEEELi1ELb1EE5__getB8ne180100Ev, symObjAddr: 0x36BC, symBinAddr: 0x10000BA5C, symSize: 0x14 }
  - { offset: 0x1CF04, size: 0x8, addend: 0x0, symName: __ZNSt3__114__split_bufferINS_4pairIiiEERNS_9allocatorIS2_EEEC2EmmS5_, symObjAddr: 0x3784, symBinAddr: 0x10000BA70, symSize: 0xD4 }
  - { offset: 0x1CF77, size: 0x8, addend: 0x0, symName: __ZNSt3__117__compressed_pairIPNS_4pairIiiEERNS_9allocatorIS2_EEEC1B8ne180100IDnS6_EEOT_OT0_, symObjAddr: 0x3858, symBinAddr: 0x10000BB44, symSize: 0x3C }
  - { offset: 0x1CFCF, size: 0x8, addend: 0x0, symName: __ZNSt3__114__split_bufferINS_4pairIiiEERNS_9allocatorIS2_EEE7__allocB8ne180100Ev, symObjAddr: 0x38D4, symBinAddr: 0x10000BBC0, symSize: 0x28 }
  - { offset: 0x1CFF5, size: 0x8, addend: 0x0, symName: __ZNSt3__114__split_bufferINS_4pairIiiEERNS_9allocatorIS2_EEE9__end_capB8ne180100Ev, symObjAddr: 0x38FC, symBinAddr: 0x10000BBE8, symSize: 0x28 }
  - { offset: 0x1D01B, size: 0x8, addend: 0x0, symName: __ZNSt3__117__compressed_pairIPNS_4pairIiiEERNS_9allocatorIS2_EEEC2B8ne180100IDnS6_EEOT_OT0_, symObjAddr: 0x3924, symBinAddr: 0x10000BC10, symSize: 0x48 }
  - { offset: 0x1D073, size: 0x8, addend: 0x0, symName: __ZNSt3__122__compressed_pair_elemIRNS_9allocatorINS_4pairIiiEEEELi1ELb0EEC2B8ne180100IS5_vEEOT_, symObjAddr: 0x396C, symBinAddr: 0x10000BC58, symSize: 0x20 }
  - { offset: 0x1D0B5, size: 0x8, addend: 0x0, symName: __ZNSt3__19allocatorINS_4pairIiiEEE8allocateB8ne180100Em, symObjAddr: 0x398C, symBinAddr: 0x10000BC78, symSize: 0x58 }
  - { offset: 0x1D0E9, size: 0x8, addend: 0x0, symName: __ZNSt3__117__compressed_pairIPNS_4pairIiiEERNS_9allocatorIS2_EEE6secondB8ne180100Ev, symObjAddr: 0x39E4, symBinAddr: 0x10000BCD0, symSize: 0x28 }
  - { offset: 0x1D10F, size: 0x8, addend: 0x0, symName: __ZNSt3__122__compressed_pair_elemIRNS_9allocatorINS_4pairIiiEEEELi1ELb0EE5__getB8ne180100Ev, symObjAddr: 0x3A0C, symBinAddr: 0x10000BCF8, symSize: 0x18 }
  - { offset: 0x1D135, size: 0x8, addend: 0x0, symName: __ZNSt3__117__compressed_pairIPNS_4pairIiiEERNS_9allocatorIS2_EEE5firstB8ne180100Ev, symObjAddr: 0x3A24, symBinAddr: 0x10000BD10, symSize: 0x24 }
  - { offset: 0x1D15B, size: 0x8, addend: 0x0, symName: __ZNSt3__116reverse_iteratorIPNS_4pairIiiEEEC1B8ne180100ES3_, symObjAddr: 0x3B84, symBinAddr: 0x10000BE60, symSize: 0x34 }
  - { offset: 0x1D193, size: 0x8, addend: 0x0, symName: __ZNKSt3__116reverse_iteratorIPNS_4pairIiiEEE4baseB8ne180100Ev, symObjAddr: 0x3BB8, symBinAddr: 0x10000BE94, symSize: 0x18 }
  - { offset: 0x1D1B9, size: 0x8, addend: 0x0, symName: __ZNKSt3__16vectorINS_4pairIiiEENS_9allocatorIS2_EEE14__annotate_newB8ne180100Em, symObjAddr: 0x3C0C, symBinAddr: 0x10000BEE8, symSize: 0x14 }
  - { offset: 0x1D1EE, size: 0x8, addend: 0x0, symName: __ZNSt3__129_AllocatorDestroyRangeReverseINS_9allocatorINS_4pairIiiEEEENS_16reverse_iteratorIPS3_EEEC1B8ne180100ERS4_RS7_SA_, symObjAddr: 0x3C6C, symBinAddr: 0x10000BF48, symSize: 0x44 }
  - { offset: 0x1D245, size: 0x8, addend: 0x0, symName: __ZNKSt3__116reverse_iteratorIPNS_4pairIiiEEEdeB8ne180100Ev, symObjAddr: 0x3D1C, symBinAddr: 0x10000BFF8, symSize: 0x28 }
  - { offset: 0x1D279, size: 0x8, addend: 0x0, symName: __ZNSt3__116reverse_iteratorIPNS_4pairIiiEEEppB8ne180100Ev, symObjAddr: 0x3D44, symBinAddr: 0x10000C020, symSize: 0x20 }
  - { offset: 0x1D29F, size: 0x8, addend: 0x0, symName: __ZNSt3__128__exception_guard_exceptionsINS_29_AllocatorDestroyRangeReverseINS_9allocatorINS_4pairIiiEEEENS_16reverse_iteratorIPS4_EEEEE10__completeB8ne180100Ev, symObjAddr: 0x3D64, symBinAddr: 0x10000C040, symSize: 0x1C }
  - { offset: 0x1D2C5, size: 0x8, addend: 0x0, symName: __ZNSt3__128__exception_guard_exceptionsINS_29_AllocatorDestroyRangeReverseINS_9allocatorINS_4pairIiiEEEENS_16reverse_iteratorIPS4_EEEEED1B8ne180100Ev, symObjAddr: 0x3D80, symBinAddr: 0x10000C05C, symSize: 0x2C }
  - { offset: 0x1D2EF, size: 0x8, addend: 0x0, symName: __ZNSt3__128__exception_guard_exceptionsINS_29_AllocatorDestroyRangeReverseINS_9allocatorINS_4pairIiiEEEENS_16reverse_iteratorIPS4_EEEEEC1B8ne180100ES9_, symObjAddr: 0x3DAC, symBinAddr: 0x10000C088, symSize: 0x34 }
  - { offset: 0x1D328, size: 0x8, addend: 0x0, symName: __ZNSt3__128__exception_guard_exceptionsINS_29_AllocatorDestroyRangeReverseINS_9allocatorINS_4pairIiiEEEENS_16reverse_iteratorIPS4_EEEEEC2B8ne180100ES9_, symObjAddr: 0x3DE0, symBinAddr: 0x10000C0BC, symSize: 0x30 }
  - { offset: 0x1D361, size: 0x8, addend: 0x0, symName: __ZNSt3__129_AllocatorDestroyRangeReverseINS_9allocatorINS_4pairIiiEEEENS_16reverse_iteratorIPS3_EEEC2B8ne180100ERS4_RS7_SA_, symObjAddr: 0x3E10, symBinAddr: 0x10000C0EC, symSize: 0x38 }
  - { offset: 0x1D3BD, size: 0x8, addend: 0x0, symName: __ZNSt3__119__to_address_helperINS_16reverse_iteratorIPNS_4pairIiiEEEEvE6__callB8ne180100ERKS5_, symObjAddr: 0x3E48, symBinAddr: 0x10000C124, symSize: 0x38 }
  - { offset: 0x1D3E0, size: 0x8, addend: 0x0, symName: __ZNKSt3__116reverse_iteratorIPNS_4pairIiiEEEptB8ne180100Ev, symObjAddr: 0x3E80, symBinAddr: 0x10000C15C, symSize: 0x2C }
  - { offset: 0x1D406, size: 0x8, addend: 0x0, symName: __ZNSt3__128__exception_guard_exceptionsINS_29_AllocatorDestroyRangeReverseINS_9allocatorINS_4pairIiiEEEENS_16reverse_iteratorIPS4_EEEEED2B8ne180100Ev, symObjAddr: 0x3F48, symBinAddr: 0x10000C224, symSize: 0x50 }
  - { offset: 0x1D430, size: 0x8, addend: 0x0, symName: __ZNKSt3__129_AllocatorDestroyRangeReverseINS_9allocatorINS_4pairIiiEEEENS_16reverse_iteratorIPS3_EEEclB8ne180100Ev, symObjAddr: 0x3F98, symBinAddr: 0x10000C274, symSize: 0xB4 }
  - { offset: 0x1D457, size: 0x8, addend: 0x0, symName: __ZNSt3__116reverse_iteratorINS0_IPNS_4pairIiiEEEEEC1B8ne180100ES4_, symObjAddr: 0x40BC, symBinAddr: 0x10000C398, symSize: 0x3C }
  - { offset: 0x1D48F, size: 0x8, addend: 0x0, symName: __ZNSt3__116reverse_iteratorINS0_IPNS_4pairIiiEEEEEppB8ne180100Ev, symObjAddr: 0x41A4, symBinAddr: 0x10000C458, symSize: 0x30 }
  - { offset: 0x1D4B5, size: 0x8, addend: 0x0, symName: __ZNKSt3__116reverse_iteratorINS0_IPNS_4pairIiiEEEEE4baseB8ne180100Ev, symObjAddr: 0x41D4, symBinAddr: 0x10000C488, symSize: 0x24 }
  - { offset: 0x1D4E0, size: 0x8, addend: 0x0, symName: __ZNSt3__119__to_address_helperINS_16reverse_iteratorINS1_IPNS_4pairIiiEEEEEEvE6__callB8ne180100ERKS6_, symObjAddr: 0x4208, symBinAddr: 0x10000C4AC, symSize: 0x38 }
  - { offset: 0x1D503, size: 0x8, addend: 0x0, symName: __ZNKSt3__116reverse_iteratorINS0_IPNS_4pairIiiEEEEEptB8ne180100Ev, symObjAddr: 0x4240, symBinAddr: 0x10000C4E4, symSize: 0x4C }
  - { offset: 0x1D529, size: 0x8, addend: 0x0, symName: __ZNSt3__116reverse_iteratorIPNS_4pairIiiEEEpLB8ne180100El, symObjAddr: 0x433C, symBinAddr: 0x10000C5E0, symSize: 0x30 }
  - { offset: 0x1D55D, size: 0x8, addend: 0x0, symName: __ZNSt3__116reverse_iteratorIPNS_4pairIiiEEEmmB8ne180100Ev, symObjAddr: 0x436C, symBinAddr: 0x10000C610, symSize: 0x20 }
  - { offset: 0x1D583, size: 0x8, addend: 0x0, symName: __ZNSt3__116reverse_iteratorINS0_IPNS_4pairIiiEEEEEC2B8ne180100ES4_, symObjAddr: 0x438C, symBinAddr: 0x10000C630, symSize: 0x2C }
  - { offset: 0x1D5BB, size: 0x8, addend: 0x0, symName: __ZNSt3__116reverse_iteratorIPNS_4pairIiiEEEC2B8ne180100ES3_, symObjAddr: 0x43B8, symBinAddr: 0x10000C65C, symSize: 0x28 }
  - { offset: 0x1D5F3, size: 0x8, addend: 0x0, symName: __ZNSt3__114__split_bufferINS_4pairIiiEERNS_9allocatorIS2_EEED2Ev, symObjAddr: 0x43E0, symBinAddr: 0x10000C684, symSize: 0x8C }
  - { offset: 0x1D61F, size: 0x8, addend: 0x0, symName: __ZNSt3__114__split_bufferINS_4pairIiiEERNS_9allocatorIS2_EEE5clearB8ne180100Ev, symObjAddr: 0x446C, symBinAddr: 0x10000C710, symSize: 0x28 }
  - { offset: 0x1D645, size: 0x8, addend: 0x0, symName: __ZNKSt3__114__split_bufferINS_4pairIiiEERNS_9allocatorIS2_EEE8capacityB8ne180100Ev, symObjAddr: 0x44C8, symBinAddr: 0x10000C738, symSize: 0x40 }
  - { offset: 0x1D66B, size: 0x8, addend: 0x0, symName: __ZNSt3__114__split_bufferINS_4pairIiiEERNS_9allocatorIS2_EEE17__destruct_at_endB8ne180100EPS2_, symObjAddr: 0x4508, symBinAddr: 0x10000C778, symSize: 0x2C }
  - { offset: 0x1D69E, size: 0x8, addend: 0x0, symName: __ZNSt3__114__split_bufferINS_4pairIiiEERNS_9allocatorIS2_EEE17__destruct_at_endB8ne180100EPS2_NS_17integral_constantIbLb0EEE, symObjAddr: 0x4534, symBinAddr: 0x10000C7A4, symSize: 0x80 }
  - { offset: 0x1D6DE, size: 0x8, addend: 0x0, symName: __ZNKSt3__114__split_bufferINS_4pairIiiEERNS_9allocatorIS2_EEE9__end_capB8ne180100Ev, symObjAddr: 0x45F4, symBinAddr: 0x10000C824, symSize: 0x28 }
  - { offset: 0x1D704, size: 0x8, addend: 0x0, symName: __ZNKSt3__117__compressed_pairIPNS_4pairIiiEERNS_9allocatorIS2_EEE5firstB8ne180100Ev, symObjAddr: 0x461C, symBinAddr: 0x10000C84C, symSize: 0x24 }
  - { offset: 0x1D72A, size: 0x8, addend: 0x0, symName: __ZNSt3__14pairIiiEC2B8ne180100IRiS3_Li0EEEOT_OT0_, symObjAddr: 0x4640, symBinAddr: 0x10000C870, symSize: 0x34 }
  - { offset: 0x1D788, size: 0x8, addend: 0x0, symName: __ZNKSt3__16vectorINS_4pairIiNS1_IiiEEEENS_9allocatorIS3_EEE20__throw_out_of_rangeB8ne180100Ev, symObjAddr: 0x4850, symBinAddr: 0x10000C8A4, symSize: 0x1C }
  - { offset: 0x1D7D1, size: 0x8, addend: 0x0, symName: __ZNKSt3__114__copy_trivialclB8ne180100IiiLi0EEENS_4pairIPT_PT0_EES4_S4_S6_, symObjAddr: 0x4AC0, symBinAddr: 0x10000CA38, symSize: 0x48 }
  - { offset: 0x1D839, size: 0x8, addend: 0x0, symName: __ZNSt3__119__unwrap_range_implIPiS1_E8__unwrapB8ne180100ES1_S1_, symObjAddr: 0x4BCC, symBinAddr: 0x10000CB44, symSize: 0x58 }
  - { offset: 0x1D86F, size: 0x8, addend: 0x0, symName: __ZNSt3__14pairIPiS1_EC1B8ne180100IS1_S1_Li0EEEOT_OT0_, symObjAddr: 0x4C24, symBinAddr: 0x10000CB9C, symSize: 0x3C }
  - { offset: 0x1D8CD, size: 0x8, addend: 0x0, symName: __ZNSt3__14pairIPiS1_EC2B8ne180100IS1_S1_Li0EEEOT_OT0_, symObjAddr: 0x4C60, symBinAddr: 0x10000CBD8, symSize: 0x34 }
  - { offset: 0x1D930, size: 0x8, addend: 0x0, symName: __ZNSt3__14pairIPiS1_EC1B8ne180100IRS1_S1_Li0EEEOT_OT0_, symObjAddr: 0x4DB0, symBinAddr: 0x10000CD28, symSize: 0x3C }
  - { offset: 0x1D98E, size: 0x8, addend: 0x0, symName: __ZNSt3__14pairIPiS1_EC2B8ne180100IRS1_S1_Li0EEEOT_OT0_, symObjAddr: 0x4DEC, symBinAddr: 0x10000CD64, symSize: 0x34 }
  - { offset: 0x1D9EC, size: 0x8, addend: 0x0, symName: __ZNSt3__118__unwrap_iter_implIPiLb1EE8__unwrapB8ne180100ES1_, symObjAddr: 0x4E20, symBinAddr: 0x10000CD98, symSize: 0x24 }
  - { offset: 0x1DA0F, size: 0x8, addend: 0x0, symName: __ZNSt3__119__unwrap_range_implIPiS1_E8__rewrapB8ne180100ES1_S1_, symObjAddr: 0x4E58, symBinAddr: 0x10000CDBC, symSize: 0x2C }
  - { offset: 0x1DA40, size: 0x8, addend: 0x0, symName: __ZNSt3__118__unwrap_iter_implIPiLb1EE8__rewrapB8ne180100ES1_S1_, symObjAddr: 0x4E84, symBinAddr: 0x10000CDE8, symSize: 0x50 }
  - { offset: 0x2D7C4, size: 0x8, addend: 0x0, symName: __ZNSt3__16copy_nB8ne180100IPKcmPcLi0EEET1_T_T0_S4_, symObjAddr: 0x3404, symBinAddr: 0x10000FB18, symSize: 0x44 }
  - { offset: 0x2E43F, size: 0x8, addend: 0x0, symName: __ZNSt3__16chronomiB8ne180100IxNS_5ratioILl1ELl1000000000EEExS3_EENS_11common_typeIJNS0_8durationIT_T0_EENS5_IT1_T2_EEEE4typeERKS8_RKSB_, symObjAddr: 0x4180, symBinAddr: 0x1000103E0, symSize: 0x6C }
  - { offset: 0x2E8E2, size: 0x8, addend: 0x0, symName: __ZNSt3__16chronomiB8ne180100INS0_12steady_clockENS0_8durationIxNS_5ratioILl1ELl1000000000EEEEES6_EENS_11common_typeIJT0_T1_EE4typeERKNS0_10time_pointIT_S8_EERKNSC_ISD_S9_EE, symObjAddr: 0x1CD4, symBinAddr: 0x10000E9C4, symSize: 0x58 }
  - { offset: 0x2EA2B, size: 0x8, addend: 0x0, symName: __ZNSt3__16chrono13duration_castB8ne180100INS0_8durationIdNS_5ratioILl1ELl1EEEEExNS3_ILl1ELl1000000000EEELi0EEET_RKNS2_IT0_T1_EE, symObjAddr: 0x42C0, symBinAddr: 0x100010520, symSize: 0x30 }
  - { offset: 0x304C4, size: 0x8, addend: 0x0, symName: __ZNSt3__17advanceB8ne180100IPNS_4pairIixEEllvEEvRT_T0_, symObjAddr: 0x598C, symBinAddr: 0x1000117A4, symSize: 0x38 }
  - { offset: 0x30744, size: 0x8, addend: 0x0, symName: __ZNSt3__17advanceB8ne180100INS_16reverse_iteratorIPNS_4pairIixEEEEllvEEvRT_T0_, symObjAddr: 0x5D90, symBinAddr: 0x100011B94, symSize: 0x38 }
  - { offset: 0x3136C, size: 0x8, addend: 0x0, symName: __ZNSt3__1lsB8ne180100IcNS_11char_traitsIcEENS_9allocatorIcEEEERNS_13basic_ostreamIT_T0_EES9_RKNS_12basic_stringIS6_S7_T1_EE, symObjAddr: 0x110, symBinAddr: 0x10000CF00, symSize: 0x4C }
  - { offset: 0x31E2D, size: 0x8, addend: 0x0, symName: __ZNSt3__1lsB8ne180100IcNS_11char_traitsIcEEEERNS_13basic_ostreamIT_T0_EES7_RKNS_8__iom_t5E, symObjAddr: 0x9AC, symBinAddr: 0x10000D6F0, symSize: 0x40 }
  - { offset: 0x31E79, size: 0x8, addend: 0x0, symName: __ZNSt3__15fixedB8ne180100ERNS_8ios_baseE, symObjAddr: 0xA2C, symBinAddr: 0x10000D770, symSize: 0x30 }
  - { offset: 0x31EA7, size: 0x8, addend: 0x0, symName: __ZNSt3__112setprecisionB8ne180100Ei, symObjAddr: 0xA5C, symBinAddr: 0x10000D7A0, symSize: 0x2C }
  - { offset: 0x31ED3, size: 0x8, addend: 0x0, symName: __ZNSt3__1eqB8ne180100IcNS_11char_traitsIcEENS_9allocatorIcEEEEbRKNS_12basic_stringIT_T0_T1_EEPKS6_, symObjAddr: 0x197C, symBinAddr: 0x10000E698, symSize: 0x5C }
  - { offset: 0x31F2B, size: 0x8, addend: 0x0, symName: __ZNSt3__1plB8ne180100IcNS_11char_traitsIcEENS_9allocatorIcEEEENS_12basic_stringIT_T0_T1_EERKS9_PKS6_, symObjAddr: 0x1AC0, symBinAddr: 0x10000E7DC, symSize: 0x11C }
  - { offset: 0x31FCC, size: 0x8, addend: 0x0, symName: __ZNSt3__1neB8ne180100IPiEEbRKNS_11__wrap_iterIT_EES6_, symObjAddr: 0x1C3C, symBinAddr: 0x10000E958, symSize: 0x34 }
  - { offset: 0x3200F, size: 0x8, addend: 0x0, symName: __ZNSt3__1neB8ne180100IPNS_4pairIiiEEEEbRKNS_11__wrap_iterIT_EES8_, symObjAddr: 0x1E30, symBinAddr: 0x10000EAF4, symSize: 0x34 }
  - { offset: 0x32052, size: 0x8, addend: 0x0, symName: __ZNSt3__1eqB8ne180100IcNS_11char_traitsIcEEEEbNS_17basic_string_viewIT_T0_EENS_13type_identityIS6_E4typeE, symObjAddr: 0x2260, symBinAddr: 0x10000EE7C, symSize: 0xB0 }
  - { offset: 0x320A1, size: 0x8, addend: 0x0, symName: __ZNSt3__112__to_addressB8ne180100IKcEEPT_S3_, symObjAddr: 0x26A0, symBinAddr: 0x10000F208, symSize: 0x14 }
  - { offset: 0x32109, size: 0x8, addend: 0x0, symName: __ZNSt3__128__char_traits_length_checkedB8ne180100INS_11char_traitsIcEEEEmPKNT_9char_typeE, symObjAddr: 0x28A8, symBinAddr: 0x10000F3A0, symSize: 0x24 }
  - { offset: 0x32140, size: 0x8, addend: 0x0, symName: __ZNSt3__14copyB8ne180100IPKcPcEET0_T_S5_S4_, symObjAddr: 0x3448, symBinAddr: 0x10000FB5C, symSize: 0x40 }
  - { offset: 0x3219A, size: 0x8, addend: 0x0, symName: __ZNSt3__16__copyB8ne180100INS_17_ClassicAlgPolicyEPKcS3_PcEENS_4pairIT0_T2_EES6_T1_S7_, symObjAddr: 0x3488, symBinAddr: 0x10000FB9C, symSize: 0x44 }
  - { offset: 0x32206, size: 0x8, addend: 0x0, symName: __ZNSt3__123__dispatch_copy_or_moveB8ne180100INS_17_ClassicAlgPolicyENS_11__copy_loopIS1_EENS_14__copy_trivialEPKcS6_PcEENS_4pairIT2_T4_EES9_T3_SA_, symObjAddr: 0x34CC, symBinAddr: 0x10000FBE0, symSize: 0x44 }
  - { offset: 0x32284, size: 0x8, addend: 0x0, symName: __ZNSt3__121__unwrap_and_dispatchB8ne180100INS_10__overloadINS_11__copy_loopINS_17_ClassicAlgPolicyEEENS_14__copy_trivialEEEPKcS8_PcLi0EEENS_4pairIT0_T2_EESB_T1_SC_, symObjAddr: 0x3510, symBinAddr: 0x10000FC24, symSize: 0xB4 }
  - { offset: 0x32312, size: 0x8, addend: 0x0, symName: __ZNSt3__114__unwrap_rangeB8ne180100IPKcS2_EEDaT_T0_, symObjAddr: 0x35C4, symBinAddr: 0x10000FCD8, symSize: 0x3C }
  - { offset: 0x324A7, size: 0x8, addend: 0x0, symName: __ZNSt3__113__unwrap_iterB8ne180100IPcNS_18__unwrap_iter_implIS1_Lb1EEELi0EEEDTclsrT0_8__unwrapclsr3stdE7declvalIT_EEEES5_, symObjAddr: 0x3648, symBinAddr: 0x10000FD5C, symSize: 0x24 }
  - { offset: 0x324EB, size: 0x8, addend: 0x0, symName: __ZNSt3__19make_pairB8ne180100IPKcPcEENS_4pairINS_18__unwrap_ref_decayIT_E4typeENS5_IT0_E4typeEEEOS6_OS9_, symObjAddr: 0x366C, symBinAddr: 0x10000FD80, symSize: 0x38 }
  - { offset: 0x3253A, size: 0x8, addend: 0x0, symName: __ZNSt3__114__rewrap_rangeB8ne180100IPKcS2_S2_EET0_S3_T1_, symObjAddr: 0x36A4, symBinAddr: 0x10000FDB8, symSize: 0x2C }
  - { offset: 0x3258F, size: 0x8, addend: 0x0, symName: __ZNSt3__113__rewrap_iterB8ne180100IPcS1_NS_18__unwrap_iter_implIS1_Lb1EEEEET_S4_T0_, symObjAddr: 0x36D0, symBinAddr: 0x10000FDE4, symSize: 0x3C }
  - { offset: 0x32700, size: 0x8, addend: 0x0, symName: __ZNSt3__113__unwrap_iterB8ne180100IPKcNS_18__unwrap_iter_implIS2_Lb1EEELi0EEEDTclsrT0_8__unwrapclsr3stdE7declvalIT_EEEES6_, symObjAddr: 0x3764, symBinAddr: 0x10000FE78, symSize: 0x24 }
  - { offset: 0x32797, size: 0x8, addend: 0x0, symName: __ZNSt3__119__copy_trivial_implB8ne180100IKccEENS_4pairIPT_PT0_EES4_S4_S6_, symObjAddr: 0x381C, symBinAddr: 0x10000FF30, symSize: 0x78 }
  - { offset: 0x327FF, size: 0x8, addend: 0x0, symName: __ZNSt3__119__constexpr_memmoveB8ne180100IcKcLi0EEEPT_S3_PT0_NS_15__element_countE, symObjAddr: 0x3894, symBinAddr: 0x10000FFA8, symSize: 0x64 }
  - { offset: 0x3286D, size: 0x8, addend: 0x0, symName: __ZNSt3__19make_pairB8ne180100IRPKcPcEENS_4pairINS_18__unwrap_ref_decayIT_E4typeENS6_IT0_E4typeEEEOS7_OSA_, symObjAddr: 0x38F8, symBinAddr: 0x10001000C, symSize: 0x38 }
  - { offset: 0x3290F, size: 0x8, addend: 0x0, symName: __ZNSt3__113__rewrap_iterB8ne180100IPKcS2_NS_18__unwrap_iter_implIS2_Lb1EEEEET_S5_T0_, symObjAddr: 0x3A60, symBinAddr: 0x100010174, symSize: 0x3C }
  - { offset: 0x32964, size: 0x8, addend: 0x0, symName: __ZNSt3__16fill_nB8ne180100IPcmcEET_S2_T0_RKT1_, symObjAddr: 0x3B2C, symBinAddr: 0x100010240, symSize: 0x44 }
  - { offset: 0x329C7, size: 0x8, addend: 0x0, symName: __ZNSt3__18__fill_nB8ne180100IPcmcEET_S2_T0_RKT1_, symObjAddr: 0x3B70, symBinAddr: 0x100010284, symSize: 0x64 }
  - { offset: 0x32A2A, size: 0x8, addend: 0x0, symName: __ZNSt3__121__convert_to_integralB8ne180100Em, symObjAddr: 0x3BD4, symBinAddr: 0x1000102E8, symSize: 0x14 }
  - { offset: 0x32A56, size: 0x8, addend: 0x0, symName: __ZNSt3__1eqB8ne180100IPiEEbRKNS_11__wrap_iterIT_EES6_, symObjAddr: 0x3C6C, symBinAddr: 0x100010380, symSize: 0x48 }
  - { offset: 0x32A99, size: 0x8, addend: 0x0, symName: __ZNSt3__1eqB8ne180100IPNS_4pairIiiEEEEbRKNS_11__wrap_iterIT_EES8_, symObjAddr: 0x4914, symBinAddr: 0x1000107C8, symSize: 0x48 }
  - { offset: 0x32ADC, size: 0x8, addend: 0x0, symName: __ZNSt3__112__to_addressB8ne180100INS_4pairIixEEEEPT_S4_, symObjAddr: 0x4BE0, symBinAddr: 0x100010A94, symSize: 0x14 }
  - { offset: 0x32B11, size: 0x8, addend: 0x0, symName: __ZNSt3__114__construct_atB8ne180100INS_4pairIixEEJRKS2_EPS2_EEPT_S7_DpOT0_, symObjAddr: 0x4C64, symBinAddr: 0x100010B18, symSize: 0x2C }
  - { offset: 0x32B64, size: 0x8, addend: 0x0, symName: __ZNSt3__112construct_atB8ne180100INS_4pairIixEEJRKS2_EPS2_EEPT_S7_DpOT0_, symObjAddr: 0x4C90, symBinAddr: 0x100010B44, symSize: 0x24 }
  - { offset: 0x32BB7, size: 0x8, addend: 0x0, symName: __ZNSt3__119__allocate_at_leastB8ne180100INS_9allocatorINS_4pairIixEEEEEENS_19__allocation_resultINS_16allocator_traitsIT_E7pointerEEERS7_m, symObjAddr: 0x52B8, symBinAddr: 0x1000110D0, symSize: 0x40 }
  - { offset: 0x32BFA, size: 0x8, addend: 0x0, symName: __ZNSt3__142__uninitialized_allocator_move_if_noexceptB8ne180100INS_9allocatorINS_4pairIixEEEENS_16reverse_iteratorIPS3_EES7_S7_EET2_RT_T0_T1_S8_, symObjAddr: 0x547C, symBinAddr: 0x100011294, symSize: 0x12C }
  - { offset: 0x32C9A, size: 0x8, addend: 0x0, symName: __ZNSt3__14swapB8ne180100IPNS_4pairIixEEEENS_9enable_ifIXaasr21is_move_constructibleIT_EE5valuesr18is_move_assignableIS5_EE5valueEvE4typeERS5_S8_, symObjAddr: 0x55F4, symBinAddr: 0x10001140C, symSize: 0x3C }
  - { offset: 0x32CEB, size: 0x8, addend: 0x0, symName: __ZNSt3__122__make_exception_guardB8ne180100INS_29_AllocatorDestroyRangeReverseINS_9allocatorINS_4pairIixEEEENS_16reverse_iteratorIPS4_EEEEEENS_28__exception_guard_exceptionsIT_EESB_, symObjAddr: 0x5644, symBinAddr: 0x10001145C, symSize: 0x4C }
  - { offset: 0x32D21, size: 0x8, addend: 0x0, symName: __ZNSt3__1neB8ne180100IPNS_4pairIixEES3_EEbRKNS_16reverse_iteratorIT_EERKNS4_IT0_EE, symObjAddr: 0x56D4, symBinAddr: 0x1000114EC, symSize: 0x48 }
  - { offset: 0x32D6D, size: 0x8, addend: 0x0, symName: __ZNSt3__112__to_addressB8ne180100INS_16reverse_iteratorIPNS_4pairIixEEEEvEEu7__decayIDTclsr19__to_address_helperIT_EE6__callclsr3stdE7declvalIRKS6_EEEEES8_, symObjAddr: 0x574C, symBinAddr: 0x100011564, symSize: 0x24 }
  - { offset: 0x32DA3, size: 0x8, addend: 0x0, symName: __ZNSt3__114__construct_atB8ne180100INS_4pairIixEEJS2_EPS2_EEPT_S5_DpOT0_, symObjAddr: 0x589C, symBinAddr: 0x1000116B4, symSize: 0x2C }
  - { offset: 0x32DF6, size: 0x8, addend: 0x0, symName: __ZNSt3__112construct_atB8ne180100INS_4pairIixEEJS2_EPS2_EEPT_S5_DpOT0_, symObjAddr: 0x58C8, symBinAddr: 0x1000116E0, symSize: 0x24 }
  - { offset: 0x32E72, size: 0x8, addend: 0x0, symName: __ZNSt3__14prevB8ne180100IPNS_4pairIixEELi0EEET_S4_NS_15iterator_traitsIS4_E15difference_typeE, symObjAddr: 0x5950, symBinAddr: 0x100011768, symSize: 0x3C }
  - { offset: 0x32EBB, size: 0x8, addend: 0x0, symName: __ZNSt3__19__advanceB8ne180100IPNS_4pairIixEEEEvRT_NS_15iterator_traitsIS4_E15difference_typeENS_26random_access_iterator_tagE, symObjAddr: 0x59D8, symBinAddr: 0x1000117DC, symSize: 0x28 }
  - { offset: 0x32F04, size: 0x8, addend: 0x0, symName: __ZNSt3__119__allocator_destroyB8ne180100INS_9allocatorINS_4pairIixEEEENS_16reverse_iteratorINS5_IPS3_EEEES8_EEvRT_T0_T1_, symObjAddr: 0x5B04, symBinAddr: 0x100011908, symSize: 0x70 }
  - { offset: 0x32F69, size: 0x8, addend: 0x0, symName: __ZNSt3__1neB8ne180100INS_16reverse_iteratorIPNS_4pairIixEEEES5_EEbRKNS1_IT_EERKNS1_IT0_EE, symObjAddr: 0x5BB0, symBinAddr: 0x1000119B4, symSize: 0x60 }
  - { offset: 0x32FB5, size: 0x8, addend: 0x0, symName: __ZNSt3__112__to_addressB8ne180100INS_16reverse_iteratorINS1_IPNS_4pairIixEEEEEEvEEu7__decayIDTclsr19__to_address_helperIT_EE6__callclsr3stdE7declvalIRKS7_EEEEES9_, symObjAddr: 0x5C38, symBinAddr: 0x100011A3C, symSize: 0x24 }
  - { offset: 0x32FEB, size: 0x8, addend: 0x0, symName: __ZNSt3__112__destroy_atB8ne180100INS_4pairIixEELi0EEEvPT_, symObjAddr: 0x5CB0, symBinAddr: 0x100011AB4, symSize: 0x10 }
  - { offset: 0x3304B, size: 0x8, addend: 0x0, symName: __ZNSt3__14prevB8ne180100INS_16reverse_iteratorIPNS_4pairIixEEEELi0EEET_S6_NS_15iterator_traitsIS6_E15difference_typeE, symObjAddr: 0x5D44, symBinAddr: 0x100011B48, symSize: 0x4C }
  - { offset: 0x33094, size: 0x8, addend: 0x0, symName: __ZNSt3__19__advanceB8ne180100INS_16reverse_iteratorIPNS_4pairIixEEEEEEvRT_NS_15iterator_traitsIS6_E15difference_typeENS_26random_access_iterator_tagE, symObjAddr: 0x5DC8, symBinAddr: 0x100011BCC, symSize: 0x2C }
  - { offset: 0x355B8, size: 0x8, addend: 0x0, symName: __ZNKSt3__16chrono15__duration_castINS0_8durationIxNS_5ratioILl1ELl1000000000EEEEENS2_IdNS3_ILl1ELl1EEEEES4_Lb1ELb0EEclB8ne180100ERKS5_, symObjAddr: 0x42F0, symBinAddr: 0x100010550, symSize: 0x4C }
  - { offset: 0x35768, size: 0x8, addend: 0x0, symName: __ZNSt3__16vectorINS_4pairIixEENS_9allocatorIS2_EEE26__swap_out_circular_bufferERNS_14__split_bufferIS2_RS4_EE, symObjAddr: 0x4E2C, symBinAddr: 0x100010CE0, symSize: 0x110 }
  - { offset: 0x358C7, size: 0x8, addend: 0x0, symName: __Z10printUsageRKNSt3__112basic_stringIcNS_11char_traitsIcEENS_9allocatorIcEEEE, symObjAddr: 0x0, symBinAddr: 0x10000CE38, symSize: 0xC8 }
  - { offset: 0x358EF, size: 0x8, addend: 0x0, symName: __Z17saveSSSPDistancesRKNSt3__112basic_stringIcNS_11char_traitsIcEENS_9allocatorIcEEEEiRKNS_6vectorIxNS3_IxEEEE, symObjAddr: 0x15C, symBinAddr: 0x10000CF4C, symSize: 0x254 }
  - { offset: 0x35BA1, size: 0x8, addend: 0x0, symName: __ZNSt3__114basic_ofstreamIcNS_11char_traitsIcEEEC1ERKNS_12basic_stringIcS2_NS_9allocatorIcEEEEj, symObjAddr: 0x3B0, symBinAddr: 0x10000D1A0, symSize: 0x164 }
  - { offset: 0x35BEA, size: 0x8, addend: 0x0, symName: __ZNKSt3__114basic_ofstreamIcNS_11char_traitsIcEEE7is_openEv, symObjAddr: 0x514, symBinAddr: 0x10000D304, symSize: 0x2C }
  - { offset: 0x35C12, size: 0x8, addend: 0x0, symName: __ZNKSt3__16vectorIxNS_9allocatorIxEEEixB8ne180100Em, symObjAddr: 0x5EC, symBinAddr: 0x10000D330, symSize: 0x24 }
  - { offset: 0x35C49, size: 0x8, addend: 0x0, symName: __ZNSt3__114numeric_limitsIxE3maxB8ne180100Ev, symObjAddr: 0x610, symBinAddr: 0x10000D354, symSize: 0x14 }
  - { offset: 0x35C62, size: 0x8, addend: 0x0, symName: __ZNSt3__114basic_ofstreamIcNS_11char_traitsIcEEED1Ev, symObjAddr: 0x624, symBinAddr: 0x10000D368, symSize: 0x40 }
  - { offset: 0x35C8E, size: 0x8, addend: 0x0, symName: __Z13saveP2PResultRKNSt3__112basic_stringIcNS_11char_traitsIcEENS_9allocatorIcEEEERKNS_6vectorINS_4pairIiiEENS3_ISA_EEEERKNS8_INS9_IixEENS3_ISF_EEEEd, symObjAddr: 0x664, symBinAddr: 0x10000D3A8, symSize: 0x348 }
  - { offset: 0x35D4C, size: 0x8, addend: 0x0, symName: __ZNSt3__113basic_ostreamIcNS_11char_traitsIcEEElsB8ne180100EPFRNS_8ios_baseES5_E, symObjAddr: 0x9EC, symBinAddr: 0x10000D730, symSize: 0x40 }
  - { offset: 0x35D80, size: 0x8, addend: 0x0, symName: __ZNKSt3__16vectorINS_4pairIiiEENS_9allocatorIS2_EEEixB8ne180100Em, symObjAddr: 0xAB0, symBinAddr: 0x10000D7CC, symSize: 0x24 }
  - { offset: 0x35DB7, size: 0x8, addend: 0x0, symName: __ZNKSt3__16vectorINS_4pairIixEENS_9allocatorIS2_EEEixB8ne180100Em, symObjAddr: 0xAD4, symBinAddr: 0x10000D7F0, symSize: 0x24 }
  - { offset: 0x35DEE, size: 0x8, addend: 0x0, symName: _main, symObjAddr: 0xAF8, symBinAddr: 0x10000D814, symSize: 0xE58 }
  - { offset: 0x3604D, size: 0x8, addend: 0x0, symName: __ZNSt3__112basic_stringIcNS_11char_traitsIcEENS_9allocatorIcEEEC1B8ne180100Ev, symObjAddr: 0x1950, symBinAddr: 0x10000E66C, symSize: 0x2C }
  - { offset: 0x3607C, size: 0x8, addend: 0x0, symName: __ZNSt3__112basic_stringIcNS_11char_traitsIcEENS_9allocatorIcEEEC1B8ne180100ILi0EEEPKc, symObjAddr: 0x19D8, symBinAddr: 0x10000E6F4, symSize: 0x34 }
  - { offset: 0x360BB, size: 0x8, addend: 0x0, symName: __ZNSt3__112basic_stringIcNS_11char_traitsIcEENS_9allocatorIcEEEaSB8ne180100EPKc, symObjAddr: 0x1A0C, symBinAddr: 0x10000E728, symSize: 0x2C }
  - { offset: 0x360F0, size: 0x8, addend: 0x0, symName: __ZNKSt3__112basic_stringIcNS_11char_traitsIcEENS_9allocatorIcEEE5emptyB8ne180100Ev, symObjAddr: 0x1A38, symBinAddr: 0x10000E754, symSize: 0x30 }
  - { offset: 0x36115, size: 0x8, addend: 0x0, symName: __ZNSt3__114basic_ofstreamIcNS_11char_traitsIcEEE5closeEv, symObjAddr: 0x1A68, symBinAddr: 0x10000E784, symSize: 0x58 }
  - { offset: 0x3613C, size: 0x8, addend: 0x0, symName: __ZNSt3__16vectorIiNS_9allocatorIiEEE5beginB8ne180100Ev, symObjAddr: 0x1BDC, symBinAddr: 0x10000E8F8, symSize: 0x30 }
  - { offset: 0x36163, size: 0x8, addend: 0x0, symName: __ZNSt3__16vectorIiNS_9allocatorIiEEE3endB8ne180100Ev, symObjAddr: 0x1C0C, symBinAddr: 0x10000E928, symSize: 0x30 }
  - { offset: 0x3618B, size: 0x8, addend: 0x0, symName: __ZNKSt3__111__wrap_iterIPiEdeB8ne180100Ev, symObjAddr: 0x1C70, symBinAddr: 0x10000E98C, symSize: 0x18 }
  - { offset: 0x361B1, size: 0x8, addend: 0x0, symName: __ZNSt3__111__wrap_iterIPiEppB8ne180100Ev, symObjAddr: 0x1CB4, symBinAddr: 0x10000E9A4, symSize: 0x20 }
  - { offset: 0x361D7, size: 0x8, addend: 0x0, symName: __ZNSt3__16chrono8durationIdNS_5ratioILl1ELl1EEEEC1B8ne180100IxNS2_ILl1ELl1000000000EEELi0EEERKNS1_IT_T0_EE, symObjAddr: 0x1D2C, symBinAddr: 0x10000EA1C, symSize: 0x34 }
  - { offset: 0x36227, size: 0x8, addend: 0x0, symName: __ZNKSt3__16chrono8durationIdNS_5ratioILl1ELl1EEEE5countB8ne180100Ev, symObjAddr: 0x1D60, symBinAddr: 0x10000EA50, symSize: 0x18 }
  - { offset: 0x3624D, size: 0x8, addend: 0x0, symName: __ZNSt3__16vectorINS_4pairIixEENS_9allocatorIS2_EEEC1B8ne180100Ev, symObjAddr: 0x1DA4, symBinAddr: 0x10000EA68, symSize: 0x2C }
  - { offset: 0x36276, size: 0x8, addend: 0x0, symName: __ZNSt3__16vectorINS_4pairIiiEENS_9allocatorIS2_EEE5beginB8ne180100Ev, symObjAddr: 0x1DD0, symBinAddr: 0x10000EA94, symSize: 0x30 }
  - { offset: 0x3629D, size: 0x8, addend: 0x0, symName: __ZNSt3__16vectorINS_4pairIiiEENS_9allocatorIS2_EEE3endB8ne180100Ev, symObjAddr: 0x1E00, symBinAddr: 0x10000EAC4, symSize: 0x30 }
  - { offset: 0x362C5, size: 0x8, addend: 0x0, symName: __ZNKSt3__111__wrap_iterIPNS_4pairIiiEEEdeB8ne180100Ev, symObjAddr: 0x1E64, symBinAddr: 0x10000EB28, symSize: 0x18 }
  - { offset: 0x362EA, size: 0x8, addend: 0x0, symName: __ZNSt3__16vectorINS_4pairIixEENS_9allocatorIS2_EEE9push_backB8ne180100ERKS2_, symObjAddr: 0x1E7C, symBinAddr: 0x10000EB40, symSize: 0x90 }
  - { offset: 0x36330, size: 0x8, addend: 0x0, symName: __ZNSt3__111__wrap_iterIPNS_4pairIiiEEEppB8ne180100Ev, symObjAddr: 0x1F0C, symBinAddr: 0x10000EBD0, symSize: 0x20 }
  - { offset: 0x36356, size: 0x8, addend: 0x0, symName: __ZNSt3__16vectorINS_4pairIixEENS_9allocatorIS2_EEED1B8ne180100Ev, symObjAddr: 0x1F2C, symBinAddr: 0x10000EBF0, symSize: 0x2C }
  - { offset: 0x36380, size: 0x8, addend: 0x0, symName: __ZNSt3__123__libcpp_numeric_limitsIxLb1EE3maxB8ne180100Ev, symObjAddr: 0x1F94, symBinAddr: 0x10000EC1C, symSize: 0x8 }
  - { offset: 0x36394, size: 0x8, addend: 0x0, symName: __ZNSt3__114basic_ofstreamIcNS_11char_traitsIcEEED2Ev, symObjAddr: 0x1F9C, symBinAddr: 0x10000EC24, symSize: 0x64 }
  - { offset: 0x363CE, size: 0x8, addend: 0x0, symName: __ZTv0_n24_NSt3__114basic_ofstreamIcNS_11char_traitsIcEEED1Ev, symObjAddr: 0x2000, symBinAddr: 0x10000EC88, symSize: 0x28 }
  - { offset: 0x363E4, size: 0x8, addend: 0x0, symName: __ZNSt3__18ios_base4setfB8ne180100Ejj, symObjAddr: 0x2028, symBinAddr: 0x10000ECB0, symSize: 0x5C }
  - { offset: 0x36439, size: 0x8, addend: 0x0, symName: __ZNSt3__18ios_base6unsetfB8ne180100Ej, symObjAddr: 0x2084, symBinAddr: 0x10000ED0C, symSize: 0x28 }
  - { offset: 0x36470, size: 0x8, addend: 0x0, symName: __ZNSt3__18__iom_t5C1B8ne180100Ei, symObjAddr: 0x20AC, symBinAddr: 0x10000ED34, symSize: 0x34 }
  - { offset: 0x364A8, size: 0x8, addend: 0x0, symName: __ZNSt3__18__iom_t5C2B8ne180100Ei, symObjAddr: 0x20E0, symBinAddr: 0x10000ED68, symSize: 0x20 }
  - { offset: 0x364E0, size: 0x8, addend: 0x0, symName: __ZNSt3__112basic_stringIcNS_11char_traitsIcEENS_9allocatorIcEEEC2B8ne180100Ev, symObjAddr: 0x2100, symBinAddr: 0x10000ED88, symSize: 0x48 }
  - { offset: 0x36514, size: 0x8, addend: 0x0, symName: __ZNSt3__117__compressed_pairINS_12basic_stringIcNS_11char_traitsIcEENS_9allocatorIcEEE5__repES5_EC1B8ne180100INS_16__value_init_tagENS_18__default_init_tagEEEOT_OT0_, symObjAddr: 0x2148, symBinAddr: 0x10000EDD0, symSize: 0x3C }
  - { offset: 0x3656C, size: 0x8, addend: 0x0, symName: __ZNKSt3__112basic_stringIcNS_11char_traitsIcEENS_9allocatorIcEEE14__annotate_newB8ne180100Em, symObjAddr: 0x2184, symBinAddr: 0x10000EE0C, symSize: 0x14 }
  - { offset: 0x365A1, size: 0x8, addend: 0x0, symName: __ZNSt3__117__compressed_pairINS_12basic_stringIcNS_11char_traitsIcEENS_9allocatorIcEEE5__repES5_EC2B8ne180100INS_16__value_init_tagENS_18__default_init_tagEEEOT_OT0_, symObjAddr: 0x2198, symBinAddr: 0x10000EE20, symSize: 0x3C }
  - { offset: 0x365F9, size: 0x8, addend: 0x0, symName: __ZNSt3__122__compressed_pair_elemINS_12basic_stringIcNS_11char_traitsIcEENS_9allocatorIcEEE5__repELi0ELb0EEC2B8ne180100ENS_16__value_init_tagE, symObjAddr: 0x21D4, symBinAddr: 0x10000EE5C, symSize: 0x20 }
  - { offset: 0x3662D, size: 0x8, addend: 0x0, symName: __ZNKSt3__112basic_stringIcNS_11char_traitsIcEENS_9allocatorIcEEEcvNS_17basic_string_viewIcS2_EEB8ne180100Ev, symObjAddr: 0x2310, symBinAddr: 0x10000EF2C, symSize: 0x50 }
  - { offset: 0x36653, size: 0x8, addend: 0x0, symName: __ZNSt3__117basic_string_viewIcNS_11char_traitsIcEEEC1B8ne180100EPKc, symObjAddr: 0x2360, symBinAddr: 0x10000EF7C, symSize: 0x34 }
  - { offset: 0x3668C, size: 0x8, addend: 0x0, symName: __ZNKSt3__117basic_string_viewIcNS_11char_traitsIcEEE4sizeB8ne180100Ev, symObjAddr: 0x2394, symBinAddr: 0x10000EFB0, symSize: 0x18 }
  - { offset: 0x366B2, size: 0x8, addend: 0x0, symName: __ZNKSt3__117basic_string_viewIcNS_11char_traitsIcEEE7compareES3_, symObjAddr: 0x23AC, symBinAddr: 0x10000EFC8, symSize: 0x13C }
  - { offset: 0x36705, size: 0x8, addend: 0x0, symName: __ZNSt3__111char_traitsIcE7compareB8ne180100EPKcS3_m, symObjAddr: 0x2514, symBinAddr: 0x10000F104, symSize: 0x34 }
  - { offset: 0x36744, size: 0x8, addend: 0x0, symName: __ZNKSt3__117basic_string_viewIcNS_11char_traitsIcEEE4dataB8ne180100Ev, symObjAddr: 0x2548, symBinAddr: 0x10000F138, symSize: 0x18 }
  - { offset: 0x3676A, size: 0x8, addend: 0x0, symName: __ZNKSt3__112basic_stringIcNS_11char_traitsIcEENS_9allocatorIcEEE4dataB8ne180100Ev, symObjAddr: 0x25E8, symBinAddr: 0x10000F150, symSize: 0x28 }
  - { offset: 0x36790, size: 0x8, addend: 0x0, symName: __ZNKSt3__112basic_stringIcNS_11char_traitsIcEENS_9allocatorIcEEE4sizeB8ne180100Ev, symObjAddr: 0x2610, symBinAddr: 0x10000F178, symSize: 0x54 }
  - { offset: 0x367B6, size: 0x8, addend: 0x0, symName: __ZNSt3__117basic_string_viewIcNS_11char_traitsIcEEEC1B8ne180100EPKcm, symObjAddr: 0x2664, symBinAddr: 0x10000F1CC, symSize: 0x3C }
  - { offset: 0x367FE, size: 0x8, addend: 0x0, symName: __ZNKSt3__112basic_stringIcNS_11char_traitsIcEENS_9allocatorIcEEE13__get_pointerB8ne180100Ev, symObjAddr: 0x26B4, symBinAddr: 0x10000F21C, symSize: 0x54 }
  - { offset: 0x36824, size: 0x8, addend: 0x0, symName: __ZNKSt3__112basic_stringIcNS_11char_traitsIcEENS_9allocatorIcEEE18__get_long_pointerB8ne180100Ev, symObjAddr: 0x2740, symBinAddr: 0x10000F270, symSize: 0x28 }
  - { offset: 0x3684A, size: 0x8, addend: 0x0, symName: __ZNKSt3__112basic_stringIcNS_11char_traitsIcEENS_9allocatorIcEEE19__get_short_pointerB8ne180100Ev, symObjAddr: 0x2768, symBinAddr: 0x10000F298, symSize: 0x28 }
  - { offset: 0x36870, size: 0x8, addend: 0x0, symName: __ZNSt3__114pointer_traitsIPKcE10pointer_toB8ne180100ERS1_, symObjAddr: 0x27C8, symBinAddr: 0x10000F2C0, symSize: 0x14 }
  - { offset: 0x36893, size: 0x8, addend: 0x0, symName: __ZNKSt3__112basic_stringIcNS_11char_traitsIcEENS_9allocatorIcEEE15__get_long_sizeB8ne180100Ev, symObjAddr: 0x27DC, symBinAddr: 0x10000F2D4, symSize: 0x28 }
  - { offset: 0x368B9, size: 0x8, addend: 0x0, symName: __ZNKSt3__112basic_stringIcNS_11char_traitsIcEENS_9allocatorIcEEE16__get_short_sizeB8ne180100Ev, symObjAddr: 0x2804, symBinAddr: 0x10000F2FC, symSize: 0x34 }
  - { offset: 0x368DF, size: 0x8, addend: 0x0, symName: __ZNSt3__117basic_string_viewIcNS_11char_traitsIcEEEC2B8ne180100EPKcm, symObjAddr: 0x2838, symBinAddr: 0x10000F330, symSize: 0x2C }
  - { offset: 0x36927, size: 0x8, addend: 0x0, symName: __ZNSt3__117basic_string_viewIcNS_11char_traitsIcEEEC2B8ne180100EPKc, symObjAddr: 0x2864, symBinAddr: 0x10000F35C, symSize: 0x44 }
  - { offset: 0x36960, size: 0x8, addend: 0x0, symName: __ZNSt3__112basic_stringIcNS_11char_traitsIcEENS_9allocatorIcEEEC2B8ne180100ILi0EEEPKc, symObjAddr: 0x2924, symBinAddr: 0x10000F3C4, symSize: 0x58 }
  - { offset: 0x369A9, size: 0x8, addend: 0x0, symName: __ZNSt3__116allocator_traitsINS_9allocatorIcEEE37select_on_container_copy_constructionB8ne180100IS2_vvEES2_RKS2_, symObjAddr: 0x2A08, symBinAddr: 0x10000F41C, symSize: 0x10 }
  - { offset: 0x369D8, size: 0x8, addend: 0x0, symName: __ZNKSt3__112basic_stringIcNS_11char_traitsIcEENS_9allocatorIcEEE13get_allocatorB8ne180100Ev, symObjAddr: 0x2A18, symBinAddr: 0x10000F42C, symSize: 0x24 }
  - { offset: 0x369FE, size: 0x8, addend: 0x0, symName: __ZNSt3__112basic_stringIcNS_11char_traitsIcEENS_9allocatorIcEEEC1B8ne180100ENS_24__uninitialized_size_tagEmRKS4_, symObjAddr: 0x2A3C, symBinAddr: 0x10000F450, symSize: 0x3C }
  - { offset: 0x36A52, size: 0x8, addend: 0x0, symName: __ZNSt3__111char_traitsIcE4copyB8ne180100EPcPKcm, symObjAddr: 0x2AE0, symBinAddr: 0x10000F48C, symSize: 0x40 }
  - { offset: 0x36A91, size: 0x8, addend: 0x0, symName: __ZNSt3__111char_traitsIcE6assignB8ne180100EPcmc, symObjAddr: 0x2B20, symBinAddr: 0x10000F4CC, symSize: 0x44 }
  - { offset: 0x36AD0, size: 0x8, addend: 0x0, symName: __ZNKSt3__112basic_stringIcNS_11char_traitsIcEENS_9allocatorIcEEE7__allocB8ne180100Ev, symObjAddr: 0x2B64, symBinAddr: 0x10000F510, symSize: 0x24 }
  - { offset: 0x36AF6, size: 0x8, addend: 0x0, symName: __ZNKSt3__117__compressed_pairINS_12basic_stringIcNS_11char_traitsIcEENS_9allocatorIcEEE5__repES5_E6secondB8ne180100Ev, symObjAddr: 0x2B88, symBinAddr: 0x10000F534, symSize: 0x24 }
  - { offset: 0x36B1C, size: 0x8, addend: 0x0, symName: __ZNKSt3__122__compressed_pair_elemINS_9allocatorIcEELi1ELb1EE5__getB8ne180100Ev, symObjAddr: 0x2BAC, symBinAddr: 0x10000F558, symSize: 0x14 }
  - { offset: 0x36B42, size: 0x8, addend: 0x0, symName: __ZNSt3__112basic_stringIcNS_11char_traitsIcEENS_9allocatorIcEEEC2B8ne180100ENS_24__uninitialized_size_tagEmRKS4_, symObjAddr: 0x2BC0, symBinAddr: 0x10000F56C, symSize: 0x11C }
  - { offset: 0x36BC2, size: 0x8, addend: 0x0, symName: __ZNSt3__117__compressed_pairINS_12basic_stringIcNS_11char_traitsIcEENS_9allocatorIcEEE5__repES5_EC1B8ne180100INS_18__default_init_tagERKS5_EEOT_OT0_, symObjAddr: 0x2CDC, symBinAddr: 0x10000F688, symSize: 0x3C }
  - { offset: 0x36C1A, size: 0x8, addend: 0x0, symName: __ZNKSt3__112basic_stringIcNS_11char_traitsIcEENS_9allocatorIcEEE8max_sizeB8ne180100Ev, symObjAddr: 0x2D18, symBinAddr: 0x10000F6C4, symSize: 0xAC }
  - { offset: 0x36C6C, size: 0x8, addend: 0x0, symName: __ZNKSt3__112basic_stringIcNS_11char_traitsIcEENS_9allocatorIcEEE20__throw_length_errorB8ne180100Ev, symObjAddr: 0x2DC4, symBinAddr: 0x10000F770, symSize: 0x1C }
  - { offset: 0x36C92, size: 0x8, addend: 0x0, symName: __ZNSt3__112basic_stringIcNS_11char_traitsIcEENS_9allocatorIcEEE13__fits_in_ssoB8ne180100Em, symObjAddr: 0x2DE0, symBinAddr: 0x10000F78C, symSize: 0x20 }
  - { offset: 0x36CB6, size: 0x8, addend: 0x0, symName: __ZNSt3__112basic_stringIcNS_11char_traitsIcEENS_9allocatorIcEEE16__set_short_sizeB8ne180100Em, symObjAddr: 0x2E24, symBinAddr: 0x10000F7AC, symSize: 0x78 }
  - { offset: 0x36CEB, size: 0x8, addend: 0x0, symName: __ZNSt3__112basic_stringIcNS_11char_traitsIcEENS_9allocatorIcEEE11__recommendB8ne180100Em, symObjAddr: 0x2E9C, symBinAddr: 0x10000F824, symSize: 0x84 }
  - { offset: 0x36D1E, size: 0x8, addend: 0x0, symName: __ZNSt3__116allocator_traitsINS_9allocatorIcEEE8allocateB8ne180100ERS2_m, symObjAddr: 0x2F20, symBinAddr: 0x10000F8A8, symSize: 0x2C }
  - { offset: 0x36D51, size: 0x8, addend: 0x0, symName: __ZNSt3__112basic_stringIcNS_11char_traitsIcEENS_9allocatorIcEEE7__allocB8ne180100Ev, symObjAddr: 0x2F4C, symBinAddr: 0x10000F8D4, symSize: 0x24 }
  - { offset: 0x36D77, size: 0x8, addend: 0x0, symName: __ZNSt3__112basic_stringIcNS_11char_traitsIcEENS_9allocatorIcEEE16__begin_lifetimeB8ne180100EPcm, symObjAddr: 0x2F70, symBinAddr: 0x10000F8F8, symSize: 0x14 }
  - { offset: 0x36DAA, size: 0x8, addend: 0x0, symName: __ZNSt3__112basic_stringIcNS_11char_traitsIcEENS_9allocatorIcEEE14__set_long_capB8ne180100Em, symObjAddr: 0x2F84, symBinAddr: 0x10000F90C, symSize: 0x70 }
  - { offset: 0x36DDF, size: 0x8, addend: 0x0, symName: __ZNSt3__112basic_stringIcNS_11char_traitsIcEENS_9allocatorIcEEE18__set_long_pointerB8ne180100EPc, symObjAddr: 0x2FF4, symBinAddr: 0x10000F97C, symSize: 0x38 }
  - { offset: 0x36E14, size: 0x8, addend: 0x0, symName: __ZNSt3__112basic_stringIcNS_11char_traitsIcEENS_9allocatorIcEEE15__set_long_sizeB8ne180100Em, symObjAddr: 0x302C, symBinAddr: 0x10000F9B4, symSize: 0x38 }
  - { offset: 0x36E49, size: 0x8, addend: 0x0, symName: __ZNSt3__117__compressed_pairINS_12basic_stringIcNS_11char_traitsIcEENS_9allocatorIcEEE5__repES5_EC2B8ne180100INS_18__default_init_tagERKS5_EEOT_OT0_, symObjAddr: 0x3064, symBinAddr: 0x10000F9EC, symSize: 0x40 }
  - { offset: 0x36EA1, size: 0x8, addend: 0x0, symName: __ZNSt3__122__compressed_pair_elemINS_9allocatorIcEELi1ELb1EEC2B8ne180100IRKS2_vEEOT_, symObjAddr: 0x30A4, symBinAddr: 0x10000FA2C, symSize: 0x18 }
  - { offset: 0x36EE3, size: 0x8, addend: 0x0, symName: __ZNSt3__116allocator_traitsINS_9allocatorIcEEE8max_sizeB8ne180100IS2_vvEEmRKS2_, symObjAddr: 0x30BC, symBinAddr: 0x10000FA44, symSize: 0x28 }
  - { offset: 0x36F0F, size: 0x8, addend: 0x0, symName: __ZNSt3__112basic_stringIcNS_11char_traitsIcEENS_9allocatorIcEEE10__align_itB8ne180100ILm8EEEmm, symObjAddr: 0x31F0, symBinAddr: 0x10000FA6C, symSize: 0x1C }
  - { offset: 0x36F3D, size: 0x8, addend: 0x0, symName: __ZNSt3__19allocatorIcE8allocateB8ne180100Em, symObjAddr: 0x320C, symBinAddr: 0x10000FA88, symSize: 0x58 }
  - { offset: 0x36F71, size: 0x8, addend: 0x0, symName: __ZNSt3__117__compressed_pairINS_12basic_stringIcNS_11char_traitsIcEENS_9allocatorIcEEE5__repES5_E6secondB8ne180100Ev, symObjAddr: 0x3368, symBinAddr: 0x10000FAE0, symSize: 0x24 }
  - { offset: 0x36F97, size: 0x8, addend: 0x0, symName: __ZNSt3__122__compressed_pair_elemINS_9allocatorIcEELi1ELb1EE5__getB8ne180100Ev, symObjAddr: 0x338C, symBinAddr: 0x10000FB04, symSize: 0x14 }
  - { offset: 0x36FE0, size: 0x8, addend: 0x0, symName: __ZNKSt3__114__copy_trivialclB8ne180100IKccLi0EEENS_4pairIPT_PT0_EES5_S5_S7_, symObjAddr: 0x3600, symBinAddr: 0x10000FD14, symSize: 0x48 }
  - { offset: 0x37061, size: 0x8, addend: 0x0, symName: __ZNSt3__119__unwrap_range_implIPKcS2_E8__unwrapB8ne180100ES2_S2_, symObjAddr: 0x370C, symBinAddr: 0x10000FE20, symSize: 0x58 }
  - { offset: 0x37097, size: 0x8, addend: 0x0, symName: __ZNSt3__14pairIPKcS2_EC1B8ne180100IS2_S2_Li0EEEOT_OT0_, symObjAddr: 0x3788, symBinAddr: 0x10000FE9C, symSize: 0x3C }
  - { offset: 0x370F5, size: 0x8, addend: 0x0, symName: __ZNSt3__118__unwrap_iter_implIPKcLb1EE8__unwrapB8ne180100ES2_, symObjAddr: 0x37C4, symBinAddr: 0x10000FED8, symSize: 0x24 }
  - { offset: 0x37118, size: 0x8, addend: 0x0, symName: __ZNSt3__14pairIPKcS2_EC2B8ne180100IS2_S2_Li0EEEOT_OT0_, symObjAddr: 0x37E8, symBinAddr: 0x10000FEFC, symSize: 0x34 }
  - { offset: 0x37180, size: 0x8, addend: 0x0, symName: __ZNSt3__14pairIPKcPcEC1B8ne180100IRS2_S3_Li0EEEOT_OT0_, symObjAddr: 0x3930, symBinAddr: 0x100010044, symSize: 0x3C }
  - { offset: 0x371DE, size: 0x8, addend: 0x0, symName: __ZNSt3__14pairIPKcPcEC2B8ne180100IRS2_S3_Li0EEEOT_OT0_, symObjAddr: 0x396C, symBinAddr: 0x100010080, symSize: 0x34 }
  - { offset: 0x3723C, size: 0x8, addend: 0x0, symName: __ZNSt3__118__unwrap_iter_implIPcLb1EE8__unwrapB8ne180100ES1_, symObjAddr: 0x39A0, symBinAddr: 0x1000100B4, symSize: 0x24 }
  - { offset: 0x3725F, size: 0x8, addend: 0x0, symName: __ZNSt3__14pairIPKcPcEC1B8ne180100IS2_S3_Li0EEEOT_OT0_, symObjAddr: 0x39C4, symBinAddr: 0x1000100D8, symSize: 0x3C }
  - { offset: 0x372BD, size: 0x8, addend: 0x0, symName: __ZNSt3__14pairIPKcPcEC2B8ne180100IS2_S3_Li0EEEOT_OT0_, symObjAddr: 0x3A00, symBinAddr: 0x100010114, symSize: 0x34 }
  - { offset: 0x3731B, size: 0x8, addend: 0x0, symName: __ZNSt3__119__unwrap_range_implIPKcS2_E8__rewrapB8ne180100ES2_S2_, symObjAddr: 0x3A34, symBinAddr: 0x100010148, symSize: 0x2C }
  - { offset: 0x3734C, size: 0x8, addend: 0x0, symName: __ZNSt3__118__unwrap_iter_implIPKcLb1EE8__rewrapB8ne180100ES2_S2_, symObjAddr: 0x3A9C, symBinAddr: 0x1000101B0, symSize: 0x48 }
  - { offset: 0x3737D, size: 0x8, addend: 0x0, symName: __ZNSt3__118__unwrap_iter_implIPcLb1EE8__rewrapB8ne180100ES1_S1_, symObjAddr: 0x3AE4, symBinAddr: 0x1000101F8, symSize: 0x48 }
  - { offset: 0x373AE, size: 0x8, addend: 0x0, symName: __ZNSt3__16vectorIiNS_9allocatorIiEEE11__make_iterB8ne180100EPi, symObjAddr: 0x3BE8, symBinAddr: 0x1000102FC, symSize: 0x30 }
  - { offset: 0x373E3, size: 0x8, addend: 0x0, symName: __ZNSt3__111__wrap_iterIPiEC1B8ne180100ES1_, symObjAddr: 0x3C18, symBinAddr: 0x10001032C, symSize: 0x34 }
  - { offset: 0x3741B, size: 0x8, addend: 0x0, symName: __ZNSt3__111__wrap_iterIPiEC2B8ne180100ES1_, symObjAddr: 0x3C4C, symBinAddr: 0x100010360, symSize: 0x20 }
  - { offset: 0x37453, size: 0x8, addend: 0x0, symName: __ZNKSt3__111__wrap_iterIPiE4baseB8ne180100Ev, symObjAddr: 0x3CB4, symBinAddr: 0x1000103C8, symSize: 0x18 }
  - { offset: 0x37497, size: 0x8, addend: 0x0, symName: __ZNKSt3__16chrono10time_pointINS0_12steady_clockENS0_8durationIxNS_5ratioILl1ELl1000000000EEEEEE16time_since_epochB8ne180100Ev, symObjAddr: 0x41EC, symBinAddr: 0x10001044C, symSize: 0x20 }
  - { offset: 0x374BD, size: 0x8, addend: 0x0, symName: __ZNKSt3__16chrono8durationIxNS_5ratioILl1ELl1000000000EEEE5countB8ne180100Ev, symObjAddr: 0x420C, symBinAddr: 0x10001046C, symSize: 0x18 }
  - { offset: 0x374E8, size: 0x8, addend: 0x0, symName: __ZNSt3__16chrono8durationIxNS_5ratioILl1ELl1000000000EEEEC1B8ne180100IxLi0EEERKT_, symObjAddr: 0x4224, symBinAddr: 0x100010484, symSize: 0x34 }
  - { offset: 0x3752F, size: 0x8, addend: 0x0, symName: __ZNSt3__16chrono8durationIxNS_5ratioILl1ELl1000000000EEEEC2B8ne180100IxLi0EEERKT_, symObjAddr: 0x4258, symBinAddr: 0x1000104B8, symSize: 0x24 }
  - { offset: 0x37576, size: 0x8, addend: 0x0, symName: __ZNSt3__16chrono8durationIdNS_5ratioILl1ELl1EEEEC2B8ne180100IxNS2_ILl1ELl1000000000EEELi0EEERKNS1_IT_T0_EE, symObjAddr: 0x427C, symBinAddr: 0x1000104DC, symSize: 0x44 }
  - { offset: 0x375D0, size: 0x8, addend: 0x0, symName: __ZNSt3__16chrono8durationIdNS_5ratioILl1ELl1EEEEC1B8ne180100IdLi0EEERKT_, symObjAddr: 0x433C, symBinAddr: 0x10001059C, symSize: 0x34 }
  - { offset: 0x37617, size: 0x8, addend: 0x0, symName: __ZNSt3__16chrono8durationIdNS_5ratioILl1ELl1EEEEC2B8ne180100IdLi0EEERKT_, symObjAddr: 0x4370, symBinAddr: 0x1000105D0, symSize: 0x24 }
  - { offset: 0x3765E, size: 0x8, addend: 0x0, symName: __ZNSt3__16vectorINS_4pairIixEENS_9allocatorIS2_EEEC2B8ne180100Ev, symObjAddr: 0x4740, symBinAddr: 0x1000105F4, symSize: 0x4C }
  - { offset: 0x3768D, size: 0x8, addend: 0x0, symName: __ZNSt3__117__compressed_pairIPNS_4pairIixEENS_9allocatorIS2_EEEC1B8ne180100IDnNS_18__default_init_tagEEEOT_OT0_, symObjAddr: 0x478C, symBinAddr: 0x100010640, symSize: 0x3C }
  - { offset: 0x376E5, size: 0x8, addend: 0x0, symName: __ZNSt3__117__compressed_pairIPNS_4pairIixEENS_9allocatorIS2_EEEC2B8ne180100IDnNS_18__default_init_tagEEEOT_OT0_, symObjAddr: 0x47C8, symBinAddr: 0x10001067C, symSize: 0x40 }
  - { offset: 0x3773D, size: 0x8, addend: 0x0, symName: __ZNSt3__122__compressed_pair_elemIPNS_4pairIixEELi0ELb0EEC2B8ne180100IDnvEEOT_, symObjAddr: 0x4808, symBinAddr: 0x1000106BC, symSize: 0x1C }
  - { offset: 0x3777F, size: 0x8, addend: 0x0, symName: __ZNSt3__122__compressed_pair_elemINS_9allocatorINS_4pairIixEEEELi1ELb1EEC2B8ne180100ENS_18__default_init_tagE, symObjAddr: 0x4824, symBinAddr: 0x1000106D8, symSize: 0x2C }
  - { offset: 0x377B3, size: 0x8, addend: 0x0, symName: __ZNSt3__19allocatorINS_4pairIixEEEC2B8ne180100Ev, symObjAddr: 0x4850, symBinAddr: 0x100010704, symSize: 0x2C }
  - { offset: 0x377DD, size: 0x8, addend: 0x0, symName: __ZNSt3__116__non_trivial_ifILb1ENS_9allocatorINS_4pairIixEEEEEC2B8ne180100Ev, symObjAddr: 0x487C, symBinAddr: 0x100010730, symSize: 0x14 }
  - { offset: 0x37807, size: 0x8, addend: 0x0, symName: __ZNSt3__16vectorINS_4pairIiiEENS_9allocatorIS2_EEE11__make_iterB8ne180100EPS2_, symObjAddr: 0x4890, symBinAddr: 0x100010744, symSize: 0x30 }
  - { offset: 0x3783C, size: 0x8, addend: 0x0, symName: __ZNSt3__111__wrap_iterIPNS_4pairIiiEEEC1B8ne180100ES3_, symObjAddr: 0x48C0, symBinAddr: 0x100010774, symSize: 0x34 }
  - { offset: 0x37874, size: 0x8, addend: 0x0, symName: __ZNSt3__111__wrap_iterIPNS_4pairIiiEEEC2B8ne180100ES3_, symObjAddr: 0x48F4, symBinAddr: 0x1000107A8, symSize: 0x20 }
  - { offset: 0x378AC, size: 0x8, addend: 0x0, symName: __ZNKSt3__111__wrap_iterIPNS_4pairIiiEEE4baseB8ne180100Ev, symObjAddr: 0x495C, symBinAddr: 0x100010810, symSize: 0x18 }
  - { offset: 0x378D2, size: 0x8, addend: 0x0, symName: __ZNSt3__16vectorINS_4pairIixEENS_9allocatorIS2_EEE9__end_capB8ne180100Ev, symObjAddr: 0x4974, symBinAddr: 0x100010828, symSize: 0x28 }
  - { offset: 0x378F8, size: 0x8, addend: 0x0, symName: __ZNSt3__16vectorINS_4pairIixEENS_9allocatorIS2_EEE22__construct_one_at_endB8ne180100IJRKS2_EEEvDpOT_, symObjAddr: 0x499C, symBinAddr: 0x100010850, symSize: 0x90 }
  - { offset: 0x37946, size: 0x8, addend: 0x0, symName: __ZNSt3__16vectorINS_4pairIixEENS_9allocatorIS2_EEE21__push_back_slow_pathIRKS2_EEPS2_OT_, symObjAddr: 0x4A2C, symBinAddr: 0x1000108E0, symSize: 0xE8 }
  - { offset: 0x379A4, size: 0x8, addend: 0x0, symName: __ZNSt3__117__compressed_pairIPNS_4pairIixEENS_9allocatorIS2_EEE5firstB8ne180100Ev, symObjAddr: 0x4B14, symBinAddr: 0x1000109C8, symSize: 0x24 }
  - { offset: 0x379CA, size: 0x8, addend: 0x0, symName: __ZNSt3__122__compressed_pair_elemIPNS_4pairIixEELi0ELb0EE5__getB8ne180100Ev, symObjAddr: 0x4B38, symBinAddr: 0x1000109EC, symSize: 0x14 }
  - { offset: 0x37A09, size: 0x8, addend: 0x0, symName: __ZNSt3__16vectorINS_4pairIixEENS_9allocatorIS2_EEE21_ConstructTransactionC1B8ne180100ERS5_m, symObjAddr: 0x4B4C, symBinAddr: 0x100010A00, symSize: 0x3C }
  - { offset: 0x37A51, size: 0x8, addend: 0x0, symName: __ZNSt3__116allocator_traitsINS_9allocatorINS_4pairIixEEEEE9constructB8ne180100IS3_JRKS3_EvvEEvRS4_PT_DpOT0_, symObjAddr: 0x4B88, symBinAddr: 0x100010A3C, symSize: 0x30 }
  - { offset: 0x37AA6, size: 0x8, addend: 0x0, symName: __ZNSt3__16vectorINS_4pairIixEENS_9allocatorIS2_EEE7__allocB8ne180100Ev, symObjAddr: 0x4BB8, symBinAddr: 0x100010A6C, symSize: 0x28 }
  - { offset: 0x37ACC, size: 0x8, addend: 0x0, symName: __ZNSt3__16vectorINS_4pairIixEENS_9allocatorIS2_EEE21_ConstructTransactionD1B8ne180100Ev, symObjAddr: 0x4BF4, symBinAddr: 0x100010AA8, symSize: 0x2C }
  - { offset: 0x37AF6, size: 0x8, addend: 0x0, symName: __ZNSt3__16vectorINS_4pairIixEENS_9allocatorIS2_EEE21_ConstructTransactionC2B8ne180100ERS5_m, symObjAddr: 0x4C20, symBinAddr: 0x100010AD4, symSize: 0x44 }
  - { offset: 0x37B3E, size: 0x8, addend: 0x0, symName: __ZNSt3__117__compressed_pairIPNS_4pairIixEENS_9allocatorIS2_EEE6secondB8ne180100Ev, symObjAddr: 0x4CB4, symBinAddr: 0x100010B68, symSize: 0x24 }
  - { offset: 0x37B64, size: 0x8, addend: 0x0, symName: __ZNSt3__122__compressed_pair_elemINS_9allocatorINS_4pairIixEEEELi1ELb1EE5__getB8ne180100Ev, symObjAddr: 0x4CD8, symBinAddr: 0x100010B8C, symSize: 0x14 }
  - { offset: 0x37B8A, size: 0x8, addend: 0x0, symName: __ZNSt3__16vectorINS_4pairIixEENS_9allocatorIS2_EEE21_ConstructTransactionD2B8ne180100Ev, symObjAddr: 0x4CEC, symBinAddr: 0x100010BA0, symSize: 0x20 }
  - { offset: 0x37BB3, size: 0x8, addend: 0x0, symName: __ZNKSt3__16vectorINS_4pairIixEENS_9allocatorIS2_EEE11__recommendB8ne180100Em, symObjAddr: 0x4D0C, symBinAddr: 0x100010BC0, symSize: 0xB4 }
  - { offset: 0x37C08, size: 0x8, addend: 0x0, symName: __ZNKSt3__16vectorINS_4pairIixEENS_9allocatorIS2_EEE4sizeB8ne180100Ev, symObjAddr: 0x4DC0, symBinAddr: 0x100010C74, symSize: 0x28 }
  - { offset: 0x37C2E, size: 0x8, addend: 0x0, symName: __ZNSt3__114__split_bufferINS_4pairIixEERNS_9allocatorIS2_EEEC1EmmS5_, symObjAddr: 0x4DE8, symBinAddr: 0x100010C9C, symSize: 0x44 }
  - { offset: 0x37C84, size: 0x8, addend: 0x0, symName: __ZNSt3__114__split_bufferINS_4pairIixEERNS_9allocatorIS2_EEED1Ev, symObjAddr: 0x4F3C, symBinAddr: 0x100010DF0, symSize: 0x2C }
  - { offset: 0x37CAF, size: 0x8, addend: 0x0, symName: __ZNKSt3__16vectorINS_4pairIixEENS_9allocatorIS2_EEE8max_sizeEv, symObjAddr: 0x4F68, symBinAddr: 0x100010E1C, symSize: 0x60 }
  - { offset: 0x37CD7, size: 0x8, addend: 0x0, symName: __ZNKSt3__16vectorINS_4pairIixEENS_9allocatorIS2_EEE20__throw_length_errorB8ne180100Ev, symObjAddr: 0x4FC8, symBinAddr: 0x100010E7C, symSize: 0x1C }
  - { offset: 0x37CFD, size: 0x8, addend: 0x0, symName: __ZNKSt3__16vectorINS_4pairIixEENS_9allocatorIS2_EEE8capacityB8ne180100Ev, symObjAddr: 0x4FE4, symBinAddr: 0x100010E98, symSize: 0x40 }
  - { offset: 0x37D2D, size: 0x8, addend: 0x0, symName: __ZNSt3__116allocator_traitsINS_9allocatorINS_4pairIixEEEEE8max_sizeB8ne180100IS4_vvEEmRKS4_, symObjAddr: 0x5050, symBinAddr: 0x100010ED8, symSize: 0x28 }
  - { offset: 0x37D59, size: 0x8, addend: 0x0, symName: __ZNKSt3__16vectorINS_4pairIixEENS_9allocatorIS2_EEE7__allocB8ne180100Ev, symObjAddr: 0x5078, symBinAddr: 0x100010F00, symSize: 0x28 }
  - { offset: 0x37D7F, size: 0x8, addend: 0x0, symName: __ZNKSt3__117__compressed_pairIPNS_4pairIixEENS_9allocatorIS2_EEE6secondB8ne180100Ev, symObjAddr: 0x50B4, symBinAddr: 0x100010F28, symSize: 0x24 }
  - { offset: 0x37DA5, size: 0x8, addend: 0x0, symName: __ZNKSt3__122__compressed_pair_elemINS_9allocatorINS_4pairIixEEEELi1ELb1EE5__getB8ne180100Ev, symObjAddr: 0x50D8, symBinAddr: 0x100010F4C, symSize: 0x14 }
  - { offset: 0x37DCB, size: 0x8, addend: 0x0, symName: __ZNKSt3__16vectorINS_4pairIixEENS_9allocatorIS2_EEE9__end_capB8ne180100Ev, symObjAddr: 0x50F4, symBinAddr: 0x100010F60, symSize: 0x28 }
  - { offset: 0x37DF1, size: 0x8, addend: 0x0, symName: __ZNKSt3__117__compressed_pairIPNS_4pairIixEENS_9allocatorIS2_EEE5firstB8ne180100Ev, symObjAddr: 0x511C, symBinAddr: 0x100010F88, symSize: 0x24 }
  - { offset: 0x37E17, size: 0x8, addend: 0x0, symName: __ZNKSt3__122__compressed_pair_elemIPNS_4pairIixEELi0ELb0EE5__getB8ne180100Ev, symObjAddr: 0x5140, symBinAddr: 0x100010FAC, symSize: 0x14 }
  - { offset: 0x37E3D, size: 0x8, addend: 0x0, symName: __ZNSt3__114__split_bufferINS_4pairIixEERNS_9allocatorIS2_EEEC2EmmS5_, symObjAddr: 0x51A8, symBinAddr: 0x100010FC0, symSize: 0xD4 }
  - { offset: 0x37EB0, size: 0x8, addend: 0x0, symName: __ZNSt3__117__compressed_pairIPNS_4pairIixEERNS_9allocatorIS2_EEEC1B8ne180100IDnS6_EEOT_OT0_, symObjAddr: 0x527C, symBinAddr: 0x100011094, symSize: 0x3C }
  - { offset: 0x37F08, size: 0x8, addend: 0x0, symName: __ZNSt3__114__split_bufferINS_4pairIixEERNS_9allocatorIS2_EEE7__allocB8ne180100Ev, symObjAddr: 0x52F8, symBinAddr: 0x100011110, symSize: 0x28 }
  - { offset: 0x37F2E, size: 0x8, addend: 0x0, symName: __ZNSt3__114__split_bufferINS_4pairIixEERNS_9allocatorIS2_EEE9__end_capB8ne180100Ev, symObjAddr: 0x5320, symBinAddr: 0x100011138, symSize: 0x28 }
  - { offset: 0x37F54, size: 0x8, addend: 0x0, symName: __ZNSt3__117__compressed_pairIPNS_4pairIixEERNS_9allocatorIS2_EEEC2B8ne180100IDnS6_EEOT_OT0_, symObjAddr: 0x5348, symBinAddr: 0x100011160, symSize: 0x48 }
  - { offset: 0x37FAC, size: 0x8, addend: 0x0, symName: __ZNSt3__122__compressed_pair_elemIRNS_9allocatorINS_4pairIixEEEELi1ELb0EEC2B8ne180100IS5_vEEOT_, symObjAddr: 0x5390, symBinAddr: 0x1000111A8, symSize: 0x20 }
  - { offset: 0x37FEE, size: 0x8, addend: 0x0, symName: __ZNSt3__19allocatorINS_4pairIixEEE8allocateB8ne180100Em, symObjAddr: 0x53B0, symBinAddr: 0x1000111C8, symSize: 0x58 }
  - { offset: 0x38022, size: 0x8, addend: 0x0, symName: __ZNSt3__117__compressed_pairIPNS_4pairIixEERNS_9allocatorIS2_EEE6secondB8ne180100Ev, symObjAddr: 0x5408, symBinAddr: 0x100011220, symSize: 0x28 }
  - { offset: 0x38048, size: 0x8, addend: 0x0, symName: __ZNSt3__122__compressed_pair_elemIRNS_9allocatorINS_4pairIixEEEELi1ELb0EE5__getB8ne180100Ev, symObjAddr: 0x5430, symBinAddr: 0x100011248, symSize: 0x18 }
  - { offset: 0x3806E, size: 0x8, addend: 0x0, symName: __ZNSt3__117__compressed_pairIPNS_4pairIixEERNS_9allocatorIS2_EEE5firstB8ne180100Ev, symObjAddr: 0x5448, symBinAddr: 0x100011260, symSize: 0x24 }
  - { offset: 0x38094, size: 0x8, addend: 0x0, symName: __ZNKSt3__16vectorINS_4pairIixEENS_9allocatorIS2_EEE17__annotate_deleteB8ne180100Ev, symObjAddr: 0x546C, symBinAddr: 0x100011284, symSize: 0x10 }
  - { offset: 0x380BA, size: 0x8, addend: 0x0, symName: __ZNSt3__116reverse_iteratorIPNS_4pairIixEEEC1B8ne180100ES3_, symObjAddr: 0x55A8, symBinAddr: 0x1000113C0, symSize: 0x34 }
  - { offset: 0x380F2, size: 0x8, addend: 0x0, symName: __ZNKSt3__116reverse_iteratorIPNS_4pairIixEEE4baseB8ne180100Ev, symObjAddr: 0x55DC, symBinAddr: 0x1000113F4, symSize: 0x18 }
  - { offset: 0x38118, size: 0x8, addend: 0x0, symName: __ZNKSt3__16vectorINS_4pairIixEENS_9allocatorIS2_EEE14__annotate_newB8ne180100Em, symObjAddr: 0x5630, symBinAddr: 0x100011448, symSize: 0x14 }
  - { offset: 0x3814D, size: 0x8, addend: 0x0, symName: __ZNSt3__129_AllocatorDestroyRangeReverseINS_9allocatorINS_4pairIixEEEENS_16reverse_iteratorIPS3_EEEC1B8ne180100ERS4_RS7_SA_, symObjAddr: 0x5690, symBinAddr: 0x1000114A8, symSize: 0x44 }
  - { offset: 0x381A4, size: 0x8, addend: 0x0, symName: __ZNSt3__116allocator_traitsINS_9allocatorINS_4pairIixEEEEE9constructB8ne180100IS3_JS3_EvvEEvRS4_PT_DpOT0_, symObjAddr: 0x571C, symBinAddr: 0x100011534, symSize: 0x30 }
  - { offset: 0x381F9, size: 0x8, addend: 0x0, symName: __ZNKSt3__116reverse_iteratorIPNS_4pairIixEEEdeB8ne180100Ev, symObjAddr: 0x5770, symBinAddr: 0x100011588, symSize: 0x28 }
  - { offset: 0x3822D, size: 0x8, addend: 0x0, symName: __ZNSt3__116reverse_iteratorIPNS_4pairIixEEEppB8ne180100Ev, symObjAddr: 0x5798, symBinAddr: 0x1000115B0, symSize: 0x20 }
  - { offset: 0x38253, size: 0x8, addend: 0x0, symName: __ZNSt3__128__exception_guard_exceptionsINS_29_AllocatorDestroyRangeReverseINS_9allocatorINS_4pairIixEEEENS_16reverse_iteratorIPS4_EEEEE10__completeB8ne180100Ev, symObjAddr: 0x57B8, symBinAddr: 0x1000115D0, symSize: 0x1C }
  - { offset: 0x38279, size: 0x8, addend: 0x0, symName: __ZNSt3__128__exception_guard_exceptionsINS_29_AllocatorDestroyRangeReverseINS_9allocatorINS_4pairIixEEEENS_16reverse_iteratorIPS4_EEEEED1B8ne180100Ev, symObjAddr: 0x57D4, symBinAddr: 0x1000115EC, symSize: 0x2C }
  - { offset: 0x382A3, size: 0x8, addend: 0x0, symName: __ZNSt3__128__exception_guard_exceptionsINS_29_AllocatorDestroyRangeReverseINS_9allocatorINS_4pairIixEEEENS_16reverse_iteratorIPS4_EEEEEC1B8ne180100ES9_, symObjAddr: 0x5800, symBinAddr: 0x100011618, symSize: 0x34 }
  - { offset: 0x382DC, size: 0x8, addend: 0x0, symName: __ZNSt3__128__exception_guard_exceptionsINS_29_AllocatorDestroyRangeReverseINS_9allocatorINS_4pairIixEEEENS_16reverse_iteratorIPS4_EEEEEC2B8ne180100ES9_, symObjAddr: 0x5834, symBinAddr: 0x10001164C, symSize: 0x30 }
  - { offset: 0x38315, size: 0x8, addend: 0x0, symName: __ZNSt3__129_AllocatorDestroyRangeReverseINS_9allocatorINS_4pairIixEEEENS_16reverse_iteratorIPS3_EEEC2B8ne180100ERS4_RS7_SA_, symObjAddr: 0x5864, symBinAddr: 0x10001167C, symSize: 0x38 }
  - { offset: 0x38371, size: 0x8, addend: 0x0, symName: __ZNSt3__119__to_address_helperINS_16reverse_iteratorIPNS_4pairIixEEEEvE6__callB8ne180100ERKS5_, symObjAddr: 0x58EC, symBinAddr: 0x100011704, symSize: 0x38 }
  - { offset: 0x38394, size: 0x8, addend: 0x0, symName: __ZNKSt3__116reverse_iteratorIPNS_4pairIixEEEptB8ne180100Ev, symObjAddr: 0x5924, symBinAddr: 0x10001173C, symSize: 0x2C }
  - { offset: 0x383BA, size: 0x8, addend: 0x0, symName: __ZNSt3__128__exception_guard_exceptionsINS_29_AllocatorDestroyRangeReverseINS_9allocatorINS_4pairIixEEEENS_16reverse_iteratorIPS4_EEEEED2B8ne180100Ev, symObjAddr: 0x5A00, symBinAddr: 0x100011804, symSize: 0x50 }
  - { offset: 0x383E4, size: 0x8, addend: 0x0, symName: __ZNKSt3__129_AllocatorDestroyRangeReverseINS_9allocatorINS_4pairIixEEEENS_16reverse_iteratorIPS3_EEEclB8ne180100Ev, symObjAddr: 0x5A50, symBinAddr: 0x100011854, symSize: 0xB4 }
  - { offset: 0x3840B, size: 0x8, addend: 0x0, symName: __ZNSt3__116reverse_iteratorINS0_IPNS_4pairIixEEEEEC1B8ne180100ES4_, symObjAddr: 0x5B74, symBinAddr: 0x100011978, symSize: 0x3C }
  - { offset: 0x38443, size: 0x8, addend: 0x0, symName: __ZNSt3__116allocator_traitsINS_9allocatorINS_4pairIixEEEEE7destroyB8ne180100IS3_vvEEvRS4_PT_, symObjAddr: 0x5C10, symBinAddr: 0x100011A14, symSize: 0x28 }
  - { offset: 0x3847E, size: 0x8, addend: 0x0, symName: __ZNSt3__116reverse_iteratorINS0_IPNS_4pairIixEEEEEppB8ne180100Ev, symObjAddr: 0x5C5C, symBinAddr: 0x100011A60, symSize: 0x30 }
  - { offset: 0x384A4, size: 0x8, addend: 0x0, symName: __ZNKSt3__116reverse_iteratorINS0_IPNS_4pairIixEEEEE4baseB8ne180100Ev, symObjAddr: 0x5C8C, symBinAddr: 0x100011A90, symSize: 0x24 }
  - { offset: 0x384CF, size: 0x8, addend: 0x0, symName: __ZNSt3__119__to_address_helperINS_16reverse_iteratorINS1_IPNS_4pairIixEEEEEEvE6__callB8ne180100ERKS6_, symObjAddr: 0x5CC0, symBinAddr: 0x100011AC4, symSize: 0x38 }
  - { offset: 0x384F2, size: 0x8, addend: 0x0, symName: __ZNKSt3__116reverse_iteratorINS0_IPNS_4pairIixEEEEEptB8ne180100Ev, symObjAddr: 0x5CF8, symBinAddr: 0x100011AFC, symSize: 0x4C }
  - { offset: 0x38518, size: 0x8, addend: 0x0, symName: __ZNSt3__116reverse_iteratorIPNS_4pairIixEEEpLB8ne180100El, symObjAddr: 0x5DF4, symBinAddr: 0x100011BF8, symSize: 0x30 }
  - { offset: 0x3854C, size: 0x8, addend: 0x0, symName: __ZNSt3__116reverse_iteratorIPNS_4pairIixEEEmmB8ne180100Ev, symObjAddr: 0x5E24, symBinAddr: 0x100011C28, symSize: 0x20 }
  - { offset: 0x38572, size: 0x8, addend: 0x0, symName: __ZNSt3__116reverse_iteratorINS0_IPNS_4pairIixEEEEEC2B8ne180100ES4_, symObjAddr: 0x5E44, symBinAddr: 0x100011C48, symSize: 0x2C }
  - { offset: 0x385AA, size: 0x8, addend: 0x0, symName: __ZNSt3__116reverse_iteratorIPNS_4pairIixEEEC2B8ne180100ES3_, symObjAddr: 0x5E70, symBinAddr: 0x100011C74, symSize: 0x28 }
  - { offset: 0x385E2, size: 0x8, addend: 0x0, symName: __ZNSt3__114__split_bufferINS_4pairIixEERNS_9allocatorIS2_EEED2Ev, symObjAddr: 0x5E98, symBinAddr: 0x100011C9C, symSize: 0x8C }
  - { offset: 0x3860E, size: 0x8, addend: 0x0, symName: __ZNSt3__114__split_bufferINS_4pairIixEERNS_9allocatorIS2_EEE5clearB8ne180100Ev, symObjAddr: 0x5F24, symBinAddr: 0x100011D28, symSize: 0x28 }
  - { offset: 0x38634, size: 0x8, addend: 0x0, symName: __ZNSt3__116allocator_traitsINS_9allocatorINS_4pairIixEEEEE10deallocateB8ne180100ERS4_PS3_m, symObjAddr: 0x5F4C, symBinAddr: 0x100011D50, symSize: 0x34 }
  - { offset: 0x38676, size: 0x8, addend: 0x0, symName: __ZNKSt3__114__split_bufferINS_4pairIixEERNS_9allocatorIS2_EEE8capacityB8ne180100Ev, symObjAddr: 0x5F80, symBinAddr: 0x100011D84, symSize: 0x40 }
  - { offset: 0x3869C, size: 0x8, addend: 0x0, symName: __ZNSt3__114__split_bufferINS_4pairIixEERNS_9allocatorIS2_EEE17__destruct_at_endB8ne180100EPS2_, symObjAddr: 0x5FC0, symBinAddr: 0x100011DC4, symSize: 0x2C }
  - { offset: 0x386CF, size: 0x8, addend: 0x0, symName: __ZNSt3__114__split_bufferINS_4pairIixEERNS_9allocatorIS2_EEE17__destruct_at_endB8ne180100EPS2_NS_17integral_constantIbLb0EEE, symObjAddr: 0x5FEC, symBinAddr: 0x100011DF0, symSize: 0x80 }
  - { offset: 0x3870F, size: 0x8, addend: 0x0, symName: __ZNSt3__19allocatorINS_4pairIixEEE10deallocateB8ne180100EPS2_m, symObjAddr: 0x606C, symBinAddr: 0x100011E70, symSize: 0x40 }
  - { offset: 0x38751, size: 0x8, addend: 0x0, symName: __ZNKSt3__114__split_bufferINS_4pairIixEERNS_9allocatorIS2_EEE9__end_capB8ne180100Ev, symObjAddr: 0x60AC, symBinAddr: 0x100011EB0, symSize: 0x28 }
  - { offset: 0x38777, size: 0x8, addend: 0x0, symName: __ZNKSt3__117__compressed_pairIPNS_4pairIixEERNS_9allocatorIS2_EEE5firstB8ne180100Ev, symObjAddr: 0x60D4, symBinAddr: 0x100011ED8, symSize: 0x24 }
  - { offset: 0x3879D, size: 0x8, addend: 0x0, symName: __ZNSt3__16vectorINS_4pairIixEENS_9allocatorIS2_EEED2B8ne180100Ev, symObjAddr: 0x60F8, symBinAddr: 0x100011EFC, symSize: 0x44 }
  - { offset: 0x387C7, size: 0x8, addend: 0x0, symName: __ZNSt3__16vectorINS_4pairIixEENS_9allocatorIS2_EEE16__destroy_vectorC1B8ne180100ERS5_, symObjAddr: 0x613C, symBinAddr: 0x100011F40, symSize: 0x34 }
  - { offset: 0x38800, size: 0x8, addend: 0x0, symName: __ZNSt3__16vectorINS_4pairIixEENS_9allocatorIS2_EEE16__destroy_vectorclB8ne180100Ev, symObjAddr: 0x6170, symBinAddr: 0x100011F74, symSize: 0x90 }
  - { offset: 0x38826, size: 0x8, addend: 0x0, symName: __ZNSt3__16vectorINS_4pairIixEENS_9allocatorIS2_EEE16__destroy_vectorC2B8ne180100ERS5_, symObjAddr: 0x6200, symBinAddr: 0x100012004, symSize: 0x20 }
  - { offset: 0x3885F, size: 0x8, addend: 0x0, symName: __ZNSt3__16vectorINS_4pairIixEENS_9allocatorIS2_EEE7__clearB8ne180100Ev, symObjAddr: 0x6220, symBinAddr: 0x100012024, symSize: 0x28 }
  - { offset: 0x38885, size: 0x8, addend: 0x0, symName: __ZNSt3__16vectorINS_4pairIixEENS_9allocatorIS2_EEE22__base_destruct_at_endB8ne180100EPS2_, symObjAddr: 0x6248, symBinAddr: 0x10001204C, symSize: 0x8C }
  - { offset: 0x388E7, size: 0x8, addend: 0x0, symName: __ZNSt3__19basic_iosIcNS_11char_traitsIcEEEC2B8ne180100Ev, symObjAddr: 0x6ED4, symBinAddr: 0x1000120D8, symSize: 0x3C }
  - { offset: 0x38911, size: 0x8, addend: 0x0, symName: __ZNSt3__113basic_ostreamIcNS_11char_traitsIcEEEC2B8ne180100EPNS_15basic_streambufIcS2_EE, symObjAddr: 0x6F10, symBinAddr: 0x100012114, symSize: 0x60 }
  - { offset: 0x38955, size: 0x8, addend: 0x0, symName: __ZNSt3__113basic_filebufIcNS_11char_traitsIcEEE4openERKNS_12basic_stringIcS2_NS_9allocatorIcEEEEj, symObjAddr: 0x6F70, symBinAddr: 0x100012174, symSize: 0x44 }
  - { offset: 0x3899B, size: 0x8, addend: 0x0, symName: __ZNSt3__18ios_baseC2B8ne180100Ev, symObjAddr: 0x6FB4, symBinAddr: 0x1000121B8, symSize: 0x24 }
  - { offset: 0x389C4, size: 0x8, addend: 0x0, symName: __ZNSt3__19basic_iosIcNS_11char_traitsIcEEE4initB8ne180100EPNS_15basic_streambufIcS2_EE, symObjAddr: 0x6FD8, symBinAddr: 0x1000121DC, symSize: 0x44 }
  - { offset: 0x389FB, size: 0x8, addend: 0x0, symName: __ZNKSt3__112basic_stringIcNS_11char_traitsIcEENS_9allocatorIcEEE5c_strB8ne180100Ev, symObjAddr: 0x701C, symBinAddr: 0x100012220, symSize: 0x24 }
  - { offset: 0x38A21, size: 0x8, addend: 0x0, symName: __ZNKSt3__113basic_filebufIcNS_11char_traitsIcEEE7is_openEv, symObjAddr: 0x7040, symBinAddr: 0x100012244, symSize: 0x24 }
  - { offset: 0x38A49, size: 0x8, addend: 0x0, symName: __ZNSt3__18ios_base9precisionB8ne180100El, symObjAddr: 0x7064, symBinAddr: 0x100012268, symSize: 0x2C }
  - { offset: 0x49075, size: 0x8, addend: 0x0, symName: __ZNSt3__17advanceB8ne180100INS_16reverse_iteratorIPNS_4pairIiNS2_IiiEEEEEEllvEEvRT_T0_, symObjAddr: 0x4698, symBinAddr: 0x1000155B8, symSize: 0x38 }
  - { offset: 0x49412, size: 0x8, addend: 0x0, symName: __ZNSt3__17advanceB8ne180100IPNS_5tupleIJiiiEEEllvEEvRT_T0_, symObjAddr: 0x7568, symBinAddr: 0x100017180, symSize: 0x38 }
  - { offset: 0x49692, size: 0x8, addend: 0x0, symName: __ZNSt3__17advanceB8ne180100INS_16reverse_iteratorIPNS_5tupleIJiiiEEEEEllvEEvRT_T0_, symObjAddr: 0x7928, symBinAddr: 0x100017540, symSize: 0x38 }
  - { offset: 0x4BFCF, size: 0x8, addend: 0x0, symName: __ZNSt3__17getlineB8ne180100IcNS_11char_traitsIcEENS_9allocatorIcEEEERNS_13basic_istreamIT_T0_EES9_RNS_12basic_stringIS6_S7_T1_EE, symObjAddr: 0x190, symBinAddr: 0x1000123F8, symSize: 0x5C }
  - { offset: 0x4C027, size: 0x8, addend: 0x0, symName: __ZNSt3__1neB8ne180100IPNS_5tupleIJiiiEEEEEbRKNS_11__wrap_iterIT_EES8_, symObjAddr: 0xC78, symBinAddr: 0x100012E7C, symSize: 0x34 }
  - { offset: 0x4C06A, size: 0x8, addend: 0x0, symName: __ZNSt3__13getB8ne180100ILm0EJiiiEEERKNS_13tuple_elementIXT_ENS_5tupleIJDpT0_EEEE4typeERKS5_, symObjAddr: 0xCC4, symBinAddr: 0x100012EC8, symSize: 0x24 }
  - { offset: 0x4C0B7, size: 0x8, addend: 0x0, symName: __ZNSt3__13getB8ne180100ILm1EJiiiEEERKNS_13tuple_elementIXT_ENS_5tupleIJDpT0_EEEE4typeERKS5_, symObjAddr: 0xCE8, symBinAddr: 0x100012EEC, symSize: 0x28 }
  - { offset: 0x4C104, size: 0x8, addend: 0x0, symName: __ZNSt3__13getB8ne180100ILm2EJiiiEEERKNS_13tuple_elementIXT_ENS_5tupleIJDpT0_EEEE4typeERKS5_, symObjAddr: 0xD10, symBinAddr: 0x100012F14, symSize: 0x28 }
  - { offset: 0x4D1CE, size: 0x8, addend: 0x0, symName: __ZNSt3__1rsB8ne180100IcNS_11char_traitsIcEEEERNS_13basic_istreamIT_T0_EES7_RS4_, symObjAddr: 0x12F4, symBinAddr: 0x100013344, symSize: 0x18C }
  - { offset: 0x4D250, size: 0x8, addend: 0x0, symName: __ZNSt3__1rsB8ne180100IcNS_11char_traitsIcEENS_9allocatorIcEEEERNS_13basic_istreamIT_T0_EES9_RNS_12basic_stringIS6_S7_T1_EE, symObjAddr: 0x1480, symBinAddr: 0x1000134D0, symSize: 0x308 }
  - { offset: 0x4D31D, size: 0x8, addend: 0x0, symName: __ZNSt3__13maxB8ne180100IiEERKT_S3_S3_, symObjAddr: 0x1894, symBinAddr: 0x100013888, symSize: 0x2C }
  - { offset: 0x4D376, size: 0x8, addend: 0x0, symName: __ZNSt3__123__str_find_first_not_ofB8ne180100IcmNS_11char_traitsIcEELm18446744073709551615EEET0_PKT_S3_S6_S3_S3_, symObjAddr: 0x25E4, symBinAddr: 0x10001432C, symSize: 0xDC }
  - { offset: 0x4D448, size: 0x8, addend: 0x0, symName: __ZNSt3__118__constexpr_memchrB8ne180100IKccEEPT_S3_T0_m, symObjAddr: 0x27E0, symBinAddr: 0x100014478, symSize: 0x40 }
  - { offset: 0x4D4BE, size: 0x8, addend: 0x0, symName: __ZNSt3__122__str_find_last_not_ofB8ne180100IcmNS_11char_traitsIcEELm18446744073709551615EEET0_PKT_S3_S6_S3_S3_, symObjAddr: 0x29DC, symBinAddr: 0x1000144B8, symSize: 0xDC }
  - { offset: 0x4D573, size: 0x8, addend: 0x0, symName: __ZNSt3__1eqB8ne180100IPNS_5tupleIJiiiEEEEEbRKNS_11__wrap_iterIT_EES8_, symObjAddr: 0x2F88, symBinAddr: 0x100014854, symSize: 0x48 }
  - { offset: 0x4D5B6, size: 0x8, addend: 0x0, symName: __ZNSt3__114__construct_atB8ne180100INS_4pairIiNS1_IiiEEEEJS3_EPS3_EEPT_S6_DpOT0_, symObjAddr: 0x331C, symBinAddr: 0x100014A98, symSize: 0x2C }
  - { offset: 0x4D609, size: 0x8, addend: 0x0, symName: __ZNSt3__112construct_atB8ne180100INS_4pairIiNS1_IiiEEEEJS3_EPS3_EEPT_S6_DpOT0_, symObjAddr: 0x3348, symBinAddr: 0x100014AC4, symSize: 0x2C }
  - { offset: 0x4D6D2, size: 0x8, addend: 0x0, symName: __ZNSt3__142__uninitialized_allocator_move_if_noexceptB8ne180100INS_9allocatorINS_4pairIiNS2_IiiEEEEEENS_16reverse_iteratorIPS4_EES8_S8_EET2_RT_T0_T1_S9_, symObjAddr: 0x3DFC, symBinAddr: 0x100014F5C, symSize: 0x12C }
  - { offset: 0x4D772, size: 0x8, addend: 0x0, symName: __ZNSt3__14swapB8ne180100IPNS_4pairIiNS1_IiiEEEEEENS_9enable_ifIXaasr21is_move_constructibleIT_EE5valuesr18is_move_assignableIS6_EE5valueEvE4typeERS6_S9_, symObjAddr: 0x3F74, symBinAddr: 0x100015088, symSize: 0x3C }
  - { offset: 0x4D7C3, size: 0x8, addend: 0x0, symName: __ZNSt3__122__make_exception_guardB8ne180100INS_29_AllocatorDestroyRangeReverseINS_9allocatorINS_4pairIiNS3_IiiEEEEEENS_16reverse_iteratorIPS5_EEEEEENS_28__exception_guard_exceptionsIT_EESC_, symObjAddr: 0x3FC4, symBinAddr: 0x1000150C4, symSize: 0x4C }
  - { offset: 0x4D7F9, size: 0x8, addend: 0x0, symName: __ZNSt3__119__allocator_destroyB8ne180100INS_9allocatorINS_4pairIiNS2_IiiEEEEEENS_16reverse_iteratorINS6_IPS4_EEEES9_EEvRT_T0_T1_, symObjAddr: 0x440C, symBinAddr: 0x100015364, symSize: 0x70 }
  - { offset: 0x4D85E, size: 0x8, addend: 0x0, symName: __ZNSt3__1neB8ne180100INS_16reverse_iteratorIPNS_4pairIiNS2_IiiEEEEEES6_EEbRKNS1_IT_EERKNS1_IT0_EE, symObjAddr: 0x44B8, symBinAddr: 0x100015410, symSize: 0x60 }
  - { offset: 0x4D8AA, size: 0x8, addend: 0x0, symName: __ZNSt3__112__to_addressB8ne180100INS_16reverse_iteratorINS1_IPNS_4pairIiNS2_IiiEEEEEEEEvEEu7__decayIDTclsr19__to_address_helperIT_EE6__callclsr3stdE7declvalIRKS8_EEEEESA_, symObjAddr: 0x4540, symBinAddr: 0x100015470, symSize: 0x24 }
  - { offset: 0x4D909, size: 0x8, addend: 0x0, symName: __ZNSt3__14prevB8ne180100INS_16reverse_iteratorIPNS_4pairIiNS2_IiiEEEEEELi0EEET_S7_NS_15iterator_traitsIS7_E15difference_typeE, symObjAddr: 0x464C, symBinAddr: 0x10001556C, symSize: 0x4C }
  - { offset: 0x4D952, size: 0x8, addend: 0x0, symName: __ZNSt3__19__advanceB8ne180100INS_16reverse_iteratorIPNS_4pairIiNS2_IiiEEEEEEEEvRT_NS_15iterator_traitsIS7_E15difference_typeENS_26random_access_iterator_tagE, symObjAddr: 0x46D0, symBinAddr: 0x1000155F0, symSize: 0x2C }
  - { offset: 0x4D99B, size: 0x8, addend: 0x0, symName: __ZNSt3__112__to_addressB8ne180100INS_5tupleIJiiiEEEEEPT_S4_, symObjAddr: 0x5B34, symBinAddr: 0x100015BC4, symSize: 0x14 }
  - { offset: 0x4D9D0, size: 0x8, addend: 0x0, symName: __ZNSt3__112__destroy_atB8ne180100INS_5tupleIJiiiEEELi0EEEvPT_, symObjAddr: 0x5B48, symBinAddr: 0x100015BD8, symSize: 0x10 }
  - { offset: 0x4DA07, size: 0x8, addend: 0x0, symName: __ZNSt3__114__construct_atB8ne180100INS_5tupleIJiiiEEEJRiS3_S3_EPS2_EEPT_S6_DpOT0_, symObjAddr: 0x6810, symBinAddr: 0x100016428, symSize: 0x3C }
  - { offset: 0x4DA80, size: 0x8, addend: 0x0, symName: __ZNSt3__112construct_atB8ne180100INS_5tupleIJiiiEEEJRiS3_S3_EPS2_EEPT_S6_DpOT0_, symObjAddr: 0x684C, symBinAddr: 0x100016464, symSize: 0x44 }
  - { offset: 0x4DB33, size: 0x8, addend: 0x0, symName: __ZNSt3__119__allocate_at_leastB8ne180100INS_9allocatorINS_5tupleIJiiiEEEEEEENS_19__allocation_resultINS_16allocator_traitsIT_E7pointerEEERS7_m, symObjAddr: 0x6E98, symBinAddr: 0x100016AB0, symSize: 0x40 }
  - { offset: 0x4DB76, size: 0x8, addend: 0x0, symName: __ZNSt3__142__uninitialized_allocator_move_if_noexceptB8ne180100INS_9allocatorINS_5tupleIJiiiEEEEENS_16reverse_iteratorIPS3_EES7_S7_EET2_RT_T0_T1_S8_, symObjAddr: 0x7050, symBinAddr: 0x100016C68, symSize: 0x12C }
  - { offset: 0x4DC16, size: 0x8, addend: 0x0, symName: __ZNSt3__14swapB8ne180100IPNS_5tupleIJiiiEEEEENS_9enable_ifIXaasr21is_move_constructibleIT_EE5valuesr18is_move_assignableIS5_EE5valueEvE4typeERS5_S8_, symObjAddr: 0x71C8, symBinAddr: 0x100016DE0, symSize: 0x3C }
  - { offset: 0x4DC67, size: 0x8, addend: 0x0, symName: __ZNSt3__122__make_exception_guardB8ne180100INS_29_AllocatorDestroyRangeReverseINS_9allocatorINS_5tupleIJiiiEEEEENS_16reverse_iteratorIPS4_EEEEEENS_28__exception_guard_exceptionsIT_EESB_, symObjAddr: 0x7218, symBinAddr: 0x100016E30, symSize: 0x4C }
  - { offset: 0x4DC9D, size: 0x8, addend: 0x0, symName: __ZNSt3__1neB8ne180100IPNS_5tupleIJiiiEEES3_EEbRKNS_16reverse_iteratorIT_EERKNS4_IT0_EE, symObjAddr: 0x72A8, symBinAddr: 0x100016EC0, symSize: 0x48 }
  - { offset: 0x4DCE9, size: 0x8, addend: 0x0, symName: __ZNSt3__112__to_addressB8ne180100INS_16reverse_iteratorIPNS_5tupleIJiiiEEEEEvEEu7__decayIDTclsr19__to_address_helperIT_EE6__callclsr3stdE7declvalIRKS6_EEEEES8_, symObjAddr: 0x7320, symBinAddr: 0x100016F38, symSize: 0x24 }
  - { offset: 0x4DD1F, size: 0x8, addend: 0x0, symName: __ZNSt3__114__construct_atB8ne180100INS_5tupleIJiiiEEEJS2_EPS2_EEPT_S5_DpOT0_, symObjAddr: 0x7470, symBinAddr: 0x100017088, symSize: 0x2C }
  - { offset: 0x4DD72, size: 0x8, addend: 0x0, symName: __ZNSt3__112construct_atB8ne180100INS_5tupleIJiiiEEEJS2_EPS2_EEPT_S5_DpOT0_, symObjAddr: 0x749C, symBinAddr: 0x1000170B4, symSize: 0x2C }
  - { offset: 0x4DDEE, size: 0x8, addend: 0x0, symName: __ZNSt3__14prevB8ne180100IPNS_5tupleIJiiiEEELi0EEET_S4_NS_15iterator_traitsIS4_E15difference_typeE, symObjAddr: 0x752C, symBinAddr: 0x100017144, symSize: 0x3C }
  - { offset: 0x4DE37, size: 0x8, addend: 0x0, symName: __ZNSt3__19__advanceB8ne180100IPNS_5tupleIJiiiEEEEEvRT_NS_15iterator_traitsIS4_E15difference_typeENS_26random_access_iterator_tagE, symObjAddr: 0x75A0, symBinAddr: 0x1000171B8, symSize: 0x30 }
  - { offset: 0x4DE80, size: 0x8, addend: 0x0, symName: __ZNSt3__119__allocator_destroyB8ne180100INS_9allocatorINS_5tupleIJiiiEEEEENS_16reverse_iteratorINS5_IPS3_EEEES8_EEvRT_T0_T1_, symObjAddr: 0x76D4, symBinAddr: 0x1000172EC, symSize: 0x70 }
  - { offset: 0x4DEE5, size: 0x8, addend: 0x0, symName: __ZNSt3__1neB8ne180100INS_16reverse_iteratorIPNS_5tupleIJiiiEEEEES5_EEbRKNS1_IT_EERKNS1_IT0_EE, symObjAddr: 0x7780, symBinAddr: 0x100017398, symSize: 0x60 }
  - { offset: 0x4DF31, size: 0x8, addend: 0x0, symName: __ZNSt3__112__to_addressB8ne180100INS_16reverse_iteratorINS1_IPNS_5tupleIJiiiEEEEEEEvEEu7__decayIDTclsr19__to_address_helperIT_EE6__callclsr3stdE7declvalIRKS7_EEEEES9_, symObjAddr: 0x77E0, symBinAddr: 0x1000173F8, symSize: 0x24 }
  - { offset: 0x4DF90, size: 0x8, addend: 0x0, symName: __ZNSt3__14prevB8ne180100INS_16reverse_iteratorIPNS_5tupleIJiiiEEEEELi0EEET_S6_NS_15iterator_traitsIS6_E15difference_typeE, symObjAddr: 0x78DC, symBinAddr: 0x1000174F4, symSize: 0x4C }
  - { offset: 0x4DFD9, size: 0x8, addend: 0x0, symName: __ZNSt3__19__advanceB8ne180100INS_16reverse_iteratorIPNS_5tupleIJiiiEEEEEEEvRT_NS_15iterator_traitsIS6_E15difference_typeENS_26random_access_iterator_tagE, symObjAddr: 0x7960, symBinAddr: 0x100017578, symSize: 0x2C }
  - { offset: 0x4E022, size: 0x8, addend: 0x0, symName: __ZNSt3__13maxB8ne180100IiNS_6__lessIvvEEEERKT_S5_S5_T0_, symObjAddr: 0x7C1C, symBinAddr: 0x100017834, symSize: 0x54 }
  - { offset: 0x4E07C, size: 0x8, addend: 0x0, symName: __ZNSt3__114__construct_atB8ne180100IiJiEPiEEPT_S3_DpOT0_, symObjAddr: 0x8294, symBinAddr: 0x100017C60, symSize: 0x2C }
  - { offset: 0x4E0CF, size: 0x8, addend: 0x0, symName: __ZNSt3__112construct_atB8ne180100IiJiEPiEEPT_S3_DpOT0_, symObjAddr: 0x82C0, symBinAddr: 0x100017C8C, symSize: 0x24 }
  - { offset: 0x4E122, size: 0x8, addend: 0x0, symName: __ZNSt3__142__uninitialized_allocator_move_if_noexceptB8ne180100INS_9allocatorIiEENS_16reverse_iteratorIPiEES5_ivEET1_RT_T0_S9_S6_, symObjAddr: 0x89E8, symBinAddr: 0x100018110, symSize: 0x78 }
  - { offset: 0x4E1A0, size: 0x8, addend: 0x0, symName: __ZNSt3__14swapB8ne180100IPiEENS_9enable_ifIXaasr21is_move_constructibleIT_EE5valuesr18is_move_assignableIS3_EE5valueEvE4typeERS3_S6_, symObjAddr: 0x8AAC, symBinAddr: 0x1000181D4, symSize: 0x3C }
  - { offset: 0x4E1F1, size: 0x8, addend: 0x0, symName: __ZNSt3__14moveB8ne180100INS_16reverse_iteratorIPiEES3_EET0_T_S5_S4_, symObjAddr: 0x8AFC, symBinAddr: 0x100018210, symSize: 0x78 }
  - { offset: 0x4E24B, size: 0x8, addend: 0x0, symName: __ZNSt3__16__moveB8ne180100INS_17_ClassicAlgPolicyENS_16reverse_iteratorIPiEES4_S4_EENS_4pairIT0_T2_EES6_T1_S7_, symObjAddr: 0x8B74, symBinAddr: 0x100018288, symSize: 0x64 }
  - { offset: 0x4E2B7, size: 0x8, addend: 0x0, symName: __ZNSt3__123__dispatch_copy_or_moveB8ne180100INS_17_ClassicAlgPolicyENS_11__move_loopIS1_EENS_14__move_trivialENS_16reverse_iteratorIPiEES7_S7_EENS_4pairIT2_T4_EES9_T3_SA_, symObjAddr: 0x8BD8, symBinAddr: 0x1000182EC, symSize: 0x64 }
  - { offset: 0x4E335, size: 0x8, addend: 0x0, symName: __ZNSt3__121__unwrap_and_dispatchB8ne180100INS_10__overloadINS_11__move_loopINS_17_ClassicAlgPolicyEEENS_14__move_trivialEEENS_16reverse_iteratorIPiEES9_S9_Li0EEENS_4pairIT0_T2_EESB_T1_SC_, symObjAddr: 0x8C3C, symBinAddr: 0x100018350, symSize: 0x12C }
  - { offset: 0x4E3C5, size: 0x8, addend: 0x0, symName: __ZNSt3__114__unwrap_rangeB8ne180100INS_16reverse_iteratorIPiEES3_EEDaT_T0_, symObjAddr: 0x8D68, symBinAddr: 0x10001847C, symSize: 0x4C }
  - { offset: 0x4E537, size: 0x8, addend: 0x0, symName: __ZNSt3__113__unwrap_iterB8ne180100INS_16reverse_iteratorIPiEENS_18__unwrap_iter_implIS3_Lb0EEELi0EEEDTclsrT0_8__unwrapclsr3stdE7declvalIT_EEEES7_, symObjAddr: 0x8E54, symBinAddr: 0x100018568, symSize: 0x44 }
  - { offset: 0x4E57B, size: 0x8, addend: 0x0, symName: __ZNSt3__19make_pairB8ne180100INS_16reverse_iteratorIPiEES3_EENS_4pairINS_18__unwrap_ref_decayIT_E4typeENS5_IT0_E4typeEEEOS6_OS9_, symObjAddr: 0x8E98, symBinAddr: 0x1000185AC, symSize: 0x38 }
  - { offset: 0x4E5CA, size: 0x8, addend: 0x0, symName: __ZNSt3__114__rewrap_rangeB8ne180100INS_16reverse_iteratorIPiEES3_S3_EET0_S4_T1_, symObjAddr: 0x8ED0, symBinAddr: 0x1000185E4, symSize: 0x5C }
  - { offset: 0x4E61F, size: 0x8, addend: 0x0, symName: __ZNSt3__113__rewrap_iterB8ne180100INS_16reverse_iteratorIPiEES3_NS_18__unwrap_iter_implIS3_Lb0EEEEET_S6_T0_, symObjAddr: 0x8F2C, symBinAddr: 0x100018640, symSize: 0x74 }
  - { offset: 0x4E6C4, size: 0x8, addend: 0x0, symName: __ZNSt3__1neB8ne180100IPiS1_EEbRKNS_16reverse_iteratorIT_EERKNS2_IT0_EE, symObjAddr: 0x9094, symBinAddr: 0x1000187A8, symSize: 0x48 }
  - { offset: 0x4E7BA, size: 0x8, addend: 0x0, symName: __ZNSt3__17getlineB8ne180100IcNS_11char_traitsIcEENS_9allocatorIcEEEERNS_13basic_istreamIT_T0_EES9_RNS_12basic_stringIS6_S7_T1_EES6_, symObjAddr: 0xAFF0, symBinAddr: 0x100018B24, symSize: 0x238 }
  - { offset: 0x4FD5C, size: 0x8, addend: 0x0, symName: __ZNSt3__16vectorINS_4pairIiNS1_IiiEEEENS_9allocatorIS3_EEE26__swap_out_circular_bufferERNS_14__split_bufferIS3_RS5_EE, symObjAddr: 0x34EC, symBinAddr: 0x100014BE8, symSize: 0x110 }
  - { offset: 0x4FDEE, size: 0x8, addend: 0x0, symName: __ZNSt3__16vectorINS_5tupleIJiiiEEENS_9allocatorIS2_EEE26__swap_out_circular_bufferERNS_14__split_bufferIS2_RS4_EE, symObjAddr: 0x6B3C, symBinAddr: 0x100016754, symSize: 0x110 }
  - { offset: 0x4FF75, size: 0x8, addend: 0x0, symName: __ZNSt3__16vectorIiNS_9allocatorIiEEE26__swap_out_circular_bufferERNS_14__split_bufferIiRS2_EE, symObjAddr: 0x8434, symBinAddr: 0x100017DA8, symSize: 0x110 }
  - { offset: 0x50105, size: 0x8, addend: 0x0, symName: __Z15getNextDataLineRNSt3__114basic_ifstreamIcNS_11char_traitsIcEEEE, symObjAddr: 0x0, symBinAddr: 0x100012294, symSize: 0x164 }
  - { offset: 0x50140, size: 0x8, addend: 0x0, symName: __ZNKSt3__19basic_iosIcNS_11char_traitsIcEEEcvbB8ne180100Ev, symObjAddr: 0x1EC, symBinAddr: 0x100012454, symSize: 0x2C }
  - { offset: 0x50165, size: 0x8, addend: 0x0, symName: __ZNKSt3__112basic_stringIcNS_11char_traitsIcEENS_9allocatorIcEEE17find_first_not_ofB8ne180100EPKcm, symObjAddr: 0x218, symBinAddr: 0x100012480, symSize: 0x74 }
  - { offset: 0x501AA, size: 0x8, addend: 0x0, symName: __ZNKSt3__112basic_stringIcNS_11char_traitsIcEENS_9allocatorIcEEE16find_last_not_ofB8ne180100EPKcm, symObjAddr: 0x28C, symBinAddr: 0x1000124F4, symSize: 0x74 }
  - { offset: 0x501F0, size: 0x8, addend: 0x0, symName: __ZNSt3__112basic_stringIcNS_11char_traitsIcEENS_9allocatorIcEEEixB8ne180100Em, symObjAddr: 0x330, symBinAddr: 0x100012568, symSize: 0x48 }
  - { offset: 0x50225, size: 0x8, addend: 0x0, symName: __ZNSt3__112basic_stringIcNS_11char_traitsIcEENS_9allocatorIcEEEC1B8ne180100EOS5_, symObjAddr: 0x378, symBinAddr: 0x1000125B0, symSize: 0x34 }
  - { offset: 0x5033D, size: 0x8, addend: 0x0, symName: __ZN6Parser10parseGraphERKNSt3__112basic_stringIcNS0_11char_traitsIcEENS0_9allocatorIcEEEE, symObjAddr: 0x3E0, symBinAddr: 0x1000125E4, symSize: 0x1B0 }
  - { offset: 0x50411, size: 0x8, addend: 0x0, symName: __ZN6Parser13loadGraphDataERKNSt3__112basic_stringIcNS0_11char_traitsIcEENS0_9allocatorIcEEEE, symObjAddr: 0x590, symBinAddr: 0x100012794, symSize: 0x65C }
  - { offset: 0x504EA, size: 0x8, addend: 0x0, symName: __ZNSt3__16vectorINS_4pairIiNS1_IiiEEEENS_9allocatorIS3_EEEC1B8ne180100Ev, symObjAddr: 0xBEC, symBinAddr: 0x100012DF0, symSize: 0x2C }
  - { offset: 0x50513, size: 0x8, addend: 0x0, symName: __ZNSt3__16vectorINS_5tupleIJiiiEEENS_9allocatorIS2_EEE5beginB8ne180100Ev, symObjAddr: 0xC18, symBinAddr: 0x100012E1C, symSize: 0x30 }
  - { offset: 0x5053A, size: 0x8, addend: 0x0, symName: __ZNSt3__16vectorINS_5tupleIJiiiEEENS_9allocatorIS2_EEE3endB8ne180100Ev, symObjAddr: 0xC48, symBinAddr: 0x100012E4C, symSize: 0x30 }
  - { offset: 0x50562, size: 0x8, addend: 0x0, symName: __ZNKSt3__111__wrap_iterIPNS_5tupleIJiiiEEEEdeB8ne180100Ev, symObjAddr: 0xCAC, symBinAddr: 0x100012EB0, symSize: 0x18 }
  - { offset: 0x50587, size: 0x8, addend: 0x0, symName: __ZNSt3__16vectorINS_4pairIiNS1_IiiEEEENS_9allocatorIS3_EEE9push_backB8ne180100EOS3_, symObjAddr: 0xD38, symBinAddr: 0x100012F3C, symSize: 0x90 }
  - { offset: 0x505CD, size: 0x8, addend: 0x0, symName: __ZNSt3__14pairIiNS0_IiiEEEC1B8ne180100ILb1ELi0EEERKiRKS1_, symObjAddr: 0xE04, symBinAddr: 0x100012FCC, symSize: 0x3C }
  - { offset: 0x50623, size: 0x8, addend: 0x0, symName: __ZNSt3__111__wrap_iterIPNS_5tupleIJiiiEEEEppB8ne180100Ev, symObjAddr: 0xE40, symBinAddr: 0x100013008, symSize: 0x20 }
  - { offset: 0x5064E, size: 0x8, addend: 0x0, symName: __ZN6Parser9GraphDataD1Ev, symObjAddr: 0xEC0, symBinAddr: 0x100013028, symSize: 0x2C }
  - { offset: 0x508D2, size: 0x8, addend: 0x0, symName: __ZNSt3__114basic_ifstreamIcNS_11char_traitsIcEEEC1ERKNS_12basic_stringIcS2_NS_9allocatorIcEEEEj, symObjAddr: 0xEEC, symBinAddr: 0x100013054, symSize: 0x164 }
  - { offset: 0x5091B, size: 0x8, addend: 0x0, symName: __ZNKSt3__114basic_ifstreamIcNS_11char_traitsIcEEE7is_openEv, symObjAddr: 0x1050, symBinAddr: 0x1000131B8, symSize: 0x2C }
  - { offset: 0x50943, size: 0x8, addend: 0x0, symName: __ZN6Parser9GraphDataC1Ev, symObjAddr: 0x1194, symBinAddr: 0x1000131E4, symSize: 0x2C }
  - { offset: 0x5096F, size: 0x8, addend: 0x0, symName: __ZNSt3__112basic_stringIcNS_11char_traitsIcEENS_9allocatorIcEEEaSB8ne180100EOS5_, symObjAddr: 0x11C0, symBinAddr: 0x100013210, symSize: 0x34 }
  - { offset: 0x50A17, size: 0x8, addend: 0x0, symName: __ZNSt3__118basic_stringstreamIcNS_11char_traitsIcEENS_9allocatorIcEEEC1B8ne180100ERKNS_12basic_stringIcS2_S4_EEj, symObjAddr: 0x11F4, symBinAddr: 0x100013244, symSize: 0x100 }
  - { offset: 0x50A5E, size: 0x8, addend: 0x0, symName: __ZNSt3__16vectorINS_5tupleIJiiiEEENS_9allocatorIS2_EEE12emplace_backIJRiS7_S7_EEERS2_DpOT_, symObjAddr: 0x17E4, symBinAddr: 0x1000137D8, symSize: 0xB0 }
  - { offset: 0x50ADC, size: 0x8, addend: 0x0, symName: __ZNSt3__118basic_stringstreamIcNS_11char_traitsIcEENS_9allocatorIcEEED1Ev, symObjAddr: 0x18C0, symBinAddr: 0x1000138B4, symSize: 0x40 }
  - { offset: 0x50B09, size: 0x8, addend: 0x0, symName: __ZNKSt3__16vectorINS_5tupleIJiiiEEENS_9allocatorIS2_EEE4sizeB8ne180100Ev, symObjAddr: 0x1900, symBinAddr: 0x1000138F4, symSize: 0x28 }
  - { offset: 0x50B34, size: 0x8, addend: 0x0, symName: __ZNSt3__114basic_ifstreamIcNS_11char_traitsIcEEED1Ev, symObjAddr: 0x1928, symBinAddr: 0x10001391C, symSize: 0x40 }
  - { offset: 0x50B61, size: 0x8, addend: 0x0, symName: __ZN6Parser9parseSSSPERKNSt3__112basic_stringIcNS0_11char_traitsIcEENS0_9allocatorIcEEEE, symObjAddr: 0x1968, symBinAddr: 0x10001395C, symSize: 0x468 }
  - { offset: 0x50C4A, size: 0x8, addend: 0x0, symName: __ZNSt3__16vectorIiNS_9allocatorIiEEEC1B8ne180100Ev, symObjAddr: 0x1DD0, symBinAddr: 0x100013DC4, symSize: 0x2C }
  - { offset: 0x50C73, size: 0x8, addend: 0x0, symName: __ZNSt3__16vectorIiNS_9allocatorIiEEE9push_backB8ne180100EOi, symObjAddr: 0x1DFC, symBinAddr: 0x100013DF0, symSize: 0x90 }
  - { offset: 0x50CB9, size: 0x8, addend: 0x0, symName: __ZNKSt3__16vectorIiNS_9allocatorIiEEE4sizeB8ne180100Ev, symObjAddr: 0x1E8C, symBinAddr: 0x100013E80, symSize: 0x28 }
  - { offset: 0x50CDF, size: 0x8, addend: 0x0, symName: __ZN6Parser8parseP2PERKNSt3__112basic_stringIcNS0_11char_traitsIcEENS0_9allocatorIcEEEE, symObjAddr: 0x1EE0, symBinAddr: 0x100013EA8, symSize: 0x484 }
  - { offset: 0x50DE1, size: 0x8, addend: 0x0, symName: __ZNSt3__111char_traitsIcE4findB8ne180100EPKcmRS2_, symObjAddr: 0x2770, symBinAddr: 0x100014408, symSize: 0x70 }
  - { offset: 0x50E20, size: 0x8, addend: 0x0, symName: __ZNSt3__112basic_stringIcNS_11char_traitsIcEENS_9allocatorIcEEEC2B8ne180100EOS5_, symObjAddr: 0x2BC8, symBinAddr: 0x100014594, symSize: 0xB8 }
  - { offset: 0x50E89, size: 0x8, addend: 0x0, symName: __ZZNSt3__112basic_stringIcNS_11char_traitsIcEENS_9allocatorIcEEEC1B8ne180100EOS5_ENKUlRS5_E_clES7_, symObjAddr: 0x2C80, symBinAddr: 0x10001464C, symSize: 0x40 }
  - { offset: 0x50EC2, size: 0x8, addend: 0x0, symName: __ZNKSt3__112basic_stringIcNS_11char_traitsIcEENS_9allocatorIcEEE17__annotate_deleteB8ne180100Ev, symObjAddr: 0x2CC0, symBinAddr: 0x10001468C, symSize: 0x10 }
  - { offset: 0x50EE8, size: 0x8, addend: 0x0, symName: __ZNSt3__16vectorINS_4pairIiNS1_IiiEEEENS_9allocatorIS3_EEEC2B8ne180100Ev, symObjAddr: 0x2DB4, symBinAddr: 0x10001469C, symSize: 0x4C }
  - { offset: 0x50F17, size: 0x8, addend: 0x0, symName: __ZNSt3__117__compressed_pairIPNS_4pairIiNS1_IiiEEEENS_9allocatorIS3_EEEC1B8ne180100IDnNS_18__default_init_tagEEEOT_OT0_, symObjAddr: 0x2E00, symBinAddr: 0x1000146E8, symSize: 0x3C }
  - { offset: 0x50F6F, size: 0x8, addend: 0x0, symName: __ZNSt3__117__compressed_pairIPNS_4pairIiNS1_IiiEEEENS_9allocatorIS3_EEEC2B8ne180100IDnNS_18__default_init_tagEEEOT_OT0_, symObjAddr: 0x2E3C, symBinAddr: 0x100014724, symSize: 0x40 }
  - { offset: 0x50FC7, size: 0x8, addend: 0x0, symName: __ZNSt3__122__compressed_pair_elemINS_9allocatorINS_4pairIiNS2_IiiEEEEEELi1ELb1EEC2B8ne180100ENS_18__default_init_tagE, symObjAddr: 0x2E98, symBinAddr: 0x100014764, symSize: 0x2C }
  - { offset: 0x50FFB, size: 0x8, addend: 0x0, symName: __ZNSt3__19allocatorINS_4pairIiNS1_IiiEEEEEC2B8ne180100Ev, symObjAddr: 0x2EC4, symBinAddr: 0x100014790, symSize: 0x2C }
  - { offset: 0x51025, size: 0x8, addend: 0x0, symName: __ZNSt3__116__non_trivial_ifILb1ENS_9allocatorINS_4pairIiNS2_IiiEEEEEEEC2B8ne180100Ev, symObjAddr: 0x2EF0, symBinAddr: 0x1000147BC, symSize: 0x14 }
  - { offset: 0x5104F, size: 0x8, addend: 0x0, symName: __ZNSt3__16vectorINS_5tupleIJiiiEEENS_9allocatorIS2_EEE11__make_iterB8ne180100EPS2_, symObjAddr: 0x2F04, symBinAddr: 0x1000147D0, symSize: 0x30 }
  - { offset: 0x51084, size: 0x8, addend: 0x0, symName: __ZNSt3__111__wrap_iterIPNS_5tupleIJiiiEEEEC1B8ne180100ES3_, symObjAddr: 0x2F34, symBinAddr: 0x100014800, symSize: 0x34 }
  - { offset: 0x510BC, size: 0x8, addend: 0x0, symName: __ZNSt3__111__wrap_iterIPNS_5tupleIJiiiEEEEC2B8ne180100ES3_, symObjAddr: 0x2F68, symBinAddr: 0x100014834, symSize: 0x20 }
  - { offset: 0x510F4, size: 0x8, addend: 0x0, symName: __ZNKSt3__111__wrap_iterIPNS_5tupleIJiiiEEEE4baseB8ne180100Ev, symObjAddr: 0x2FD0, symBinAddr: 0x10001489C, symSize: 0x18 }
  - { offset: 0x5111A, size: 0x8, addend: 0x0, symName: __ZNKSt3__112__tuple_leafILm0EiLb0EE3getB8ne180100Ev, symObjAddr: 0x2FE8, symBinAddr: 0x1000148B4, symSize: 0x14 }
  - { offset: 0x51140, size: 0x8, addend: 0x0, symName: __ZNKSt3__112__tuple_leafILm1EiLb0EE3getB8ne180100Ev, symObjAddr: 0x2FFC, symBinAddr: 0x1000148C8, symSize: 0x14 }
  - { offset: 0x51166, size: 0x8, addend: 0x0, symName: __ZNKSt3__112__tuple_leafILm2EiLb0EE3getB8ne180100Ev, symObjAddr: 0x3010, symBinAddr: 0x1000148DC, symSize: 0x14 }
  - { offset: 0x5118C, size: 0x8, addend: 0x0, symName: __ZNSt3__16vectorINS_4pairIiNS1_IiiEEEENS_9allocatorIS3_EEE22__construct_one_at_endB8ne180100IJS3_EEEvDpOT_, symObjAddr: 0x304C, symBinAddr: 0x1000148F0, symSize: 0x90 }
  - { offset: 0x511DA, size: 0x8, addend: 0x0, symName: __ZNSt3__16vectorINS_4pairIiNS1_IiiEEEENS_9allocatorIS3_EEE21__push_back_slow_pathIS3_EEPS3_OT_, symObjAddr: 0x30DC, symBinAddr: 0x100014980, symSize: 0xE8 }
  - { offset: 0x51251, size: 0x8, addend: 0x0, symName: __ZNSt3__116allocator_traitsINS_9allocatorINS_4pairIiNS2_IiiEEEEEEE9constructB8ne180100IS4_JS4_EvvEEvRS5_PT_DpOT0_, symObjAddr: 0x3238, symBinAddr: 0x100014A68, symSize: 0x30 }
  - { offset: 0x512A5, size: 0x8, addend: 0x0, symName: __ZNKSt3__16vectorINS_4pairIiNS1_IiiEEEENS_9allocatorIS3_EEE11__recommendB8ne180100Em, symObjAddr: 0x33CC, symBinAddr: 0x100014AF0, symSize: 0xB4 }
  - { offset: 0x512FA, size: 0x8, addend: 0x0, symName: __ZNSt3__114__split_bufferINS_4pairIiNS1_IiiEEEERNS_9allocatorIS3_EEEC1EmmS6_, symObjAddr: 0x34A8, symBinAddr: 0x100014BA4, symSize: 0x44 }
  - { offset: 0x51350, size: 0x8, addend: 0x0, symName: __ZNSt3__114__split_bufferINS_4pairIiNS1_IiiEEEERNS_9allocatorIS3_EEED1Ev, symObjAddr: 0x35FC, symBinAddr: 0x100014CF8, symSize: 0x2C }
  - { offset: 0x5139A, size: 0x8, addend: 0x0, symName: __ZNSt3__114__split_bufferINS_4pairIiNS1_IiiEEEERNS_9allocatorIS3_EEEC2EmmS6_, symObjAddr: 0x3A14, symBinAddr: 0x100014D24, symSize: 0xE0 }
  - { offset: 0x5140D, size: 0x8, addend: 0x0, symName: __ZNSt3__117__compressed_pairIPNS_4pairIiNS1_IiiEEEERNS_9allocatorIS3_EEEC1B8ne180100IDnS7_EEOT_OT0_, symObjAddr: 0x3AF4, symBinAddr: 0x100014E04, symSize: 0x3C }
  - { offset: 0x51465, size: 0x8, addend: 0x0, symName: __ZNSt3__114__split_bufferINS_4pairIiNS1_IiiEEEERNS_9allocatorIS3_EEE7__allocB8ne180100Ev, symObjAddr: 0x3B70, symBinAddr: 0x100014E40, symSize: 0x28 }
  - { offset: 0x5148B, size: 0x8, addend: 0x0, symName: __ZNSt3__114__split_bufferINS_4pairIiNS1_IiiEEEERNS_9allocatorIS3_EEE9__end_capB8ne180100Ev, symObjAddr: 0x3B98, symBinAddr: 0x100014E68, symSize: 0x28 }
  - { offset: 0x514B1, size: 0x8, addend: 0x0, symName: __ZNSt3__117__compressed_pairIPNS_4pairIiNS1_IiiEEEERNS_9allocatorIS3_EEEC2B8ne180100IDnS7_EEOT_OT0_, symObjAddr: 0x3BC0, symBinAddr: 0x100014E90, symSize: 0x48 }
  - { offset: 0x51509, size: 0x8, addend: 0x0, symName: __ZNSt3__122__compressed_pair_elemIRNS_9allocatorINS_4pairIiNS2_IiiEEEEEELi1ELb0EEC2B8ne180100IS6_vEEOT_, symObjAddr: 0x3C08, symBinAddr: 0x100014ED8, symSize: 0x20 }
  - { offset: 0x5154B, size: 0x8, addend: 0x0, symName: __ZNSt3__117__compressed_pairIPNS_4pairIiNS1_IiiEEEERNS_9allocatorIS3_EEE6secondB8ne180100Ev, symObjAddr: 0x3D88, symBinAddr: 0x100014EF8, symSize: 0x28 }
  - { offset: 0x51571, size: 0x8, addend: 0x0, symName: __ZNSt3__122__compressed_pair_elemIRNS_9allocatorINS_4pairIiNS2_IiiEEEEEELi1ELb0EE5__getB8ne180100Ev, symObjAddr: 0x3DB0, symBinAddr: 0x100014F20, symSize: 0x18 }
  - { offset: 0x51597, size: 0x8, addend: 0x0, symName: __ZNSt3__117__compressed_pairIPNS_4pairIiNS1_IiiEEEERNS_9allocatorIS3_EEE5firstB8ne180100Ev, symObjAddr: 0x3DC8, symBinAddr: 0x100014F38, symSize: 0x24 }
  - { offset: 0x515BD, size: 0x8, addend: 0x0, symName: __ZNSt3__129_AllocatorDestroyRangeReverseINS_9allocatorINS_4pairIiNS2_IiiEEEEEENS_16reverse_iteratorIPS4_EEEC1B8ne180100ERS5_RS8_SB_, symObjAddr: 0x4010, symBinAddr: 0x100015110, symSize: 0x44 }
  - { offset: 0x51614, size: 0x8, addend: 0x0, symName: __ZNKSt3__116reverse_iteratorIPNS_4pairIiNS1_IiiEEEEEdeB8ne180100Ev, symObjAddr: 0x40C0, symBinAddr: 0x100015154, symSize: 0x28 }
  - { offset: 0x51648, size: 0x8, addend: 0x0, symName: __ZNSt3__128__exception_guard_exceptionsINS_29_AllocatorDestroyRangeReverseINS_9allocatorINS_4pairIiNS3_IiiEEEEEENS_16reverse_iteratorIPS5_EEEEE10__completeB8ne180100Ev, symObjAddr: 0x4108, symBinAddr: 0x10001517C, symSize: 0x1C }
  - { offset: 0x5166E, size: 0x8, addend: 0x0, symName: __ZNSt3__128__exception_guard_exceptionsINS_29_AllocatorDestroyRangeReverseINS_9allocatorINS_4pairIiNS3_IiiEEEEEENS_16reverse_iteratorIPS5_EEEEED1B8ne180100Ev, symObjAddr: 0x4124, symBinAddr: 0x100015198, symSize: 0x2C }
  - { offset: 0x51698, size: 0x8, addend: 0x0, symName: __ZNSt3__128__exception_guard_exceptionsINS_29_AllocatorDestroyRangeReverseINS_9allocatorINS_4pairIiNS3_IiiEEEEEENS_16reverse_iteratorIPS5_EEEEEC1B8ne180100ESA_, symObjAddr: 0x4150, symBinAddr: 0x1000151C4, symSize: 0x34 }
  - { offset: 0x516D1, size: 0x8, addend: 0x0, symName: __ZNSt3__128__exception_guard_exceptionsINS_29_AllocatorDestroyRangeReverseINS_9allocatorINS_4pairIiNS3_IiiEEEEEENS_16reverse_iteratorIPS5_EEEEEC2B8ne180100ESA_, symObjAddr: 0x4184, symBinAddr: 0x1000151F8, symSize: 0x30 }
  - { offset: 0x5170A, size: 0x8, addend: 0x0, symName: __ZNSt3__129_AllocatorDestroyRangeReverseINS_9allocatorINS_4pairIiNS2_IiiEEEEEENS_16reverse_iteratorIPS4_EEEC2B8ne180100ERS5_RS8_SB_, symObjAddr: 0x41B4, symBinAddr: 0x100015228, symSize: 0x38 }
  - { offset: 0x51761, size: 0x8, addend: 0x0, symName: __ZNSt3__128__exception_guard_exceptionsINS_29_AllocatorDestroyRangeReverseINS_9allocatorINS_4pairIiNS3_IiiEEEEEENS_16reverse_iteratorIPS5_EEEEED2B8ne180100Ev, symObjAddr: 0x4308, symBinAddr: 0x100015260, symSize: 0x50 }
  - { offset: 0x5178B, size: 0x8, addend: 0x0, symName: __ZNKSt3__129_AllocatorDestroyRangeReverseINS_9allocatorINS_4pairIiNS2_IiiEEEEEENS_16reverse_iteratorIPS4_EEEclB8ne180100Ev, symObjAddr: 0x4358, symBinAddr: 0x1000152B0, symSize: 0xB4 }
  - { offset: 0x517B2, size: 0x8, addend: 0x0, symName: __ZNSt3__116reverse_iteratorINS0_IPNS_4pairIiNS1_IiiEEEEEEEC1B8ne180100ES5_, symObjAddr: 0x447C, symBinAddr: 0x1000153D4, symSize: 0x3C }
  - { offset: 0x517EA, size: 0x8, addend: 0x0, symName: __ZNSt3__116reverse_iteratorINS0_IPNS_4pairIiNS1_IiiEEEEEEEppB8ne180100Ev, symObjAddr: 0x4564, symBinAddr: 0x100015494, symSize: 0x30 }
  - { offset: 0x51810, size: 0x8, addend: 0x0, symName: __ZNKSt3__116reverse_iteratorINS0_IPNS_4pairIiNS1_IiiEEEEEEE4baseB8ne180100Ev, symObjAddr: 0x4594, symBinAddr: 0x1000154C4, symSize: 0x24 }
  - { offset: 0x5183B, size: 0x8, addend: 0x0, symName: __ZNSt3__119__to_address_helperINS_16reverse_iteratorINS1_IPNS_4pairIiNS2_IiiEEEEEEEEvE6__callB8ne180100ERKS7_, symObjAddr: 0x45C8, symBinAddr: 0x1000154E8, symSize: 0x38 }
  - { offset: 0x5185E, size: 0x8, addend: 0x0, symName: __ZNKSt3__116reverse_iteratorINS0_IPNS_4pairIiNS1_IiiEEEEEEEptB8ne180100Ev, symObjAddr: 0x4600, symBinAddr: 0x100015520, symSize: 0x4C }
  - { offset: 0x51884, size: 0x8, addend: 0x0, symName: __ZNSt3__116reverse_iteratorIPNS_4pairIiNS1_IiiEEEEEpLB8ne180100El, symObjAddr: 0x46FC, symBinAddr: 0x10001561C, symSize: 0x30 }
  - { offset: 0x518B8, size: 0x8, addend: 0x0, symName: __ZNSt3__116reverse_iteratorIPNS_4pairIiNS1_IiiEEEEEmmB8ne180100Ev, symObjAddr: 0x472C, symBinAddr: 0x10001564C, symSize: 0x20 }
  - { offset: 0x518DE, size: 0x8, addend: 0x0, symName: __ZNSt3__116reverse_iteratorINS0_IPNS_4pairIiNS1_IiiEEEEEEEC2B8ne180100ES5_, symObjAddr: 0x474C, symBinAddr: 0x10001566C, symSize: 0x2C }
  - { offset: 0x51916, size: 0x8, addend: 0x0, symName: __ZNSt3__114__split_bufferINS_4pairIiNS1_IiiEEEERNS_9allocatorIS3_EEED2Ev, symObjAddr: 0x47A0, symBinAddr: 0x100015698, symSize: 0x8C }
  - { offset: 0x51942, size: 0x8, addend: 0x0, symName: __ZNSt3__114__split_bufferINS_4pairIiNS1_IiiEEEERNS_9allocatorIS3_EEE5clearB8ne180100Ev, symObjAddr: 0x482C, symBinAddr: 0x100015724, symSize: 0x28 }
  - { offset: 0x51968, size: 0x8, addend: 0x0, symName: __ZNKSt3__114__split_bufferINS_4pairIiNS1_IiiEEEERNS_9allocatorIS3_EEE8capacityB8ne180100Ev, symObjAddr: 0x4888, symBinAddr: 0x10001574C, symSize: 0x40 }
  - { offset: 0x5198E, size: 0x8, addend: 0x0, symName: __ZNSt3__114__split_bufferINS_4pairIiNS1_IiiEEEERNS_9allocatorIS3_EEE17__destruct_at_endB8ne180100EPS3_, symObjAddr: 0x48C8, symBinAddr: 0x10001578C, symSize: 0x2C }
  - { offset: 0x519C1, size: 0x8, addend: 0x0, symName: __ZNSt3__114__split_bufferINS_4pairIiNS1_IiiEEEERNS_9allocatorIS3_EEE17__destruct_at_endB8ne180100EPS3_NS_17integral_constantIbLb0EEE, symObjAddr: 0x48F4, symBinAddr: 0x1000157B8, symSize: 0x80 }
  - { offset: 0x51A01, size: 0x8, addend: 0x0, symName: __ZNKSt3__114__split_bufferINS_4pairIiNS1_IiiEEEERNS_9allocatorIS3_EEE9__end_capB8ne180100Ev, symObjAddr: 0x4AC0, symBinAddr: 0x100015838, symSize: 0x28 }
  - { offset: 0x51A27, size: 0x8, addend: 0x0, symName: __ZNKSt3__117__compressed_pairIPNS_4pairIiNS1_IiiEEEERNS_9allocatorIS3_EEE5firstB8ne180100Ev, symObjAddr: 0x4AE8, symBinAddr: 0x100015860, symSize: 0x24 }
  - { offset: 0x51A4D, size: 0x8, addend: 0x0, symName: __ZNSt3__14pairIiNS0_IiiEEEC2B8ne180100ILb1ELi0EEERKiRKS1_, symObjAddr: 0x4B40, symBinAddr: 0x100015884, symSize: 0x34 }
  - { offset: 0x51AA8, size: 0x8, addend: 0x0, symName: __ZN6Parser9GraphDataD2Ev, symObjAddr: 0x5828, symBinAddr: 0x1000158B8, symSize: 0x30 }
  - { offset: 0x51AD4, size: 0x8, addend: 0x0, symName: __ZNSt3__16vectorINS_5tupleIJiiiEEENS_9allocatorIS2_EEED1B8ne180100Ev, symObjAddr: 0x5858, symBinAddr: 0x1000158E8, symSize: 0x2C }
  - { offset: 0x51AFE, size: 0x8, addend: 0x0, symName: __ZNSt3__16vectorINS_5tupleIJiiiEEENS_9allocatorIS2_EEED2B8ne180100Ev, symObjAddr: 0x5884, symBinAddr: 0x100015914, symSize: 0x44 }
  - { offset: 0x51B28, size: 0x8, addend: 0x0, symName: __ZNSt3__16vectorINS_5tupleIJiiiEEENS_9allocatorIS2_EEE16__destroy_vectorC1B8ne180100ERS5_, symObjAddr: 0x58C8, symBinAddr: 0x100015958, symSize: 0x34 }
  - { offset: 0x51B61, size: 0x8, addend: 0x0, symName: __ZNSt3__16vectorINS_5tupleIJiiiEEENS_9allocatorIS2_EEE16__destroy_vectorclB8ne180100Ev, symObjAddr: 0x58FC, symBinAddr: 0x10001598C, symSize: 0x90 }
  - { offset: 0x51B87, size: 0x8, addend: 0x0, symName: __ZNSt3__16vectorINS_5tupleIJiiiEEENS_9allocatorIS2_EEE16__destroy_vectorC2B8ne180100ERS5_, symObjAddr: 0x598C, symBinAddr: 0x100015A1C, symSize: 0x20 }
  - { offset: 0x51BC0, size: 0x8, addend: 0x0, symName: __ZNSt3__16vectorINS_5tupleIJiiiEEENS_9allocatorIS2_EEE7__clearB8ne180100Ev, symObjAddr: 0x59AC, symBinAddr: 0x100015A3C, symSize: 0x28 }
  - { offset: 0x51BE6, size: 0x8, addend: 0x0, symName: __ZNKSt3__16vectorINS_5tupleIJiiiEEENS_9allocatorIS2_EEE17__annotate_deleteB8ne180100Ev, symObjAddr: 0x59D4, symBinAddr: 0x100015A64, symSize: 0x10 }
  - { offset: 0x51C0C, size: 0x8, addend: 0x0, symName: __ZNSt3__116allocator_traitsINS_9allocatorINS_5tupleIJiiiEEEEEE10deallocateB8ne180100ERS4_PS3_m, symObjAddr: 0x59E4, symBinAddr: 0x100015A74, symSize: 0x34 }
  - { offset: 0x51C4E, size: 0x8, addend: 0x0, symName: __ZNSt3__16vectorINS_5tupleIJiiiEEENS_9allocatorIS2_EEE7__allocB8ne180100Ev, symObjAddr: 0x5A18, symBinAddr: 0x100015AA8, symSize: 0x28 }
  - { offset: 0x51C74, size: 0x8, addend: 0x0, symName: __ZNKSt3__16vectorINS_5tupleIJiiiEEENS_9allocatorIS2_EEE8capacityB8ne180100Ev, symObjAddr: 0x5A40, symBinAddr: 0x100015AD0, symSize: 0x40 }
  - { offset: 0x51C9A, size: 0x8, addend: 0x0, symName: __ZNSt3__16vectorINS_5tupleIJiiiEEENS_9allocatorIS2_EEE22__base_destruct_at_endB8ne180100EPS2_, symObjAddr: 0x5A80, symBinAddr: 0x100015B10, symSize: 0x8C }
  - { offset: 0x51CDE, size: 0x8, addend: 0x0, symName: __ZNSt3__116allocator_traitsINS_9allocatorINS_5tupleIJiiiEEEEEE7destroyB8ne180100IS3_vvEEvRS4_PT_, symObjAddr: 0x5B0C, symBinAddr: 0x100015B9C, symSize: 0x28 }
  - { offset: 0x51D19, size: 0x8, addend: 0x0, symName: __ZNSt3__19allocatorINS_5tupleIJiiiEEEE10deallocateB8ne180100EPS2_m, symObjAddr: 0x5B58, symBinAddr: 0x100015BE8, symSize: 0x44 }
  - { offset: 0x51D5B, size: 0x8, addend: 0x0, symName: __ZNSt3__117__compressed_pairIPNS_5tupleIJiiiEEENS_9allocatorIS2_EEE6secondB8ne180100Ev, symObjAddr: 0x5B9C, symBinAddr: 0x100015C2C, symSize: 0x24 }
  - { offset: 0x51D81, size: 0x8, addend: 0x0, symName: __ZNSt3__122__compressed_pair_elemINS_9allocatorINS_5tupleIJiiiEEEEELi1ELb1EE5__getB8ne180100Ev, symObjAddr: 0x5BC0, symBinAddr: 0x100015C50, symSize: 0x14 }
  - { offset: 0x51DA7, size: 0x8, addend: 0x0, symName: __ZNKSt3__16vectorINS_5tupleIJiiiEEENS_9allocatorIS2_EEE9__end_capB8ne180100Ev, symObjAddr: 0x5BD4, symBinAddr: 0x100015C64, symSize: 0x28 }
  - { offset: 0x51DCD, size: 0x8, addend: 0x0, symName: __ZNKSt3__117__compressed_pairIPNS_5tupleIJiiiEEENS_9allocatorIS2_EEE5firstB8ne180100Ev, symObjAddr: 0x5BFC, symBinAddr: 0x100015C8C, symSize: 0x24 }
  - { offset: 0x51DF3, size: 0x8, addend: 0x0, symName: __ZNKSt3__122__compressed_pair_elemIPNS_5tupleIJiiiEEELi0ELb0EE5__getB8ne180100Ev, symObjAddr: 0x5C20, symBinAddr: 0x100015CB0, symSize: 0x14 }
  - { offset: 0x51E19, size: 0x8, addend: 0x0, symName: __ZN6Parser9GraphDataC2Ev, symObjAddr: 0x5C34, symBinAddr: 0x100015CC4, symSize: 0x40 }
  - { offset: 0x51E45, size: 0x8, addend: 0x0, symName: __ZNSt3__16vectorINS_5tupleIJiiiEEENS_9allocatorIS2_EEEC1B8ne180100Ev, symObjAddr: 0x5C74, symBinAddr: 0x100015D04, symSize: 0x2C }
  - { offset: 0x51E6F, size: 0x8, addend: 0x0, symName: __ZNSt3__16vectorINS_5tupleIJiiiEEENS_9allocatorIS2_EEEC2B8ne180100Ev, symObjAddr: 0x5CA0, symBinAddr: 0x100015D30, symSize: 0x4C }
  - { offset: 0x51E99, size: 0x8, addend: 0x0, symName: __ZNSt3__117__compressed_pairIPNS_5tupleIJiiiEEENS_9allocatorIS2_EEEC1B8ne180100IDnNS_18__default_init_tagEEEOT_OT0_, symObjAddr: 0x5CEC, symBinAddr: 0x100015D7C, symSize: 0x3C }
  - { offset: 0x51EF1, size: 0x8, addend: 0x0, symName: __ZNSt3__117__compressed_pairIPNS_5tupleIJiiiEEENS_9allocatorIS2_EEEC2B8ne180100IDnNS_18__default_init_tagEEEOT_OT0_, symObjAddr: 0x5D28, symBinAddr: 0x100015DB8, symSize: 0x40 }
  - { offset: 0x51F49, size: 0x8, addend: 0x0, symName: __ZNSt3__122__compressed_pair_elemIPNS_5tupleIJiiiEEELi0ELb0EEC2B8ne180100IDnvEEOT_, symObjAddr: 0x5D68, symBinAddr: 0x100015DF8, symSize: 0x1C }
  - { offset: 0x51F8B, size: 0x8, addend: 0x0, symName: __ZNSt3__122__compressed_pair_elemINS_9allocatorINS_5tupleIJiiiEEEEELi1ELb1EEC2B8ne180100ENS_18__default_init_tagE, symObjAddr: 0x5D84, symBinAddr: 0x100015E14, symSize: 0x2C }
  - { offset: 0x51FBF, size: 0x8, addend: 0x0, symName: __ZNSt3__19allocatorINS_5tupleIJiiiEEEEC2B8ne180100Ev, symObjAddr: 0x5DB0, symBinAddr: 0x100015E40, symSize: 0x2C }
  - { offset: 0x51FE9, size: 0x8, addend: 0x0, symName: __ZNSt3__116__non_trivial_ifILb1ENS_9allocatorINS_5tupleIJiiiEEEEEEC2B8ne180100Ev, symObjAddr: 0x5DDC, symBinAddr: 0x100015E6C, symSize: 0x14 }
  - { offset: 0x52012, size: 0x8, addend: 0x0, symName: __ZNSt3__112basic_stringIcNS_11char_traitsIcEENS_9allocatorIcEEE13__move_assignB8ne180100ERS5_NS_17integral_constantIbLb1EEE, symObjAddr: 0x5DF0, symBinAddr: 0x100015E80, symSize: 0x17C }
  - { offset: 0x52073, size: 0x8, addend: 0x0, symName: __ZNSt3__116allocator_traitsINS_9allocatorIcEEE10deallocateB8ne180100ERS2_Pcm, symObjAddr: 0x5F6C, symBinAddr: 0x100015FFC, symSize: 0x34 }
  - { offset: 0x520B5, size: 0x8, addend: 0x0, symName: __ZNKSt3__112basic_stringIcNS_11char_traitsIcEENS_9allocatorIcEEE14__get_long_capB8ne180100Ev, symObjAddr: 0x5FC4, symBinAddr: 0x100016030, symSize: 0x30 }
  - { offset: 0x520DB, size: 0x8, addend: 0x0, symName: __ZNSt3__112basic_stringIcNS_11char_traitsIcEENS_9allocatorIcEEE19__move_assign_allocB8ne180100ERS5_, symObjAddr: 0x5FF4, symBinAddr: 0x100016060, symSize: 0x2C }
  - { offset: 0x52110, size: 0x8, addend: 0x0, symName: __ZNSt3__111char_traitsIcE6assignB8ne180100ERcRKc, symObjAddr: 0x6098, symBinAddr: 0x10001608C, symSize: 0x24 }
  - { offset: 0x52141, size: 0x8, addend: 0x0, symName: __ZNKSt3__112basic_stringIcNS_11char_traitsIcEENS_9allocatorIcEEE17__annotate_shrinkB8ne180100Em, symObjAddr: 0x60BC, symBinAddr: 0x1000160B0, symSize: 0x14 }
  - { offset: 0x52176, size: 0x8, addend: 0x0, symName: __ZNSt3__19allocatorIcE10deallocateB8ne180100EPcm, symObjAddr: 0x60D0, symBinAddr: 0x1000160C4, symSize: 0x40 }
  - { offset: 0x521B8, size: 0x8, addend: 0x0, symName: __ZNSt3__112basic_stringIcNS_11char_traitsIcEENS_9allocatorIcEEE19__move_assign_allocB8ne180100ERS5_NS_17integral_constantIbLb1EEE, symObjAddr: 0x6148, symBinAddr: 0x100016104, symSize: 0x38 }
  - { offset: 0x521F9, size: 0x8, addend: 0x0, symName: __ZNSt3__16vectorINS_5tupleIJiiiEEENS_9allocatorIS2_EEE9__end_capB8ne180100Ev, symObjAddr: 0x6524, symBinAddr: 0x10001613C, symSize: 0x28 }
  - { offset: 0x5221F, size: 0x8, addend: 0x0, symName: __ZNSt3__16vectorINS_5tupleIJiiiEEENS_9allocatorIS2_EEE22__construct_one_at_endB8ne180100IJRiS7_S7_EEEvDpOT_, symObjAddr: 0x654C, symBinAddr: 0x100016164, symSize: 0xA0 }
  - { offset: 0x52295, size: 0x8, addend: 0x0, symName: __ZNSt3__16vectorINS_5tupleIJiiiEEENS_9allocatorIS2_EEE24__emplace_back_slow_pathIJRiS7_S7_EEEPS2_DpOT_, symObjAddr: 0x65EC, symBinAddr: 0x100016204, symSize: 0xF8 }
  - { offset: 0x5231D, size: 0x8, addend: 0x0, symName: __ZNSt3__117__compressed_pairIPNS_5tupleIJiiiEEENS_9allocatorIS2_EEE5firstB8ne180100Ev, symObjAddr: 0x66E4, symBinAddr: 0x1000162FC, symSize: 0x24 }
  - { offset: 0x52343, size: 0x8, addend: 0x0, symName: __ZNSt3__122__compressed_pair_elemIPNS_5tupleIJiiiEEELi0ELb0EE5__getB8ne180100Ev, symObjAddr: 0x6708, symBinAddr: 0x100016320, symSize: 0x14 }
  - { offset: 0x52382, size: 0x8, addend: 0x0, symName: __ZNSt3__16vectorINS_5tupleIJiiiEEENS_9allocatorIS2_EEE21_ConstructTransactionC1B8ne180100ERS5_m, symObjAddr: 0x671C, symBinAddr: 0x100016334, symSize: 0x3C }
  - { offset: 0x523CA, size: 0x8, addend: 0x0, symName: __ZNSt3__116allocator_traitsINS_9allocatorINS_5tupleIJiiiEEEEEE9constructB8ne180100IS3_JRiS7_S7_EvvEEvRS4_PT_DpOT0_, symObjAddr: 0x6758, symBinAddr: 0x100016370, symSize: 0x40 }
  - { offset: 0x52447, size: 0x8, addend: 0x0, symName: __ZNSt3__16vectorINS_5tupleIJiiiEEENS_9allocatorIS2_EEE21_ConstructTransactionD1B8ne180100Ev, symObjAddr: 0x6798, symBinAddr: 0x1000163B0, symSize: 0x2C }
  - { offset: 0x52471, size: 0x8, addend: 0x0, symName: __ZNSt3__16vectorINS_5tupleIJiiiEEENS_9allocatorIS2_EEE21_ConstructTransactionC2B8ne180100ERS5_m, symObjAddr: 0x67C4, symBinAddr: 0x1000163DC, symSize: 0x4C }
  - { offset: 0x524B9, size: 0x8, addend: 0x0, symName: __ZNSt3__15tupleIJiiiEEC1B8ne180100IJRiS3_S3_ELi0EEEDpOT_, symObjAddr: 0x6890, symBinAddr: 0x1000164A8, symSize: 0x44 }
  - { offset: 0x5252B, size: 0x8, addend: 0x0, symName: __ZNSt3__15tupleIJiiiEEC2B8ne180100IJRiS3_S3_ELi0EEEDpOT_, symObjAddr: 0x68D4, symBinAddr: 0x1000164EC, symSize: 0x44 }
  - { offset: 0x5259D, size: 0x8, addend: 0x0, symName: __ZNSt3__112__tuple_implINS_15__tuple_indicesIJLm0ELm1ELm2EEEEJiiiEEC1B8ne180100IJLm0ELm1ELm2EEJiiiEJEJEJRiS5_S5_EEENS1_IJXspT_EEEENS_13__tuple_typesIJDpT0_EEENS1_IJXspT1_EEEENS7_IJDpT2_EEEDpOT3_, symObjAddr: 0x6918, symBinAddr: 0x100016530, symSize: 0x44 }
  - { offset: 0x52670, size: 0x8, addend: 0x0, symName: __ZNSt3__112__tuple_implINS_15__tuple_indicesIJLm0ELm1ELm2EEEEJiiiEEC2B8ne180100IJLm0ELm1ELm2EEJiiiEJEJEJRiS5_S5_EEENS1_IJXspT_EEEENS_13__tuple_typesIJDpT0_EEENS1_IJXspT1_EEEENS7_IJDpT2_EEEDpOT3_, symObjAddr: 0x695C, symBinAddr: 0x100016574, symSize: 0x5C }
  - { offset: 0x52743, size: 0x8, addend: 0x0, symName: __ZNSt3__112__tuple_leafILm0EiLb0EEC2B8ne180100IRivEEOT_, symObjAddr: 0x69B8, symBinAddr: 0x1000165D0, symSize: 0x24 }
  - { offset: 0x52786, size: 0x8, addend: 0x0, symName: __ZNSt3__112__tuple_leafILm1EiLb0EEC2B8ne180100IRivEEOT_, symObjAddr: 0x69DC, symBinAddr: 0x1000165F4, symSize: 0x24 }
  - { offset: 0x527C9, size: 0x8, addend: 0x0, symName: __ZNSt3__112__tuple_leafILm2EiLb0EEC2B8ne180100IRivEEOT_, symObjAddr: 0x6A00, symBinAddr: 0x100016618, symSize: 0x24 }
  - { offset: 0x5280C, size: 0x8, addend: 0x0, symName: __ZNSt3__16vectorINS_5tupleIJiiiEEENS_9allocatorIS2_EEE21_ConstructTransactionD2B8ne180100Ev, symObjAddr: 0x6A24, symBinAddr: 0x10001663C, symSize: 0x20 }
  - { offset: 0x52835, size: 0x8, addend: 0x0, symName: __ZNKSt3__16vectorINS_5tupleIJiiiEEENS_9allocatorIS2_EEE11__recommendB8ne180100Em, symObjAddr: 0x6A44, symBinAddr: 0x10001665C, symSize: 0xB4 }
  - { offset: 0x5288A, size: 0x8, addend: 0x0, symName: __ZNSt3__114__split_bufferINS_5tupleIJiiiEEERNS_9allocatorIS2_EEEC1EmmS5_, symObjAddr: 0x6AF8, symBinAddr: 0x100016710, symSize: 0x44 }
  - { offset: 0x528E0, size: 0x8, addend: 0x0, symName: __ZNSt3__114__split_bufferINS_5tupleIJiiiEEERNS_9allocatorIS2_EEED1Ev, symObjAddr: 0x6C4C, symBinAddr: 0x100016864, symSize: 0x2C }
  - { offset: 0x5290B, size: 0x8, addend: 0x0, symName: __ZNKSt3__16vectorINS_5tupleIJiiiEEENS_9allocatorIS2_EEE8max_sizeEv, symObjAddr: 0x6C78, symBinAddr: 0x100016890, symSize: 0x60 }
  - { offset: 0x52933, size: 0x8, addend: 0x0, symName: __ZNKSt3__16vectorINS_5tupleIJiiiEEENS_9allocatorIS2_EEE20__throw_length_errorB8ne180100Ev, symObjAddr: 0x6CD8, symBinAddr: 0x1000168F0, symSize: 0x1C }
  - { offset: 0x52963, size: 0x8, addend: 0x0, symName: __ZNSt3__116allocator_traitsINS_9allocatorINS_5tupleIJiiiEEEEEE8max_sizeB8ne180100IS4_vvEEmRKS4_, symObjAddr: 0x6CF4, symBinAddr: 0x10001690C, symSize: 0x28 }
  - { offset: 0x5298F, size: 0x8, addend: 0x0, symName: __ZNKSt3__16vectorINS_5tupleIJiiiEEENS_9allocatorIS2_EEE7__allocB8ne180100Ev, symObjAddr: 0x6D1C, symBinAddr: 0x100016934, symSize: 0x28 }
  - { offset: 0x529B5, size: 0x8, addend: 0x0, symName: __ZNKSt3__117__compressed_pairIPNS_5tupleIJiiiEEENS_9allocatorIS2_EEE6secondB8ne180100Ev, symObjAddr: 0x6D44, symBinAddr: 0x10001695C, symSize: 0x24 }
  - { offset: 0x529DB, size: 0x8, addend: 0x0, symName: __ZNKSt3__122__compressed_pair_elemINS_9allocatorINS_5tupleIJiiiEEEEELi1ELb1EE5__getB8ne180100Ev, symObjAddr: 0x6D68, symBinAddr: 0x100016980, symSize: 0x14 }
  - { offset: 0x52A01, size: 0x8, addend: 0x0, symName: __ZNSt3__114__split_bufferINS_5tupleIJiiiEEERNS_9allocatorIS2_EEEC2EmmS5_, symObjAddr: 0x6D7C, symBinAddr: 0x100016994, symSize: 0xE0 }
  - { offset: 0x52A74, size: 0x8, addend: 0x0, symName: __ZNSt3__117__compressed_pairIPNS_5tupleIJiiiEEERNS_9allocatorIS2_EEEC1B8ne180100IDnS6_EEOT_OT0_, symObjAddr: 0x6E5C, symBinAddr: 0x100016A74, symSize: 0x3C }
  - { offset: 0x52ACC, size: 0x8, addend: 0x0, symName: __ZNSt3__114__split_bufferINS_5tupleIJiiiEEERNS_9allocatorIS2_EEE7__allocB8ne180100Ev, symObjAddr: 0x6ED8, symBinAddr: 0x100016AF0, symSize: 0x28 }
  - { offset: 0x52AF2, size: 0x8, addend: 0x0, symName: __ZNSt3__114__split_bufferINS_5tupleIJiiiEEERNS_9allocatorIS2_EEE9__end_capB8ne180100Ev, symObjAddr: 0x6F00, symBinAddr: 0x100016B18, symSize: 0x28 }
  - { offset: 0x52B18, size: 0x8, addend: 0x0, symName: __ZNSt3__117__compressed_pairIPNS_5tupleIJiiiEEERNS_9allocatorIS2_EEEC2B8ne180100IDnS6_EEOT_OT0_, symObjAddr: 0x6F28, symBinAddr: 0x100016B40, symSize: 0x48 }
  - { offset: 0x52B70, size: 0x8, addend: 0x0, symName: __ZNSt3__122__compressed_pair_elemIRNS_9allocatorINS_5tupleIJiiiEEEEELi1ELb0EEC2B8ne180100IS5_vEEOT_, symObjAddr: 0x6F70, symBinAddr: 0x100016B88, symSize: 0x20 }
  - { offset: 0x52BB2, size: 0x8, addend: 0x0, symName: __ZNSt3__19allocatorINS_5tupleIJiiiEEEE8allocateB8ne180100Em, symObjAddr: 0x6F90, symBinAddr: 0x100016BA8, symSize: 0x5C }
  - { offset: 0x52BE6, size: 0x8, addend: 0x0, symName: __ZNSt3__117__compressed_pairIPNS_5tupleIJiiiEEERNS_9allocatorIS2_EEE6secondB8ne180100Ev, symObjAddr: 0x6FEC, symBinAddr: 0x100016C04, symSize: 0x28 }
  - { offset: 0x52C0C, size: 0x8, addend: 0x0, symName: __ZNSt3__122__compressed_pair_elemIRNS_9allocatorINS_5tupleIJiiiEEEEELi1ELb0EE5__getB8ne180100Ev, symObjAddr: 0x7014, symBinAddr: 0x100016C2C, symSize: 0x18 }
  - { offset: 0x52C32, size: 0x8, addend: 0x0, symName: __ZNSt3__117__compressed_pairIPNS_5tupleIJiiiEEERNS_9allocatorIS2_EEE5firstB8ne180100Ev, symObjAddr: 0x702C, symBinAddr: 0x100016C44, symSize: 0x24 }
  - { offset: 0x52C58, size: 0x8, addend: 0x0, symName: __ZNSt3__116reverse_iteratorIPNS_5tupleIJiiiEEEEC1B8ne180100ES3_, symObjAddr: 0x717C, symBinAddr: 0x100016D94, symSize: 0x34 }
  - { offset: 0x52C90, size: 0x8, addend: 0x0, symName: __ZNKSt3__116reverse_iteratorIPNS_5tupleIJiiiEEEE4baseB8ne180100Ev, symObjAddr: 0x71B0, symBinAddr: 0x100016DC8, symSize: 0x18 }
  - { offset: 0x52CB6, size: 0x8, addend: 0x0, symName: __ZNKSt3__16vectorINS_5tupleIJiiiEEENS_9allocatorIS2_EEE14__annotate_newB8ne180100Em, symObjAddr: 0x7204, symBinAddr: 0x100016E1C, symSize: 0x14 }
  - { offset: 0x52CEB, size: 0x8, addend: 0x0, symName: __ZNSt3__129_AllocatorDestroyRangeReverseINS_9allocatorINS_5tupleIJiiiEEEEENS_16reverse_iteratorIPS3_EEEC1B8ne180100ERS4_RS7_SA_, symObjAddr: 0x7264, symBinAddr: 0x100016E7C, symSize: 0x44 }
  - { offset: 0x52D42, size: 0x8, addend: 0x0, symName: __ZNSt3__116allocator_traitsINS_9allocatorINS_5tupleIJiiiEEEEEE9constructB8ne180100IS3_JS3_EvvEEvRS4_PT_DpOT0_, symObjAddr: 0x72F0, symBinAddr: 0x100016F08, symSize: 0x30 }
  - { offset: 0x52D97, size: 0x8, addend: 0x0, symName: __ZNKSt3__116reverse_iteratorIPNS_5tupleIJiiiEEEEdeB8ne180100Ev, symObjAddr: 0x7344, symBinAddr: 0x100016F5C, symSize: 0x28 }
  - { offset: 0x52DCB, size: 0x8, addend: 0x0, symName: __ZNSt3__116reverse_iteratorIPNS_5tupleIJiiiEEEEppB8ne180100Ev, symObjAddr: 0x736C, symBinAddr: 0x100016F84, symSize: 0x20 }
  - { offset: 0x52DF1, size: 0x8, addend: 0x0, symName: __ZNSt3__128__exception_guard_exceptionsINS_29_AllocatorDestroyRangeReverseINS_9allocatorINS_5tupleIJiiiEEEEENS_16reverse_iteratorIPS4_EEEEE10__completeB8ne180100Ev, symObjAddr: 0x738C, symBinAddr: 0x100016FA4, symSize: 0x1C }
  - { offset: 0x52E17, size: 0x8, addend: 0x0, symName: __ZNSt3__128__exception_guard_exceptionsINS_29_AllocatorDestroyRangeReverseINS_9allocatorINS_5tupleIJiiiEEEEENS_16reverse_iteratorIPS4_EEEEED1B8ne180100Ev, symObjAddr: 0x73A8, symBinAddr: 0x100016FC0, symSize: 0x2C }
  - { offset: 0x52E41, size: 0x8, addend: 0x0, symName: __ZNSt3__128__exception_guard_exceptionsINS_29_AllocatorDestroyRangeReverseINS_9allocatorINS_5tupleIJiiiEEEEENS_16reverse_iteratorIPS4_EEEEEC1B8ne180100ES9_, symObjAddr: 0x73D4, symBinAddr: 0x100016FEC, symSize: 0x34 }
  - { offset: 0x52E7A, size: 0x8, addend: 0x0, symName: __ZNSt3__128__exception_guard_exceptionsINS_29_AllocatorDestroyRangeReverseINS_9allocatorINS_5tupleIJiiiEEEEENS_16reverse_iteratorIPS4_EEEEEC2B8ne180100ES9_, symObjAddr: 0x7408, symBinAddr: 0x100017020, symSize: 0x30 }
  - { offset: 0x52EB3, size: 0x8, addend: 0x0, symName: __ZNSt3__129_AllocatorDestroyRangeReverseINS_9allocatorINS_5tupleIJiiiEEEEENS_16reverse_iteratorIPS3_EEEC2B8ne180100ERS4_RS7_SA_, symObjAddr: 0x7438, symBinAddr: 0x100017050, symSize: 0x38 }
  - { offset: 0x52F0F, size: 0x8, addend: 0x0, symName: __ZNSt3__119__to_address_helperINS_16reverse_iteratorIPNS_5tupleIJiiiEEEEEvE6__callB8ne180100ERKS5_, symObjAddr: 0x74C8, symBinAddr: 0x1000170E0, symSize: 0x38 }
  - { offset: 0x52F32, size: 0x8, addend: 0x0, symName: __ZNKSt3__116reverse_iteratorIPNS_5tupleIJiiiEEEEptB8ne180100Ev, symObjAddr: 0x7500, symBinAddr: 0x100017118, symSize: 0x2C }
  - { offset: 0x52F58, size: 0x8, addend: 0x0, symName: __ZNSt3__128__exception_guard_exceptionsINS_29_AllocatorDestroyRangeReverseINS_9allocatorINS_5tupleIJiiiEEEEENS_16reverse_iteratorIPS4_EEEEED2B8ne180100Ev, symObjAddr: 0x75D0, symBinAddr: 0x1000171E8, symSize: 0x50 }
  - { offset: 0x52F82, size: 0x8, addend: 0x0, symName: __ZNKSt3__129_AllocatorDestroyRangeReverseINS_9allocatorINS_5tupleIJiiiEEEEENS_16reverse_iteratorIPS3_EEEclB8ne180100Ev, symObjAddr: 0x7620, symBinAddr: 0x100017238, symSize: 0xB4 }
  - { offset: 0x52FA9, size: 0x8, addend: 0x0, symName: __ZNSt3__116reverse_iteratorINS0_IPNS_5tupleIJiiiEEEEEEC1B8ne180100ES4_, symObjAddr: 0x7744, symBinAddr: 0x10001735C, symSize: 0x3C }
  - { offset: 0x52FE1, size: 0x8, addend: 0x0, symName: __ZNSt3__116reverse_iteratorINS0_IPNS_5tupleIJiiiEEEEEEppB8ne180100Ev, symObjAddr: 0x7804, symBinAddr: 0x10001741C, symSize: 0x30 }
  - { offset: 0x53007, size: 0x8, addend: 0x0, symName: __ZNKSt3__116reverse_iteratorINS0_IPNS_5tupleIJiiiEEEEEE4baseB8ne180100Ev, symObjAddr: 0x7834, symBinAddr: 0x10001744C, symSize: 0x24 }
  - { offset: 0x53032, size: 0x8, addend: 0x0, symName: __ZNSt3__119__to_address_helperINS_16reverse_iteratorINS1_IPNS_5tupleIJiiiEEEEEEEvE6__callB8ne180100ERKS6_, symObjAddr: 0x7858, symBinAddr: 0x100017470, symSize: 0x38 }
  - { offset: 0x53055, size: 0x8, addend: 0x0, symName: __ZNKSt3__116reverse_iteratorINS0_IPNS_5tupleIJiiiEEEEEEptB8ne180100Ev, symObjAddr: 0x7890, symBinAddr: 0x1000174A8, symSize: 0x4C }
  - { offset: 0x5307B, size: 0x8, addend: 0x0, symName: __ZNSt3__116reverse_iteratorIPNS_5tupleIJiiiEEEEpLB8ne180100El, symObjAddr: 0x798C, symBinAddr: 0x1000175A4, symSize: 0x30 }
  - { offset: 0x530AF, size: 0x8, addend: 0x0, symName: __ZNSt3__116reverse_iteratorIPNS_5tupleIJiiiEEEEmmB8ne180100Ev, symObjAddr: 0x79BC, symBinAddr: 0x1000175D4, symSize: 0x20 }
  - { offset: 0x530D5, size: 0x8, addend: 0x0, symName: __ZNSt3__116reverse_iteratorINS0_IPNS_5tupleIJiiiEEEEEEC2B8ne180100ES4_, symObjAddr: 0x79DC, symBinAddr: 0x1000175F4, symSize: 0x2C }
  - { offset: 0x5310D, size: 0x8, addend: 0x0, symName: __ZNSt3__116reverse_iteratorIPNS_5tupleIJiiiEEEEC2B8ne180100ES3_, symObjAddr: 0x7A08, symBinAddr: 0x100017620, symSize: 0x28 }
  - { offset: 0x53145, size: 0x8, addend: 0x0, symName: __ZNSt3__114__split_bufferINS_5tupleIJiiiEEERNS_9allocatorIS2_EEED2Ev, symObjAddr: 0x7A30, symBinAddr: 0x100017648, symSize: 0x8C }
  - { offset: 0x53171, size: 0x8, addend: 0x0, symName: __ZNSt3__114__split_bufferINS_5tupleIJiiiEEERNS_9allocatorIS2_EEE5clearB8ne180100Ev, symObjAddr: 0x7ABC, symBinAddr: 0x1000176D4, symSize: 0x28 }
  - { offset: 0x53197, size: 0x8, addend: 0x0, symName: __ZNKSt3__114__split_bufferINS_5tupleIJiiiEEERNS_9allocatorIS2_EEE8capacityB8ne180100Ev, symObjAddr: 0x7AE4, symBinAddr: 0x1000176FC, symSize: 0x40 }
  - { offset: 0x531BD, size: 0x8, addend: 0x0, symName: __ZNSt3__114__split_bufferINS_5tupleIJiiiEEERNS_9allocatorIS2_EEE17__destruct_at_endB8ne180100EPS2_, symObjAddr: 0x7B24, symBinAddr: 0x10001773C, symSize: 0x2C }
  - { offset: 0x531F0, size: 0x8, addend: 0x0, symName: __ZNSt3__114__split_bufferINS_5tupleIJiiiEEERNS_9allocatorIS2_EEE17__destruct_at_endB8ne180100EPS2_NS_17integral_constantIbLb0EEE, symObjAddr: 0x7B50, symBinAddr: 0x100017768, symSize: 0x80 }
  - { offset: 0x53230, size: 0x8, addend: 0x0, symName: __ZNKSt3__114__split_bufferINS_5tupleIJiiiEEERNS_9allocatorIS2_EEE9__end_capB8ne180100Ev, symObjAddr: 0x7BD0, symBinAddr: 0x1000177E8, symSize: 0x28 }
  - { offset: 0x53256, size: 0x8, addend: 0x0, symName: __ZNKSt3__117__compressed_pairIPNS_5tupleIJiiiEEERNS_9allocatorIS2_EEE5firstB8ne180100Ev, symObjAddr: 0x7BF8, symBinAddr: 0x100017810, symSize: 0x24 }
  - { offset: 0x5327C, size: 0x8, addend: 0x0, symName: __ZNKSt3__16__lessIvvEclB8ne180100IiiEEbRKT_RKT0_, symObjAddr: 0x7C70, symBinAddr: 0x100017888, symSize: 0x34 }
  - { offset: 0x532D0, size: 0x8, addend: 0x0, symName: __ZNSt3__118basic_stringstreamIcNS_11char_traitsIcEENS_9allocatorIcEEED2Ev, symObjAddr: 0x7CA4, symBinAddr: 0x1000178BC, symSize: 0x6C }
  - { offset: 0x5330A, size: 0x8, addend: 0x0, symName: __ZThn16_NSt3__118basic_stringstreamIcNS_11char_traitsIcEENS_9allocatorIcEEED1Ev, symObjAddr: 0x7D10, symBinAddr: 0x100017928, symSize: 0x1C }
  - { offset: 0x53321, size: 0x8, addend: 0x0, symName: __ZTv0_n24_NSt3__118basic_stringstreamIcNS_11char_traitsIcEENS_9allocatorIcEEED1Ev, symObjAddr: 0x7D2C, symBinAddr: 0x100017944, symSize: 0x28 }
  - { offset: 0x5333D, size: 0x8, addend: 0x0, symName: __ZNSt3__115basic_stringbufIcNS_11char_traitsIcEENS_9allocatorIcEEED1Ev, symObjAddr: 0x7D54, symBinAddr: 0x10001796C, symSize: 0x2C }
  - { offset: 0x5336A, size: 0x8, addend: 0x0, symName: __ZNSt3__115basic_stringbufIcNS_11char_traitsIcEENS_9allocatorIcEEED2Ev, symObjAddr: 0x7D80, symBinAddr: 0x100017998, symSize: 0x48 }
  - { offset: 0x53397, size: 0x8, addend: 0x0, symName: __ZNSt3__114basic_ifstreamIcNS_11char_traitsIcEEED2Ev, symObjAddr: 0x7DC8, symBinAddr: 0x1000179E0, symSize: 0x64 }
  - { offset: 0x533D1, size: 0x8, addend: 0x0, symName: __ZTv0_n24_NSt3__114basic_ifstreamIcNS_11char_traitsIcEEED1Ev, symObjAddr: 0x7E2C, symBinAddr: 0x100017A44, symSize: 0x28 }
  - { offset: 0x533E8, size: 0x8, addend: 0x0, symName: __ZNSt3__16vectorIiNS_9allocatorIiEEEC2B8ne180100Ev, symObjAddr: 0x7E54, symBinAddr: 0x100017A6C, symSize: 0x4C }
  - { offset: 0x53417, size: 0x8, addend: 0x0, symName: __ZNSt3__16vectorIiNS_9allocatorIiEEE22__construct_one_at_endB8ne180100IJiEEEvDpOT_, symObjAddr: 0x7FCC, symBinAddr: 0x100017AB8, symSize: 0x90 }
  - { offset: 0x53465, size: 0x8, addend: 0x0, symName: __ZNSt3__16vectorIiNS_9allocatorIiEEE21__push_back_slow_pathIiEEPiOT_, symObjAddr: 0x805C, symBinAddr: 0x100017B48, symSize: 0xE8 }
  - { offset: 0x534DC, size: 0x8, addend: 0x0, symName: __ZNSt3__116allocator_traitsINS_9allocatorIiEEE9constructB8ne180100IiJiEvvEEvRS2_PT_DpOT0_, symObjAddr: 0x81B8, symBinAddr: 0x100017C30, symSize: 0x30 }
  - { offset: 0x53530, size: 0x8, addend: 0x0, symName: __ZNKSt3__16vectorIiNS_9allocatorIiEEE11__recommendB8ne180100Em, symObjAddr: 0x833C, symBinAddr: 0x100017CB0, symSize: 0xB4 }
  - { offset: 0x53585, size: 0x8, addend: 0x0, symName: __ZNSt3__114__split_bufferIiRNS_9allocatorIiEEEC1EmmS3_, symObjAddr: 0x83F0, symBinAddr: 0x100017D64, symSize: 0x44 }
  - { offset: 0x535DB, size: 0x8, addend: 0x0, symName: __ZNSt3__114__split_bufferIiRNS_9allocatorIiEEED1Ev, symObjAddr: 0x8544, symBinAddr: 0x100017EB8, symSize: 0x2C }
  - { offset: 0x53611, size: 0x8, addend: 0x0, symName: __ZNSt3__114__split_bufferIiRNS_9allocatorIiEEEC2EmmS3_, symObjAddr: 0x8714, symBinAddr: 0x100017EE4, symSize: 0xD4 }
  - { offset: 0x53684, size: 0x8, addend: 0x0, symName: __ZNSt3__117__compressed_pairIPiRNS_9allocatorIiEEEC1B8ne180100IDnS4_EEOT_OT0_, symObjAddr: 0x87E8, symBinAddr: 0x100017FB8, symSize: 0x3C }
  - { offset: 0x536DC, size: 0x8, addend: 0x0, symName: __ZNSt3__114__split_bufferIiRNS_9allocatorIiEEE7__allocB8ne180100Ev, symObjAddr: 0x8864, symBinAddr: 0x100017FF4, symSize: 0x28 }
  - { offset: 0x53702, size: 0x8, addend: 0x0, symName: __ZNSt3__114__split_bufferIiRNS_9allocatorIiEEE9__end_capB8ne180100Ev, symObjAddr: 0x888C, symBinAddr: 0x10001801C, symSize: 0x28 }
  - { offset: 0x53728, size: 0x8, addend: 0x0, symName: __ZNSt3__117__compressed_pairIPiRNS_9allocatorIiEEEC2B8ne180100IDnS4_EEOT_OT0_, symObjAddr: 0x88B4, symBinAddr: 0x100018044, symSize: 0x48 }
  - { offset: 0x53780, size: 0x8, addend: 0x0, symName: __ZNSt3__122__compressed_pair_elemIRNS_9allocatorIiEELi1ELb0EEC2B8ne180100IS3_vEEOT_, symObjAddr: 0x88FC, symBinAddr: 0x10001808C, symSize: 0x20 }
  - { offset: 0x537C2, size: 0x8, addend: 0x0, symName: __ZNSt3__117__compressed_pairIPiRNS_9allocatorIiEEE6secondB8ne180100Ev, symObjAddr: 0x8974, symBinAddr: 0x1000180AC, symSize: 0x28 }
  - { offset: 0x537E8, size: 0x8, addend: 0x0, symName: __ZNSt3__122__compressed_pair_elemIRNS_9allocatorIiEELi1ELb0EE5__getB8ne180100Ev, symObjAddr: 0x899C, symBinAddr: 0x1000180D4, symSize: 0x18 }
  - { offset: 0x5380E, size: 0x8, addend: 0x0, symName: __ZNSt3__117__compressed_pairIPiRNS_9allocatorIiEEE5firstB8ne180100Ev, symObjAddr: 0x89B4, symBinAddr: 0x1000180EC, symSize: 0x24 }
  - { offset: 0x53834, size: 0x8, addend: 0x0, symName: __ZNSt3__116reverse_iteratorIPiEC1B8ne180100ES1_, symObjAddr: 0x8A60, symBinAddr: 0x100018188, symSize: 0x34 }
  - { offset: 0x5386C, size: 0x8, addend: 0x0, symName: __ZNKSt3__116reverse_iteratorIPiE4baseB8ne180100Ev, symObjAddr: 0x8A94, symBinAddr: 0x1000181BC, symSize: 0x18 }
  - { offset: 0x538B5, size: 0x8, addend: 0x0, symName: __ZNKSt3__111__move_loopINS_17_ClassicAlgPolicyEEclB8ne180100INS_16reverse_iteratorIPiEES6_S6_EENS_4pairIT_T1_EES8_T0_S9_, symObjAddr: 0x8DB4, symBinAddr: 0x1000184C8, symSize: 0xA0 }
  - { offset: 0x53920, size: 0x8, addend: 0x0, symName: __ZNSt3__119__unwrap_range_implINS_16reverse_iteratorIPiEES3_E8__unwrapB8ne180100ES3_S3_, symObjAddr: 0x8FA0, symBinAddr: 0x1000186B4, symSize: 0x84 }
  - { offset: 0x53956, size: 0x8, addend: 0x0, symName: __ZNSt3__14pairINS_16reverse_iteratorIPiEES3_EC1B8ne180100IS3_S3_Li0EEEOT_OT0_, symObjAddr: 0x9024, symBinAddr: 0x100018738, symSize: 0x3C }
  - { offset: 0x539B4, size: 0x8, addend: 0x0, symName: __ZNSt3__14pairINS_16reverse_iteratorIPiEES3_EC2B8ne180100IS3_S3_Li0EEEOT_OT0_, symObjAddr: 0x9060, symBinAddr: 0x100018774, symSize: 0x34 }
  - { offset: 0x53A17, size: 0x8, addend: 0x0, symName: __ZNSt3__18_IterOpsINS_17_ClassicAlgPolicyEE11__iter_moveB8ne180100IRNS_16reverse_iteratorIPiEELi0EEEDTclsr3stdE4movedeclsr3stdE7declvalIRT_EEEEOS8_, symObjAddr: 0x90DC, symBinAddr: 0x1000187F0, symSize: 0x28 }
  - { offset: 0x53A49, size: 0x8, addend: 0x0, symName: __ZNKSt3__116reverse_iteratorIPiEdeB8ne180100Ev, symObjAddr: 0x9104, symBinAddr: 0x100018818, symSize: 0x28 }
  - { offset: 0x53A7D, size: 0x8, addend: 0x0, symName: __ZNSt3__116reverse_iteratorIPiEppB8ne180100Ev, symObjAddr: 0x912C, symBinAddr: 0x100018840, symSize: 0x20 }
  - { offset: 0x53AA3, size: 0x8, addend: 0x0, symName: __ZNSt3__18_IterOpsINS_17_ClassicAlgPolicyEE25__validate_iter_referenceB8ne180100IRNS_16reverse_iteratorIPiEEEEvv, symObjAddr: 0x914C, symBinAddr: 0x100018860, symSize: 0x4 }
  - { offset: 0x53AC1, size: 0x8, addend: 0x0, symName: __ZNSt3__118__unwrap_iter_implINS_16reverse_iteratorIPiEELb0EE8__unwrapB8ne180100ES3_, symObjAddr: 0x9150, symBinAddr: 0x100018864, symSize: 0x24 }
  - { offset: 0x53AE4, size: 0x8, addend: 0x0, symName: __ZNSt3__119__unwrap_range_implINS_16reverse_iteratorIPiEES3_E8__rewrapB8ne180100ES3_S3_, symObjAddr: 0x9174, symBinAddr: 0x100018888, symSize: 0x5C }
  - { offset: 0x53B15, size: 0x8, addend: 0x0, symName: __ZNSt3__118__unwrap_iter_implINS_16reverse_iteratorIPiEELb0EE8__rewrapB8ne180100ES3_S3_, symObjAddr: 0x91D0, symBinAddr: 0x1000188E4, symSize: 0x2C }
  - { offset: 0x53B42, size: 0x8, addend: 0x0, symName: __ZNSt3__116reverse_iteratorIPiEC2B8ne180100ES1_, symObjAddr: 0x91FC, symBinAddr: 0x100018910, symSize: 0x28 }
  - { offset: 0x53B7A, size: 0x8, addend: 0x0, symName: __ZNSt3__114__split_bufferIiRNS_9allocatorIiEEED2Ev, symObjAddr: 0x9224, symBinAddr: 0x100018938, symSize: 0x8C }
  - { offset: 0x53BA6, size: 0x8, addend: 0x0, symName: __ZNSt3__114__split_bufferIiRNS_9allocatorIiEEE5clearB8ne180100Ev, symObjAddr: 0x92B0, symBinAddr: 0x1000189C4, symSize: 0x28 }
  - { offset: 0x53BCC, size: 0x8, addend: 0x0, symName: __ZNKSt3__114__split_bufferIiRNS_9allocatorIiEEE8capacityB8ne180100Ev, symObjAddr: 0x930C, symBinAddr: 0x1000189EC, symSize: 0x40 }
  - { offset: 0x53BF2, size: 0x8, addend: 0x0, symName: __ZNSt3__114__split_bufferIiRNS_9allocatorIiEEE17__destruct_at_endB8ne180100EPi, symObjAddr: 0x934C, symBinAddr: 0x100018A2C, symSize: 0x2C }
  - { offset: 0x53C25, size: 0x8, addend: 0x0, symName: __ZNSt3__114__split_bufferIiRNS_9allocatorIiEEE17__destruct_at_endB8ne180100EPiNS_17integral_constantIbLb0EEE, symObjAddr: 0x9378, symBinAddr: 0x100018A58, symSize: 0x80 }
  - { offset: 0x53C65, size: 0x8, addend: 0x0, symName: __ZNKSt3__114__split_bufferIiRNS_9allocatorIiEEE9__end_capB8ne180100Ev, symObjAddr: 0x9470, symBinAddr: 0x100018AD8, symSize: 0x28 }
  - { offset: 0x53C8B, size: 0x8, addend: 0x0, symName: __ZNKSt3__117__compressed_pairIPiRNS_9allocatorIiEEE5firstB8ne180100Ev, symObjAddr: 0x9498, symBinAddr: 0x100018B00, symSize: 0x24 }
  - { offset: 0x53CE8, size: 0x8, addend: 0x0, symName: __ZNKSt3__113basic_istreamIcNS_11char_traitsIcEEE6sentrycvbB8ne180100Ev, symObjAddr: 0xB2AC, symBinAddr: 0x100018D5C, symSize: 0x1C }
  - { offset: 0x53D0D, size: 0x8, addend: 0x0, symName: __ZNSt3__112basic_stringIcNS_11char_traitsIcEENS_9allocatorIcEEE5clearB8ne180100Ev, symObjAddr: 0xB2C8, symBinAddr: 0x100018D78, symSize: 0x94 }
  - { offset: 0x53D44, size: 0x8, addend: 0x0, symName: __ZNSt3__115basic_streambufIcNS_11char_traitsIcEEE6sbumpcB8ne180100Ev, symObjAddr: 0xB380, symBinAddr: 0x100018E0C, symSize: 0x78 }
  - { offset: 0x53D6A, size: 0x8, addend: 0x0, symName: __ZNSt3__111char_traitsIcE12to_char_typeB8ne180100Ei, symObjAddr: 0xB428, symBinAddr: 0x100018E84, symSize: 0x18 }
  - { offset: 0x53D8E, size: 0x8, addend: 0x0, symName: __ZNSt3__111char_traitsIcE2eqEcc, symObjAddr: 0xB440, symBinAddr: 0x100018E9C, symSize: 0x28 }
  - { offset: 0x53DBF, size: 0x8, addend: 0x0, symName: __ZNSt3__18ios_base18__setstate_nothrowB8ne180100Ej, symObjAddr: 0xB514, symBinAddr: 0x100018EC4, symSize: 0x64 }
  - { offset: 0x53DF4, size: 0x8, addend: 0x0, symName: __ZNKSt3__19basic_iosIcNS_11char_traitsIcEEE10exceptionsB8ne180100Ev, symObjAddr: 0xB578, symBinAddr: 0x100018F28, symSize: 0x24 }
  - { offset: 0x53E1A, size: 0x8, addend: 0x0, symName: __ZNSt3__111char_traitsIcE11to_int_typeB8ne180100Ec, symObjAddr: 0xB618, symBinAddr: 0x100018F4C, symSize: 0x14 }
  - { offset: 0x53E3E, size: 0x8, addend: 0x0, symName: __ZNKSt3__18ios_base10exceptionsB8ne180100Ev, symObjAddr: 0xB6B0, symBinAddr: 0x100018F60, symSize: 0x18 }
  - { offset: 0x53E6B, size: 0x8, addend: 0x0, symName: __ZNKSt3__19basic_iosIcNS_11char_traitsIcEEE4failB8ne180100Ev, symObjAddr: 0xB760, symBinAddr: 0x100018F78, symSize: 0x28 }
  - { offset: 0x53E91, size: 0x8, addend: 0x0, symName: __ZNKSt3__18ios_base4failB8ne180100Ev, symObjAddr: 0xB788, symBinAddr: 0x100018FA0, symSize: 0x28 }
  - { offset: 0x53EB9, size: 0x8, addend: 0x0, symName: __ZNSt3__113basic_istreamIcNS_11char_traitsIcEEEC2B8ne180100EPNS_15basic_streambufIcS2_EE, symObjAddr: 0xB7EC, symBinAddr: 0x100018FC8, symSize: 0x64 }
  - { offset: 0x53F1C, size: 0x8, addend: 0x0, symName: __ZNSt3__114basic_iostreamIcNS_11char_traitsIcEEEC2B8ne180100EPNS_15basic_streambufIcS2_EE, symObjAddr: 0xBFF8, symBinAddr: 0x10001902C, symSize: 0xAC }
  - { offset: 0x53F62, size: 0x8, addend: 0x0, symName: __ZNSt3__115basic_stringbufIcNS_11char_traitsIcEENS_9allocatorIcEEEC1B8ne180100ERKNS_12basic_stringIcS2_S4_EEj, symObjAddr: 0xC0A4, symBinAddr: 0x1000190D8, symSize: 0x3C }
  - { offset: 0x53FAA, size: 0x8, addend: 0x0, symName: __ZNSt3__113basic_ostreamIcNS_11char_traitsIcEEEC2B8ne180100Ev, symObjAddr: 0xC0E0, symBinAddr: 0x100019114, symSize: 0x34 }
  - { offset: 0x53FE1, size: 0x8, addend: 0x0, symName: __ZNSt3__115basic_stringbufIcNS_11char_traitsIcEENS_9allocatorIcEEEC2B8ne180100ERKNS_12basic_stringIcS2_S4_EEj, symObjAddr: 0xC114, symBinAddr: 0x100019148, symSize: 0xA8 }
  - { offset: 0x54029, size: 0x8, addend: 0x0, symName: __ZNSt3__112basic_stringIcNS_11char_traitsIcEENS_9allocatorIcEEEC1B8ne180100ERKS4_, symObjAddr: 0xC1E0, symBinAddr: 0x1000191F0, symSize: 0x34 }
  - { offset: 0x54062, size: 0x8, addend: 0x0, symName: __ZNSt3__112basic_stringIcNS_11char_traitsIcEENS_9allocatorIcEEEC2B8ne180100ERKS4_, symObjAddr: 0xC214, symBinAddr: 0x100019224, symSize: 0x4C }
  - { offset: 0x5409B, size: 0x8, addend: 0x0, symName: __ZNSt3__117__compressed_pairINS_12basic_stringIcNS_11char_traitsIcEENS_9allocatorIcEEE5__repES5_EC1B8ne180100INS_16__value_init_tagERKS5_EEOT_OT0_, symObjAddr: 0xC260, symBinAddr: 0x100019270, symSize: 0x3C }
  - { offset: 0x540F3, size: 0x8, addend: 0x0, symName: __ZNSt3__117__compressed_pairINS_12basic_stringIcNS_11char_traitsIcEENS_9allocatorIcEEE5__repES5_EC2B8ne180100INS_16__value_init_tagERKS5_EEOT_OT0_, symObjAddr: 0xC29C, symBinAddr: 0x1000192AC, symSize: 0x40 }
  - { offset: 0x5414B, size: 0x8, addend: 0x0, symName: __ZNSt3__115basic_streambufIcNS_11char_traitsIcEEE5sgetcB8ne180100Ev, symObjAddr: 0xC2F4, symBinAddr: 0x1000192EC, symSize: 0x70 }
  - { offset: 0x54171, size: 0x8, addend: 0x0, symName: __ZNKSt3__15ctypeIcE2isB8ne180100Ejc, symObjAddr: 0xC364, symBinAddr: 0x10001935C, symSize: 0x7C }
  - { offset: 0x541B4, size: 0x8, addend: 0x0, symName: __Z7isasciii, symObjAddr: 0xC3E0, symBinAddr: 0x1000193D8, symSize: 0x24 }
...
