---
triple:          'arm64-apple-darwin'
binary-path:     main
relocations:
  - { offset: 0x2E51, size: 0x8, addend: 0x0, symName: __ZNSt3__124__put_character_sequenceB8ne180100IcNS_11char_traitsIcEEEERNS_13basic_ostreamIT_T0_EES7_PKS4_m, symObjAddr: 0x768, symBinAddr: 0x100002808, symSize: 0x1F4 }
  - { offset: 0x41A9, size: 0x8, addend: 0x0, symName: __ZNSt3__1lsB8ne180100INS_11char_traitsIcEEEERNS_13basic_ostreamIcT_EES6_PKc, symObjAddr: 0x33C, symBinAddr: 0x1000023DC, symSize: 0x48 }
  - { offset: 0x41EF, size: 0x8, addend: 0x0, symName: __ZNSt3__14endlB8ne180100IcNS_11char_traitsIcEEEERNS_13basic_ostreamIT_T0_EES7_, symObjAddr: 0x3B0, symBinAddr: 0x100002450, symSize: 0x58 }
  - { offset: 0x422F, size: 0x8, addend: 0x0, symName: __ZNSt3__118__constexpr_strlenB8ne180100EPKc, symObjAddr: 0x630, symBinAddr: 0x1000026D0, symSize: 0x24 }
  - { offset: 0x425B, size: 0x8, addend: 0x0, symName: __ZNSt3__116__pad_and_outputB8ne180100IcNS_11char_traitsIcEEEENS_19ostreambuf_iteratorIT_T0_EES6_PKS4_S8_S8_RNS_8ios_baseES4_, symObjAddr: 0x978, symBinAddr: 0x100002A18, symSize: 0x248 }
  - { offset: 0x432A, size: 0x8, addend: 0x0, symName: __ZNSt3__112__to_addressB8ne180100IKcEEPT_S3_, symObjAddr: 0xDF0, symBinAddr: 0x100002E90, symSize: 0x14 }
  - { offset: 0x435F, size: 0x8, addend: 0x0, symName: __ZNSt3__130__libcpp_is_constant_evaluatedB8ne180100Ev, symObjAddr: 0xF3C, symBinAddr: 0x100002FDC, symSize: 0xC }
  - { offset: 0x43AF, size: 0x8, addend: 0x0, symName: __ZNSt3__19use_facetB8ne180100INS_5ctypeIcEEEERKT_RKNS_6localeE, symObjAddr: 0x10F4, symBinAddr: 0x100003194, symSize: 0x2C }
  - { offset: 0x487C, size: 0x8, addend: 0x0, symName: __ZNSt3__115__libcpp_lgammaB8ne180100Ed, symObjAddr: 0x13B8, symBinAddr: 0x100003458, symSize: 0x28 }
  - { offset: 0x4A57, size: 0x8, addend: 0x0, symName: __ZNSt3__118generate_canonicalB8ne180100IdLm53ENS_23mersenne_twister_engineIjLm32ELm624ELm397ELm31ELj2567483615ELm11ELj4294967295ELm7ELj2636928640ELm15ELj4022730752ELm18ELj1812433253EEEEET_RT1_, symObjAddr: 0x1814, symBinAddr: 0x1000038B4, symSize: 0x10C }
  - { offset: 0x5B5A, size: 0x8, addend: 0x0, symName: __ZN5First14getProbabilityEv, symObjAddr: 0x0, symBinAddr: 0x1000020A0, symSize: 0x18 }
  - { offset: 0x5B7F, size: 0x8, addend: 0x0, symName: __ZN5First17executeSimulationEv, symObjAddr: 0x18, symBinAddr: 0x1000020B8, symSize: 0x2AC }
  - { offset: 0x5C3A, size: 0x8, addend: 0x0, symName: __ZNSt3__112basic_stringIcNS_11char_traitsIcEENS_9allocatorIcEEEC1B8ne180100ILi0EEEPKc, symObjAddr: 0x2C4, symBinAddr: 0x100002364, symSize: 0x34 }
  - { offset: 0x5C77, size: 0x8, addend: 0x0, symName: __ZNSt3__123mersenne_twister_engineIjLm32ELm624ELm397ELm31ELj2567483615ELm11ELj4294967295ELm7ELj2636928640ELm15ELj4022730752ELm18ELj1812433253EEC1B8ne180100Ej, symObjAddr: 0x308, symBinAddr: 0x1000023A8, symSize: 0x34 }
  - { offset: 0x5CAD, size: 0x8, addend: 0x0, symName: __ZNSt3__113basic_ostreamIcNS_11char_traitsIcEEElsB8ne180100EPFRS3_S4_E, symObjAddr: 0x384, symBinAddr: 0x100002424, symSize: 0x2C }
  - { offset: 0x5CDF, size: 0x8, addend: 0x0, symName: __ZNSt3__121binomial_distributionIiEC1B8ne180100Eid, symObjAddr: 0x408, symBinAddr: 0x1000024A8, symSize: 0x3C }
  - { offset: 0x5D28, size: 0x8, addend: 0x0, symName: __ZNSt3__121binomial_distributionIiEclB8ne180100INS_23mersenne_twister_engineIjLm32ELm624ELm397ELm31ELj2567483615ELm11ELj4294967295ELm7ELj2636928640ELm15ELj4022730752ELm18ELj1812433253EEEEEiRT_, symObjAddr: 0x444, symBinAddr: 0x1000024E4, symSize: 0x30 }
  - { offset: 0x5D63, size: 0x8, addend: 0x0, symName: _main, symObjAddr: 0x474, symBinAddr: 0x100002514, symSize: 0x24 }
  - { offset: 0x5D8B, size: 0x8, addend: 0x0, symName: __ZNSt3__112basic_stringIcNS_11char_traitsIcEENS_9allocatorIcEEEC2B8ne180100ILi0EEEPKc, symObjAddr: 0x498, symBinAddr: 0x100002538, symSize: 0x58 }
  - { offset: 0x5DCD, size: 0x8, addend: 0x0, symName: __ZNSt3__117__compressed_pairINS_12basic_stringIcNS_11char_traitsIcEENS_9allocatorIcEEE5__repES5_EC1B8ne180100INS_18__default_init_tagESA_EEOT_OT0_, symObjAddr: 0x4F0, symBinAddr: 0x100002590, symSize: 0x3C }
  - { offset: 0x5E23, size: 0x8, addend: 0x0, symName: __ZNSt3__111char_traitsIcE6lengthB8ne180100EPKc, symObjAddr: 0x52C, symBinAddr: 0x1000025CC, symSize: 0x48 }
  - { offset: 0x5E45, size: 0x8, addend: 0x0, symName: __ZNSt3__117__compressed_pairINS_12basic_stringIcNS_11char_traitsIcEENS_9allocatorIcEEE5__repES5_EC2B8ne180100INS_18__default_init_tagESA_EEOT_OT0_, symObjAddr: 0x574, symBinAddr: 0x100002614, symSize: 0x3C }
  - { offset: 0x5E9B, size: 0x8, addend: 0x0, symName: __ZNSt3__122__compressed_pair_elemINS_12basic_stringIcNS_11char_traitsIcEENS_9allocatorIcEEE5__repELi0ELb0EEC2B8ne180100ENS_18__default_init_tagE, symObjAddr: 0x5B0, symBinAddr: 0x100002650, symSize: 0x14 }
  - { offset: 0x5ECD, size: 0x8, addend: 0x0, symName: __ZNSt3__122__compressed_pair_elemINS_9allocatorIcEELi1ELb1EEC2B8ne180100ENS_18__default_init_tagE, symObjAddr: 0x5C4, symBinAddr: 0x100002664, symSize: 0x2C }
  - { offset: 0x5EFF, size: 0x8, addend: 0x0, symName: __ZNSt3__19allocatorIcEC2B8ne180100Ev, symObjAddr: 0x5F0, symBinAddr: 0x100002690, symSize: 0x2C }
  - { offset: 0x5F27, size: 0x8, addend: 0x0, symName: __ZNSt3__116__non_trivial_ifILb1ENS_9allocatorIcEEEC2B8ne180100Ev, symObjAddr: 0x61C, symBinAddr: 0x1000026BC, symSize: 0x14 }
  - { offset: 0x5F4F, size: 0x8, addend: 0x0, symName: __ZNSt3__123mersenne_twister_engineIjLm32ELm624ELm397ELm31ELj2567483615ELm11ELj4294967295ELm7ELj2636928640ELm15ELj4022730752ELm18ELj1812433253EEC2B8ne180100Ej, symObjAddr: 0x654, symBinAddr: 0x1000026F4, symSize: 0x34 }
  - { offset: 0x5F85, size: 0x8, addend: 0x0, symName: __ZNSt3__123mersenne_twister_engineIjLm32ELm624ELm397ELm31ELj2567483615ELm11ELj4294967295ELm7ELj2636928640ELm15ELj4022730752ELm18ELj1812433253EE4seedEj, symObjAddr: 0x688, symBinAddr: 0x100002728, symSize: 0xC8 }
  - { offset: 0x5FD6, size: 0x8, addend: 0x0, symName: __ZNSt3__123mersenne_twister_engineIjLm32ELm624ELm397ELm31ELj2567483615ELm11ELj4294967295ELm7ELj2636928640ELm15ELj4022730752ELm18ELj1812433253EE8__rshiftB8ne180100ILm30ELi0EEEjj, symObjAddr: 0x750, symBinAddr: 0x1000027F0, symSize: 0x18 }
  - { offset: 0x6027, size: 0x8, addend: 0x0, symName: __ZNKSt3__113basic_ostreamIcNS_11char_traitsIcEEE6sentrycvbB8ne180100Ev, symObjAddr: 0x95C, symBinAddr: 0x1000029FC, symSize: 0x1C }
  - { offset: 0x604B, size: 0x8, addend: 0x0, symName: __ZNSt3__119ostreambuf_iteratorIcNS_11char_traitsIcEEEC1B8ne180100ERNS_13basic_ostreamIcS2_EE, symObjAddr: 0xBC0, symBinAddr: 0x100002C60, symSize: 0x34 }
  - { offset: 0x6081, size: 0x8, addend: 0x0, symName: __ZNKSt3__18ios_base5flagsB8ne180100Ev, symObjAddr: 0xBF4, symBinAddr: 0x100002C94, symSize: 0x18 }
  - { offset: 0x60A7, size: 0x8, addend: 0x0, symName: __ZNKSt3__19basic_iosIcNS_11char_traitsIcEEE4fillB8ne180100Ev, symObjAddr: 0xC0C, symBinAddr: 0x100002CAC, symSize: 0x64 }
  - { offset: 0x60CD, size: 0x8, addend: 0x0, symName: __ZNKSt3__119ostreambuf_iteratorIcNS_11char_traitsIcEEE6failedB8ne180100Ev, symObjAddr: 0xC70, symBinAddr: 0x100002D10, symSize: 0x24 }
  - { offset: 0x60F1, size: 0x8, addend: 0x0, symName: __ZNSt3__19basic_iosIcNS_11char_traitsIcEEE8setstateB8ne180100Ej, symObjAddr: 0xC94, symBinAddr: 0x100002D34, symSize: 0x2C }
  - { offset: 0x6124, size: 0x8, addend: 0x0, symName: __ZNKSt3__18ios_base5widthB8ne180100Ev, symObjAddr: 0xCC0, symBinAddr: 0x100002D60, symSize: 0x18 }
  - { offset: 0x614A, size: 0x8, addend: 0x0, symName: __ZNSt3__115basic_streambufIcNS_11char_traitsIcEEE5sputnB8ne180100EPKcl, symObjAddr: 0xCD8, symBinAddr: 0x100002D78, symSize: 0x3C }
  - { offset: 0x618A, size: 0x8, addend: 0x0, symName: __ZNSt3__112basic_stringIcNS_11char_traitsIcEENS_9allocatorIcEEEC1B8ne180100Emc, symObjAddr: 0xD14, symBinAddr: 0x100002DB4, symSize: 0x3C }
  - { offset: 0x61D0, size: 0x8, addend: 0x0, symName: __ZNKSt3__112basic_stringIcNS_11char_traitsIcEENS_9allocatorIcEEE4dataB8ne180100Ev, symObjAddr: 0xD50, symBinAddr: 0x100002DF0, symSize: 0x28 }
  - { offset: 0x61F4, size: 0x8, addend: 0x0, symName: __ZNSt3__18ios_base5widthB8ne180100El, symObjAddr: 0xD78, symBinAddr: 0x100002E18, symSize: 0x2C }
  - { offset: 0x6238, size: 0x8, addend: 0x0, symName: __ZNSt3__112basic_stringIcNS_11char_traitsIcEENS_9allocatorIcEEEC2B8ne180100Emc, symObjAddr: 0xDA4, symBinAddr: 0x100002E44, symSize: 0x4C }
  - { offset: 0x627E, size: 0x8, addend: 0x0, symName: __ZNKSt3__112basic_stringIcNS_11char_traitsIcEENS_9allocatorIcEEE13__get_pointerB8ne180100Ev, symObjAddr: 0xE04, symBinAddr: 0x100002EA4, symSize: 0x54 }
  - { offset: 0x62A2, size: 0x8, addend: 0x0, symName: __ZNKSt3__112basic_stringIcNS_11char_traitsIcEENS_9allocatorIcEEE9__is_longB8ne180100Ev, symObjAddr: 0xE58, symBinAddr: 0x100002EF8, symSize: 0x94 }
  - { offset: 0x62C6, size: 0x8, addend: 0x0, symName: __ZNKSt3__112basic_stringIcNS_11char_traitsIcEENS_9allocatorIcEEE18__get_long_pointerB8ne180100Ev, symObjAddr: 0xEEC, symBinAddr: 0x100002F8C, symSize: 0x28 }
  - { offset: 0x62EA, size: 0x8, addend: 0x0, symName: __ZNKSt3__112basic_stringIcNS_11char_traitsIcEENS_9allocatorIcEEE19__get_short_pointerB8ne180100Ev, symObjAddr: 0xF14, symBinAddr: 0x100002FB4, symSize: 0x28 }
  - { offset: 0x630E, size: 0x8, addend: 0x0, symName: __ZNKSt3__117__compressed_pairINS_12basic_stringIcNS_11char_traitsIcEENS_9allocatorIcEEE5__repES5_E5firstB8ne180100Ev, symObjAddr: 0xF48, symBinAddr: 0x100002FE8, symSize: 0x24 }
  - { offset: 0x6332, size: 0x8, addend: 0x0, symName: __ZNKSt3__122__compressed_pair_elemINS_12basic_stringIcNS_11char_traitsIcEENS_9allocatorIcEEE5__repELi0ELb0EE5__getB8ne180100Ev, symObjAddr: 0xF6C, symBinAddr: 0x10000300C, symSize: 0x14 }
  - { offset: 0x6356, size: 0x8, addend: 0x0, symName: __ZNSt3__114pointer_traitsIPKcE10pointer_toB8ne180100ERS1_, symObjAddr: 0xF80, symBinAddr: 0x100003020, symSize: 0x14 }
  - { offset: 0x6378, size: 0x8, addend: 0x0, symName: __ZNSt3__119ostreambuf_iteratorIcNS_11char_traitsIcEEEC2B8ne180100ERNS_13basic_ostreamIcS2_EE, symObjAddr: 0xF94, symBinAddr: 0x100003034, symSize: 0x68 }
  - { offset: 0x63AE, size: 0x8, addend: 0x0, symName: __ZNKSt3__19basic_iosIcNS_11char_traitsIcEEE5rdbufB8ne180100Ev, symObjAddr: 0xFFC, symBinAddr: 0x10000309C, symSize: 0x24 }
  - { offset: 0x63D4, size: 0x8, addend: 0x0, symName: __ZNKSt3__18ios_base5rdbufB8ne180100Ev, symObjAddr: 0x1020, symBinAddr: 0x1000030C0, symSize: 0x18 }
  - { offset: 0x63F8, size: 0x8, addend: 0x0, symName: __ZNSt3__111char_traitsIcE11eq_int_typeB8ne180100Eii, symObjAddr: 0x1038, symBinAddr: 0x1000030D8, symSize: 0x28 }
  - { offset: 0x642A, size: 0x8, addend: 0x0, symName: __ZNSt3__111char_traitsIcE3eofB8ne180100Ev, symObjAddr: 0x1060, symBinAddr: 0x100003100, symSize: 0x8 }
  - { offset: 0x643D, size: 0x8, addend: 0x0, symName: __ZNKSt3__19basic_iosIcNS_11char_traitsIcEEE5widenB8ne180100Ec, symObjAddr: 0x1068, symBinAddr: 0x100003108, symSize: 0x8C }
  - { offset: 0x64AF, size: 0x8, addend: 0x0, symName: __ZNKSt3__15ctypeIcE5widenB8ne180100Ec, symObjAddr: 0x1120, symBinAddr: 0x1000031C0, symSize: 0x38 }
  - { offset: 0x64E2, size: 0x8, addend: 0x0, symName: __ZNSt3__18ios_base8setstateB8ne180100Ej, symObjAddr: 0x1158, symBinAddr: 0x1000031F8, symSize: 0x34 }
  - { offset: 0x6517, size: 0x8, addend: 0x0, symName: __ZNSt3__121binomial_distributionIiEC2B8ne180100Eid, symObjAddr: 0x118C, symBinAddr: 0x10000322C, symSize: 0x3C }
  - { offset: 0x655B, size: 0x8, addend: 0x0, symName: __ZNSt3__121binomial_distributionIiE10param_typeC1Eid, symObjAddr: 0x11C8, symBinAddr: 0x100003268, symSize: 0x3C }
  - { offset: 0x65A0, size: 0x8, addend: 0x0, symName: __ZNSt3__121binomial_distributionIiE10param_typeC2Eid, symObjAddr: 0x1204, symBinAddr: 0x1000032A4, symSize: 0x1B4 }
  - { offset: 0x65E5, size: 0x8, addend: 0x0, symName: __ZNSt3__121binomial_distributionIiEclINS_23mersenne_twister_engineIjLm32ELm624ELm397ELm31ELj2567483615ELm11ELj4294967295ELm7ELj2636928640ELm15ELj4022730752ELm18ELj1812433253EEEEEiRT_RKNS1_10param_typeE, symObjAddr: 0x13E0, symBinAddr: 0x100003480, symSize: 0x288 }
  - { offset: 0x66C2, size: 0x8, addend: 0x0, symName: __ZNSt3__125uniform_real_distributionIdEC1B8ne180100Edd, symObjAddr: 0x1668, symBinAddr: 0x100003708, symSize: 0x3C }
  - { offset: 0x6706, size: 0x8, addend: 0x0, symName: __ZNSt3__125uniform_real_distributionIdEclB8ne180100INS_23mersenne_twister_engineIjLm32ELm624ELm397ELm31ELj2567483615ELm11ELj4294967295ELm7ELj2636928640ELm15ELj4022730752ELm18ELj1812433253EEEEEdRT_, symObjAddr: 0x16A4, symBinAddr: 0x100003744, symSize: 0x30 }
  - { offset: 0x6741, size: 0x8, addend: 0x0, symName: __ZNSt3__125uniform_real_distributionIdEC2B8ne180100Edd, symObjAddr: 0x16D4, symBinAddr: 0x100003774, symSize: 0x3C }
  - { offset: 0x6785, size: 0x8, addend: 0x0, symName: __ZNSt3__125uniform_real_distributionIdE10param_typeC1B8ne180100Edd, symObjAddr: 0x1710, symBinAddr: 0x1000037B0, symSize: 0x3C }
  - { offset: 0x67C9, size: 0x8, addend: 0x0, symName: __ZNSt3__125uniform_real_distributionIdE10param_typeC2B8ne180100Edd, symObjAddr: 0x174C, symBinAddr: 0x1000037EC, symSize: 0x2C }
  - { offset: 0x680D, size: 0x8, addend: 0x0, symName: __ZNSt3__125uniform_real_distributionIdEclINS_23mersenne_twister_engineIjLm32ELm624ELm397ELm31ELj2567483615ELm11ELj4294967295ELm7ELj2636928640ELm15ELj4022730752ELm18ELj1812433253EEEEEdRT_RKNS1_10param_typeE, symObjAddr: 0x1778, symBinAddr: 0x100003818, symSize: 0x6C }
  - { offset: 0x6857, size: 0x8, addend: 0x0, symName: __ZNKSt3__125uniform_real_distributionIdE10param_type1bB8ne180100Ev, symObjAddr: 0x17E4, symBinAddr: 0x100003884, symSize: 0x18 }
  - { offset: 0x687B, size: 0x8, addend: 0x0, symName: __ZNKSt3__125uniform_real_distributionIdE10param_type1aB8ne180100Ev, symObjAddr: 0x17FC, symBinAddr: 0x10000389C, symSize: 0x18 }
  - { offset: 0x689F, size: 0x8, addend: 0x0, symName: __ZNSt3__123mersenne_twister_engineIjLm32ELm624ELm397ELm31ELj2567483615ELm11ELj4294967295ELm7ELj2636928640ELm15ELj4022730752ELm18ELj1812433253EE3maxB8ne180100Ev, symObjAddr: 0x1920, symBinAddr: 0x1000039C0, symSize: 0x8 }
  - { offset: 0x68B2, size: 0x8, addend: 0x0, symName: __ZNSt3__123mersenne_twister_engineIjLm32ELm624ELm397ELm31ELj2567483615ELm11ELj4294967295ELm7ELj2636928640ELm15ELj4022730752ELm18ELj1812433253EE3minB8ne180100Ev, symObjAddr: 0x1928, symBinAddr: 0x1000039C8, symSize: 0x8 }
  - { offset: 0x68C5, size: 0x8, addend: 0x0, symName: __ZNSt3__123mersenne_twister_engineIjLm32ELm624ELm397ELm31ELj2567483615ELm11ELj4294967295ELm7ELj2636928640ELm15ELj4022730752ELm18ELj1812433253EEclEv, symObjAddr: 0x1930, symBinAddr: 0x1000039D0, symSize: 0x14C }
  - { offset: 0x6936, size: 0x8, addend: 0x0, symName: __ZNSt3__123mersenne_twister_engineIjLm32ELm624ELm397ELm31ELj2567483615ELm11ELj4294967295ELm7ELj2636928640ELm15ELj4022730752ELm18ELj1812433253EE8__rshiftB8ne180100ILm1ELi0EEEjj, symObjAddr: 0x1A7C, symBinAddr: 0x100003B1C, symSize: 0x18 }
  - { offset: 0x6969, size: 0x8, addend: 0x0, symName: __ZNSt3__123mersenne_twister_engineIjLm32ELm624ELm397ELm31ELj2567483615ELm11ELj4294967295ELm7ELj2636928640ELm15ELj4022730752ELm18ELj1812433253EE8__rshiftB8ne180100ILm11ELi0EEEjj, symObjAddr: 0x1A94, symBinAddr: 0x100003B34, symSize: 0x18 }
  - { offset: 0x699C, size: 0x8, addend: 0x0, symName: __ZNSt3__123mersenne_twister_engineIjLm32ELm624ELm397ELm31ELj2567483615ELm11ELj4294967295ELm7ELj2636928640ELm15ELj4022730752ELm18ELj1812433253EE8__lshiftB8ne180100ILm7ELi0EEEjj, symObjAddr: 0x1AAC, symBinAddr: 0x100003B4C, symSize: 0x1C }
  - { offset: 0x69CF, size: 0x8, addend: 0x0, symName: __ZNSt3__123mersenne_twister_engineIjLm32ELm624ELm397ELm31ELj2567483615ELm11ELj4294967295ELm7ELj2636928640ELm15ELj4022730752ELm18ELj1812433253EE8__lshiftB8ne180100ILm15ELi0EEEjj, symObjAddr: 0x1AC8, symBinAddr: 0x100003B68, symSize: 0x1C }
  - { offset: 0x6A02, size: 0x8, addend: 0x0, symName: __ZNSt3__123mersenne_twister_engineIjLm32ELm624ELm397ELm31ELj2567483615ELm11ELj4294967295ELm7ELj2636928640ELm15ELj4022730752ELm18ELj1812433253EE8__rshiftB8ne180100ILm18ELi0EEEjj, symObjAddr: 0x1AE4, symBinAddr: 0x100003B84, symSize: 0x18 }
...
