---
triple:          'arm64-apple-darwin'
binary-path:     '../rad'
relocations:
  - { offset: 0x7BB3, size: 0x8, addend: 0x0, symName: __ZNSt3__17advanceB8ne180100IPNS_4listIiNS_9allocatorIiEEEEllvEEvRT_T0_, symObjAddr: 0x4744, symBinAddr: 0x100007060, symSize: 0x38 }
  - { offset: 0x7E33, size: 0x8, addend: 0x0, symName: __ZNSt3__17advanceB8ne180100INS_16reverse_iteratorIPNS_4listIiNS_9allocatorIiEEEEEEllvEEvRT_T0_, symObjAddr: 0x4E44, symBinAddr: 0x100007760, symSize: 0x38 }
  - { offset: 0x98CD, size: 0x8, addend: 0x0, symName: __ZNSt3__17advanceB8ne180100IPNS_4pairIiNS_15__list_iteratorIiPvEEEEllvEEvRT_T0_, symObjAddr: 0x640C, symBinAddr: 0x100008D28, symSize: 0x38 }
  - { offset: 0x9B4D, size: 0x8, addend: 0x0, symName: __ZNSt3__17advanceB8ne180100INS_16reverse_iteratorIPNS_4pairIiNS_15__list_iteratorIiPvEEEEEEllvEEvRT_T0_, symObjAddr: 0x67FC, symBinAddr: 0x100009118, symSize: 0x38 }
  - { offset: 0x9EEA, size: 0x8, addend: 0x0, symName: __ZNSt3__17advanceB8ne180100IPillvEEvRT_T0_, symObjAddr: 0x8C58, symBinAddr: 0x10000B574, symSize: 0x38 }
  - { offset: 0xB610, size: 0x8, addend: 0x0, symName: __ZNSt3__1neB8ne180100IPNS_4pairIiiEEEEbRKNS_11__wrap_iterIT_EES8_, symObjAddr: 0xA08, symBinAddr: 0x100003324, symSize: 0x34 }
  - { offset: 0xB653, size: 0x8, addend: 0x0, symName: __ZNSt3__120__throw_out_of_rangeB8ne180100EPKc, symObjAddr: 0xB08, symBinAddr: 0x100003424, symSize: 0x64 }
  - { offset: 0xB67B, size: 0x8, addend: 0x0, symName: __ZNSt3__112__to_addressB8ne180100IxEEPT_S2_, symObjAddr: 0xED8, symBinAddr: 0x1000037F4, symSize: 0x14 }
  - { offset: 0xB6B0, size: 0x8, addend: 0x0, symName: __ZNSt3__112__destroy_atB8ne180100IxLi0EEEvPT_, symObjAddr: 0xEEC, symBinAddr: 0x100003808, symSize: 0x10 }
  - { offset: 0xB6E7, size: 0x8, addend: 0x0, symName: __ZNSt3__119__libcpp_deallocateB8ne180100EPvmm, symObjAddr: 0xF3C, symBinAddr: 0x100003858, symSize: 0x60 }
  - { offset: 0xB74C, size: 0x8, addend: 0x0, symName: __ZNSt3__124__is_overaligned_for_newB8ne180100Em, symObjAddr: 0xF9C, symBinAddr: 0x1000038B8, symSize: 0x20 }
  - { offset: 0xB77A, size: 0x8, addend: 0x0, symName: __ZNSt3__127__do_deallocate_handle_sizeB8ne180100IJSt11align_val_tEEEvPvmDpT_, symObjAddr: 0xFBC, symBinAddr: 0x1000038D8, symSize: 0x30 }
  - { offset: 0xB7CD, size: 0x8, addend: 0x0, symName: __ZNSt3__127__do_deallocate_handle_sizeB8ne180100IJEEEvPvmDpT_, symObjAddr: 0xFEC, symBinAddr: 0x100003908, symSize: 0x28 }
  - { offset: 0xB80B, size: 0x8, addend: 0x0, symName: __ZNSt3__124__libcpp_operator_deleteB8ne180100IJPvSt11align_val_tEEEvDpT_, symObjAddr: 0x1014, symBinAddr: 0x100003930, symSize: 0x2C }
  - { offset: 0xB854, size: 0x8, addend: 0x0, symName: __ZNSt3__124__libcpp_operator_deleteB8ne180100IJPvEEEvDpT_, symObjAddr: 0x1040, symBinAddr: 0x10000395C, symSize: 0x24 }
  - { offset: 0xB889, size: 0x8, addend: 0x0, symName: __ZNSt3__122__make_exception_guardB8ne180100INS_6vectorIxNS_9allocatorIxEEE16__destroy_vectorEEENS_28__exception_guard_exceptionsIT_EES7_, symObjAddr: 0x1214, symBinAddr: 0x100003B30, symSize: 0x40 }
  - { offset: 0xB8BE, size: 0x8, addend: 0x0, symName: __ZNSt3__119__allocate_at_leastB8ne180100INS_9allocatorIxEEEENS_19__allocation_resultINS_16allocator_traitsIT_E7pointerEEERS5_m, symObjAddr: 0x15B4, symBinAddr: 0x100003ED0, symSize: 0x40 }
  - { offset: 0xB901, size: 0x8, addend: 0x0, symName: __ZNSt3__13minB8ne180100ImEERKT_S3_S3_, symObjAddr: 0x1630, symBinAddr: 0x100003F4C, symSize: 0x2C }
  - { offset: 0xBB2E, size: 0x8, addend: 0x0, symName: __ZNSt3__13minB8ne180100ImNS_6__lessIvvEEEERKT_S5_S5_T0_, symObjAddr: 0x16C0, symBinAddr: 0x100003FDC, symSize: 0x54 }
  - { offset: 0xBBCD, size: 0x8, addend: 0x0, symName: __ZNSt3__120__throw_length_errorB8ne180100EPKc, symObjAddr: 0x17A4, symBinAddr: 0x1000040C0, symSize: 0x64 }
  - { offset: 0xBBF5, size: 0x8, addend: 0x0, symName: __ZNSt3__117__libcpp_allocateB8ne180100Emm, symObjAddr: 0x190C, symBinAddr: 0x100004228, symSize: 0x60 }
  - { offset: 0xBC4F, size: 0x8, addend: 0x0, symName: __ZNSt3__121__libcpp_operator_newB8ne180100IJmSt11align_val_tEEEPvDpT_, symObjAddr: 0x196C, symBinAddr: 0x100004288, symSize: 0x2C }
  - { offset: 0xBC9C, size: 0x8, addend: 0x0, symName: __ZNSt3__121__libcpp_operator_newB8ne180100IJmEEEPvDpT_, symObjAddr: 0x1998, symBinAddr: 0x1000042B4, symSize: 0x24 }
  - { offset: 0xBCD5, size: 0x8, addend: 0x0, symName: __ZNSt3__114__construct_atB8ne180100IxJRKxEPxEEPT_S5_DpOT0_, symObjAddr: 0x1AD0, symBinAddr: 0x1000043EC, symSize: 0x2C }
  - { offset: 0xBD28, size: 0x8, addend: 0x0, symName: __ZNSt3__112construct_atB8ne180100IxJRKxEPxEEPT_S5_DpOT0_, symObjAddr: 0x1AFC, symBinAddr: 0x100004418, symSize: 0x24 }
  - { offset: 0xBD7B, size: 0x8, addend: 0x0, symName: __ZNSt3__122__make_exception_guardB8ne180100INS_6vectorIiNS_9allocatorIiEEE16__destroy_vectorEEENS_28__exception_guard_exceptionsIT_EES7_, symObjAddr: 0x1CA0, symBinAddr: 0x1000045BC, symSize: 0x40 }
  - { offset: 0xBDB0, size: 0x8, addend: 0x0, symName: __ZNSt3__119__allocate_at_leastB8ne180100INS_9allocatorIiEEEENS_19__allocation_resultINS_16allocator_traitsIT_E7pointerEEERS5_m, symObjAddr: 0x2094, symBinAddr: 0x1000049B0, symSize: 0x40 }
  - { offset: 0xBDF3, size: 0x8, addend: 0x0, symName: __ZNSt3__112__to_addressB8ne180100IiEEPT_S2_, symObjAddr: 0x22F4, symBinAddr: 0x100004C10, symSize: 0x14 }
  - { offset: 0xBE28, size: 0x8, addend: 0x0, symName: __ZNSt3__114__construct_atB8ne180100IiJRKiEPiEEPT_S5_DpOT0_, symObjAddr: 0x2378, symBinAddr: 0x100004C94, symSize: 0x2C }
  - { offset: 0xBE7B, size: 0x8, addend: 0x0, symName: __ZNSt3__112construct_atB8ne180100IiJRKiEPiEEPT_S5_DpOT0_, symObjAddr: 0x23A4, symBinAddr: 0x100004CC0, symSize: 0x24 }
  - { offset: 0xBECE, size: 0x8, addend: 0x0, symName: __ZNSt3__112__destroy_atB8ne180100IiLi0EEEvPT_, symObjAddr: 0x2628, symBinAddr: 0x100004F44, symSize: 0x10 }
  - { offset: 0xBF0A, size: 0x8, addend: 0x0, symName: __ZNSt3__16__math3logB8ne180100IiLi0EEEdT_, symObjAddr: 0x2844, symBinAddr: 0x100005160, symSize: 0x30 }
  - { offset: 0xBF8A, size: 0x8, addend: 0x0, symName: __ZNSt3__112__to_addressB8ne180100INS_4listIiNS_9allocatorIiEEEEEEPT_S6_, symObjAddr: 0x3324, symBinAddr: 0x100005C40, symSize: 0x14 }
  - { offset: 0xBFBF, size: 0x8, addend: 0x0, symName: __ZNSt3__114__construct_atB8ne180100INS_4listIiNS_9allocatorIiEEEEJEPS4_EEPT_S7_DpOT0_, symObjAddr: 0x33B0, symBinAddr: 0x100005CCC, symSize: 0x24 }
  - { offset: 0xBFFE, size: 0x8, addend: 0x0, symName: __ZNSt3__112construct_atB8ne180100INS_4listIiNS_9allocatorIiEEEEJEPS4_EEPT_S7_DpOT0_, symObjAddr: 0x33D4, symBinAddr: 0x100005CF0, symSize: 0x2C }
  - { offset: 0xC070, size: 0x8, addend: 0x0, symName: __ZNSt3__13maxB8ne180100ImEERKT_S3_S3_, symObjAddr: 0x378C, symBinAddr: 0x1000060A8, symSize: 0x2C }
  - { offset: 0xC0B3, size: 0x8, addend: 0x0, symName: __ZNSt3__13maxB8ne180100ImNS_6__lessIvvEEEERKT_S5_S5_T0_, symObjAddr: 0x38A0, symBinAddr: 0x1000061BC, symSize: 0x54 }
  - { offset: 0xC10D, size: 0x8, addend: 0x0, symName: __ZNSt3__119__allocate_at_leastB8ne180100INS_9allocatorINS_4listIiNS1_IiEEEEEEEENS_19__allocation_resultINS_16allocator_traitsIT_E7pointerEEERS8_m, symObjAddr: 0x3A10, symBinAddr: 0x10000632C, symSize: 0x40 }
  - { offset: 0xC150, size: 0x8, addend: 0x0, symName: __ZNSt3__142__uninitialized_allocator_move_if_noexceptB8ne180100INS_9allocatorINS_4listIiNS1_IiEEEEEENS_16reverse_iteratorIPS4_EES8_S8_EET2_RT_T0_T1_S9_, symObjAddr: 0x3CAC, symBinAddr: 0x1000065C8, symSize: 0x12C }
  - { offset: 0xC1F0, size: 0x8, addend: 0x0, symName: __ZNSt3__14swapB8ne180100IPNS_4listIiNS_9allocatorIiEEEEEENS_9enable_ifIXaasr21is_move_constructibleIT_EE5valuesr18is_move_assignableIS7_EE5valueEvE4typeERS7_SA_, symObjAddr: 0x3E24, symBinAddr: 0x100006740, symSize: 0x3C }
  - { offset: 0xC241, size: 0x8, addend: 0x0, symName: __ZNSt3__122__make_exception_guardB8ne180100INS_29_AllocatorDestroyRangeReverseINS_9allocatorINS_4listIiNS2_IiEEEEEENS_16reverse_iteratorIPS5_EEEEEENS_28__exception_guard_exceptionsIT_EESC_, symObjAddr: 0x3E74, symBinAddr: 0x100006790, symSize: 0x4C }
  - { offset: 0xC277, size: 0x8, addend: 0x0, symName: __ZNSt3__1neB8ne180100IPNS_4listIiNS_9allocatorIiEEEES5_EEbRKNS_16reverse_iteratorIT_EERKNS6_IT0_EE, symObjAddr: 0x3F04, symBinAddr: 0x100006820, symSize: 0x48 }
  - { offset: 0xC2C3, size: 0x8, addend: 0x0, symName: __ZNSt3__112__to_addressB8ne180100INS_16reverse_iteratorIPNS_4listIiNS_9allocatorIiEEEEEEvEEu7__decayIDTclsr19__to_address_helperIT_EE6__callclsr3stdE7declvalIRKS8_EEEEESA_, symObjAddr: 0x3F7C, symBinAddr: 0x100006898, symSize: 0x24 }
  - { offset: 0xC2F9, size: 0x8, addend: 0x0, symName: __ZNSt3__114__construct_atB8ne180100INS_4listIiNS_9allocatorIiEEEEJS4_EPS4_EEPT_S7_DpOT0_, symObjAddr: 0x40CC, symBinAddr: 0x1000069E8, symSize: 0x2C }
  - { offset: 0xC34C, size: 0x8, addend: 0x0, symName: __ZNSt3__112construct_atB8ne180100INS_4listIiNS_9allocatorIiEEEEJS4_EPS4_EEPT_S7_DpOT0_, symObjAddr: 0x40F8, symBinAddr: 0x100006A14, symSize: 0x34 }
  - { offset: 0xC3C8, size: 0x8, addend: 0x0, symName: __ZNSt3__14prevB8ne180100IPNS_4listIiNS_9allocatorIiEEEELi0EEET_S6_NS_15iterator_traitsIS6_E15difference_typeE, symObjAddr: 0x4708, symBinAddr: 0x100007024, symSize: 0x3C }
  - { offset: 0xC411, size: 0x8, addend: 0x0, symName: __ZNSt3__121__convert_to_integralB8ne180100El, symObjAddr: 0x477C, symBinAddr: 0x100007098, symSize: 0x14 }
  - { offset: 0xC43D, size: 0x8, addend: 0x0, symName: __ZNSt3__19__advanceB8ne180100IPNS_4listIiNS_9allocatorIiEEEEEEvRT_NS_15iterator_traitsIS6_E15difference_typeENS_26random_access_iterator_tagE, symObjAddr: 0x4790, symBinAddr: 0x1000070AC, symSize: 0x30 }
  - { offset: 0xC486, size: 0x8, addend: 0x0, symName: __ZNSt3__119__allocator_destroyB8ne180100INS_9allocatorINS_4listIiNS1_IiEEEEEENS_16reverse_iteratorINS6_IPS4_EEEES9_EEvRT_T0_T1_, symObjAddr: 0x48C4, symBinAddr: 0x1000071E0, symSize: 0x70 }
  - { offset: 0xC4EB, size: 0x8, addend: 0x0, symName: __ZNSt3__1neB8ne180100INS_16reverse_iteratorIPNS_4listIiNS_9allocatorIiEEEEEES7_EEbRKNS1_IT_EERKNS1_IT0_EE, symObjAddr: 0x4970, symBinAddr: 0x10000728C, symSize: 0x60 }
  - { offset: 0xC537, size: 0x8, addend: 0x0, symName: __ZNSt3__112__to_addressB8ne180100INS_16reverse_iteratorINS1_IPNS_4listIiNS_9allocatorIiEEEEEEEEvEEu7__decayIDTclsr19__to_address_helperIT_EE6__callclsr3stdE7declvalIRKS9_EEEEESB_, symObjAddr: 0x49F8, symBinAddr: 0x100007314, symSize: 0x24 }
  - { offset: 0xC56D, size: 0x8, addend: 0x0, symName: __ZNSt3__112__destroy_atB8ne180100INS_4listIiNS_9allocatorIiEEEELi0EEEvPT_, symObjAddr: 0x4A70, symBinAddr: 0x10000738C, symSize: 0x24 }
  - { offset: 0xC684, size: 0x8, addend: 0x0, symName: __ZNSt3__112__destroy_atB8ne180100INS_11__list_nodeIiPvEELi0EEEvPT_, symObjAddr: 0x4C98, symBinAddr: 0x1000075B4, symSize: 0x24 }
  - { offset: 0xC6E4, size: 0x8, addend: 0x0, symName: __ZNSt3__14prevB8ne180100INS_16reverse_iteratorIPNS_4listIiNS_9allocatorIiEEEEEELi0EEET_S8_NS_15iterator_traitsIS8_E15difference_typeE, symObjAddr: 0x4DF8, symBinAddr: 0x100007714, symSize: 0x4C }
  - { offset: 0xC72D, size: 0x8, addend: 0x0, symName: __ZNSt3__19__advanceB8ne180100INS_16reverse_iteratorIPNS_4listIiNS_9allocatorIiEEEEEEEEvRT_NS_15iterator_traitsIS8_E15difference_typeENS_26random_access_iterator_tagE, symObjAddr: 0x4E7C, symBinAddr: 0x100007798, symSize: 0x2C }
  - { offset: 0xC776, size: 0x8, addend: 0x0, symName: __ZNSt3__112__to_addressB8ne180100INS_4pairIiNS_15__list_iteratorIiPvEEEEEEPT_S7_, symObjAddr: 0x588C, symBinAddr: 0x1000081A8, symSize: 0x14 }
  - { offset: 0xC7AB, size: 0x8, addend: 0x0, symName: __ZNSt3__114__construct_atB8ne180100INS_4pairIiNS_15__list_iteratorIiPvEEEEJRKS5_EPS5_EEPT_SA_DpOT0_, symObjAddr: 0x5910, symBinAddr: 0x10000822C, symSize: 0x2C }
  - { offset: 0xC7FE, size: 0x8, addend: 0x0, symName: __ZNSt3__112construct_atB8ne180100INS_4pairIiNS_15__list_iteratorIiPvEEEEJRKS5_EPS5_EEPT_SA_DpOT0_, symObjAddr: 0x593C, symBinAddr: 0x100008258, symSize: 0x24 }
  - { offset: 0xC851, size: 0x8, addend: 0x0, symName: __ZNSt3__119__allocate_at_leastB8ne180100INS_9allocatorINS_4pairIiNS_15__list_iteratorIiPvEEEEEEEENS_19__allocation_resultINS_16allocator_traitsIT_E7pointerEEERSA_m, symObjAddr: 0x5C6C, symBinAddr: 0x100008588, symSize: 0x40 }
  - { offset: 0xC894, size: 0x8, addend: 0x0, symName: __ZNSt3__142__uninitialized_allocator_move_if_noexceptB8ne180100INS_9allocatorINS_4pairIiNS_15__list_iteratorIiPvEEEEEENS_16reverse_iteratorIPS6_EESA_SA_EET2_RT_T0_T1_SB_, symObjAddr: 0x5EFC, symBinAddr: 0x100008818, symSize: 0x12C }
  - { offset: 0xC934, size: 0x8, addend: 0x0, symName: __ZNSt3__14swapB8ne180100IPNS_4pairIiNS_15__list_iteratorIiPvEEEEEENS_9enable_ifIXaasr21is_move_constructibleIT_EE5valuesr18is_move_assignableIS8_EE5valueEvE4typeERS8_SB_, symObjAddr: 0x6074, symBinAddr: 0x100008990, symSize: 0x3C }
  - { offset: 0xC985, size: 0x8, addend: 0x0, symName: __ZNSt3__122__make_exception_guardB8ne180100INS_29_AllocatorDestroyRangeReverseINS_9allocatorINS_4pairIiNS_15__list_iteratorIiPvEEEEEENS_16reverse_iteratorIPS7_EEEEEENS_28__exception_guard_exceptionsIT_EESE_, symObjAddr: 0x60C4, symBinAddr: 0x1000089E0, symSize: 0x4C }
  - { offset: 0xC9BB, size: 0x8, addend: 0x0, symName: __ZNSt3__1neB8ne180100IPNS_4pairIiNS_15__list_iteratorIiPvEEEES6_EEbRKNS_16reverse_iteratorIT_EERKNS7_IT0_EE, symObjAddr: 0x6154, symBinAddr: 0x100008A70, symSize: 0x48 }
  - { offset: 0xCA07, size: 0x8, addend: 0x0, symName: __ZNSt3__112__to_addressB8ne180100INS_16reverse_iteratorIPNS_4pairIiNS_15__list_iteratorIiPvEEEEEEvEEu7__decayIDTclsr19__to_address_helperIT_EE6__callclsr3stdE7declvalIRKS9_EEEEESB_, symObjAddr: 0x61CC, symBinAddr: 0x100008AE8, symSize: 0x24 }
  - { offset: 0xCA3D, size: 0x8, addend: 0x0, symName: __ZNSt3__114__construct_atB8ne180100INS_4pairIiNS_15__list_iteratorIiPvEEEEJS5_EPS5_EEPT_S8_DpOT0_, symObjAddr: 0x631C, symBinAddr: 0x100008C38, symSize: 0x2C }
  - { offset: 0xCA90, size: 0x8, addend: 0x0, symName: __ZNSt3__112construct_atB8ne180100INS_4pairIiNS_15__list_iteratorIiPvEEEEJS5_EPS5_EEPT_S8_DpOT0_, symObjAddr: 0x6348, symBinAddr: 0x100008C64, symSize: 0x24 }
  - { offset: 0xCB0C, size: 0x8, addend: 0x0, symName: __ZNSt3__14prevB8ne180100IPNS_4pairIiNS_15__list_iteratorIiPvEEEELi0EEET_S7_NS_15iterator_traitsIS7_E15difference_typeE, symObjAddr: 0x63D0, symBinAddr: 0x100008CEC, symSize: 0x3C }
  - { offset: 0xCB55, size: 0x8, addend: 0x0, symName: __ZNSt3__19__advanceB8ne180100IPNS_4pairIiNS_15__list_iteratorIiPvEEEEEEvRT_NS_15iterator_traitsIS7_E15difference_typeENS_26random_access_iterator_tagE, symObjAddr: 0x6444, symBinAddr: 0x100008D60, symSize: 0x28 }
  - { offset: 0xCB9E, size: 0x8, addend: 0x0, symName: __ZNSt3__119__allocator_destroyB8ne180100INS_9allocatorINS_4pairIiNS_15__list_iteratorIiPvEEEEEENS_16reverse_iteratorINS8_IPS6_EEEESB_EEvRT_T0_T1_, symObjAddr: 0x6570, symBinAddr: 0x100008E8C, symSize: 0x70 }
  - { offset: 0xCC03, size: 0x8, addend: 0x0, symName: __ZNSt3__1neB8ne180100INS_16reverse_iteratorIPNS_4pairIiNS_15__list_iteratorIiPvEEEEEES8_EEbRKNS1_IT_EERKNS1_IT0_EE, symObjAddr: 0x661C, symBinAddr: 0x100008F38, symSize: 0x60 }
  - { offset: 0xCC4F, size: 0x8, addend: 0x0, symName: __ZNSt3__112__to_addressB8ne180100INS_16reverse_iteratorINS1_IPNS_4pairIiNS_15__list_iteratorIiPvEEEEEEEEvEEu7__decayIDTclsr19__to_address_helperIT_EE6__callclsr3stdE7declvalIRKSA_EEEEESC_, symObjAddr: 0x66A4, symBinAddr: 0x100008FC0, symSize: 0x24 }
  - { offset: 0xCC85, size: 0x8, addend: 0x0, symName: __ZNSt3__112__destroy_atB8ne180100INS_4pairIiNS_15__list_iteratorIiPvEEEELi0EEEvPT_, symObjAddr: 0x671C, symBinAddr: 0x100009038, symSize: 0x10 }
  - { offset: 0xCCE5, size: 0x8, addend: 0x0, symName: __ZNSt3__14prevB8ne180100INS_16reverse_iteratorIPNS_4pairIiNS_15__list_iteratorIiPvEEEEEELi0EEET_S9_NS_15iterator_traitsIS9_E15difference_typeE, symObjAddr: 0x67B0, symBinAddr: 0x1000090CC, symSize: 0x4C }
  - { offset: 0xCD2E, size: 0x8, addend: 0x0, symName: __ZNSt3__19__advanceB8ne180100INS_16reverse_iteratorIPNS_4pairIiNS_15__list_iteratorIiPvEEEEEEEEvRT_NS_15iterator_traitsIS9_E15difference_typeENS_26random_access_iterator_tagE, symObjAddr: 0x6834, symBinAddr: 0x100009150, symSize: 0x2C }
  - { offset: 0xCD77, size: 0x8, addend: 0x0, symName: __ZNSt3__1neB8ne180100ERKNS_15__list_iteratorIiPvEES4_, symObjAddr: 0x71D8, symBinAddr: 0x100009AF4, symSize: 0x34 }
  - { offset: 0xCDB4, size: 0x8, addend: 0x0, symName: __ZNSt3__1eqB8ne180100ERKNS_15__list_iteratorIiPvEES4_, symObjAddr: 0x72C8, symBinAddr: 0x100009BE4, symSize: 0x30 }
  - { offset: 0xCDF1, size: 0x8, addend: 0x0, symName: __ZNSt3__19bit_widthB8ne180100IyEEiT_, symObjAddr: 0x7354, symBinAddr: 0x100009C70, symSize: 0x58 }
  - { offset: 0xCE26, size: 0x8, addend: 0x0, symName: __ZNSt3__110__bit_log2B8ne180100IyEET_S1_, symObjAddr: 0x73AC, symBinAddr: 0x100009CC8, symSize: 0x34 }
  - { offset: 0xCE5B, size: 0x8, addend: 0x0, symName: __ZNSt3__111countl_zeroB8ne180100IyEEiT_, symObjAddr: 0x73E0, symBinAddr: 0x100009CFC, symSize: 0x24 }
  - { offset: 0xCE90, size: 0x8, addend: 0x0, symName: __ZNSt3__113__countl_zeroB8ne180100IyEEiT_, symObjAddr: 0x7404, symBinAddr: 0x100009D20, symSize: 0x54 }
  - { offset: 0xCEC5, size: 0x8, addend: 0x0, symName: __ZNSt3__112__libcpp_clzB8ne180100Em, symObjAddr: 0x7458, symBinAddr: 0x100009D74, symSize: 0x1C }
  - { offset: 0xD002, size: 0x8, addend: 0x0, symName: __ZNSt3__114__construct_atB8ne180100INS_11__list_nodeIiPvEEJRPNS_16__list_node_baseIiS2_EES7_EPS3_EEPT_SA_DpOT0_, symObjAddr: 0x75A0, symBinAddr: 0x100009EBC, symSize: 0x34 }
  - { offset: 0xD068, size: 0x8, addend: 0x0, symName: __ZNSt3__112construct_atB8ne180100INS_11__list_nodeIiPvEEJRPNS_16__list_node_baseIiS2_EES7_EPS3_EEPT_SA_DpOT0_, symObjAddr: 0x7760, symBinAddr: 0x10000A07C, symSize: 0x44 }
  - { offset: 0xD0CE, size: 0x8, addend: 0x0, symName: __ZNSt3__1neB8ne180100IPNS_4listIiNS_9allocatorIiEEEEEEbRKNS_11__wrap_iterIT_EESA_, symObjAddr: 0x7954, symBinAddr: 0x10000A270, symSize: 0x34 }
  - { offset: 0xD111, size: 0x8, addend: 0x0, symName: __ZNSt3__1eqB8ne180100IPNS_4listIiNS_9allocatorIiEEEEEEbRKNS_11__wrap_iterIT_EESA_, symObjAddr: 0x7A44, symBinAddr: 0x10000A360, symSize: 0x48 }
  - { offset: 0xD154, size: 0x8, addend: 0x0, symName: __ZNSt3__111min_elementB8ne180100INS_15__list_iteratorIiPvEEZN9RadixHeap10extractMinEvEUlRKiS6_E_EET_S8_S8_T0_, symObjAddr: 0x7BA0, symBinAddr: 0x10000A4BC, symSize: 0x50 }
  - { offset: 0xD1AE, size: 0x8, addend: 0x0, symName: __ZNSt3__113__min_elementB8ne180100IRZN9RadixHeap10extractMinEvEUlRKiS3_E_NS_15__list_iteratorIiPvEES8_EET0_S9_T1_T_, symObjAddr: 0x7E20, symBinAddr: 0x10000A73C, symSize: 0x54 }
  - { offset: 0xD21F, size: 0x8, addend: 0x0, symName: __ZNSt3__113__min_elementB8ne180100IRZN9RadixHeap10extractMinEvEUlRKiS3_E_NS_15__list_iteratorIiPvEES8_NS_10__identityEEET0_SA_T1_T_RT2_, symObjAddr: 0x7E74, symBinAddr: 0x10000A790, symSize: 0xF0 }
  - { offset: 0xD2A7, size: 0x8, addend: 0x0, symName: __ZNSt3__18__invokeB8ne180100IRZN9RadixHeap10extractMinEvEUlRKiS3_E_JRiS6_EEEDTclclsr3stdE7declvalIT_EEspclsr3stdE7declvalIT0_EEEEOS7_DpOS8_, symObjAddr: 0x7F84, symBinAddr: 0x10000A8A0, symSize: 0x38 }
  - { offset: 0xD30C, size: 0x8, addend: 0x0, symName: __ZNSt3__18__invokeB8ne180100IRNS_10__identityEJRiEEEDTclclsr3stdE7declvalIT_EEspclsr3stdE7declvalIT0_EEEEOS4_DpOS5_, symObjAddr: 0x7FBC, symBinAddr: 0x10000A8D8, symSize: 0x2C }
  - { offset: 0xD38A, size: 0x8, addend: 0x0, symName: __ZNSt3__1neB8ne180100IPiEEbRKNS_11__wrap_iterIT_EES6_, symObjAddr: 0x8160, symBinAddr: 0x10000AA7C, symSize: 0x34 }
  - { offset: 0xD3CD, size: 0x8, addend: 0x0, symName: __ZNSt3__18distanceB8ne180100INS_15__list_iteratorIiPvEEEENS_15iterator_traitsIT_E15difference_typeES5_S5_, symObjAddr: 0x8260, symBinAddr: 0x10000AB7C, symSize: 0x3C }
  - { offset: 0xD410, size: 0x8, addend: 0x0, symName: __ZNSt3__110__distanceB8ne180100INS_15__list_iteratorIiPvEEEENS_15iterator_traitsIT_E15difference_typeES5_S5_NS_18input_iterator_tagE, symObjAddr: 0x8364, symBinAddr: 0x10000AC80, symSize: 0x5C }
  - { offset: 0xD46B, size: 0x8, addend: 0x0, symName: __ZNSt3__130__uninitialized_allocator_copyB8ne180100INS_9allocatorIiEENS_15__list_iteratorIiPvEES5_PiEET2_RT_T0_T1_S7_, symObjAddr: 0x845C, symBinAddr: 0x10000AD78, symSize: 0x90 }
  - { offset: 0xD508, size: 0x8, addend: 0x0, symName: __ZNSt3__114__unwrap_rangeB8ne180100INS_15__list_iteratorIiPvEES3_EEDaT_T0_, symObjAddr: 0x84EC, symBinAddr: 0x10000AE08, symSize: 0x4C }
  - { offset: 0xD554, size: 0x8, addend: 0x0, symName: __ZNSt3__135__uninitialized_allocator_copy_implB8ne180100INS_9allocatorIiEENS_15__list_iteratorIiPvEES5_PiEET2_RT_T0_T1_S7_, symObjAddr: 0x8538, symBinAddr: 0x10000AE54, symSize: 0x104 }
  - { offset: 0xD5F2, size: 0x8, addend: 0x0, symName: __ZNSt3__113__unwrap_iterB8ne180100IPiNS_18__unwrap_iter_implIS1_Lb1EEELi0EEEDTclsrT0_8__unwrapclsr3stdE7declvalIT_EEEES5_, symObjAddr: 0x863C, symBinAddr: 0x10000AF58, symSize: 0x24 }
  - { offset: 0xD636, size: 0x8, addend: 0x0, symName: __ZNSt3__113__rewrap_iterB8ne180100IPiS1_NS_18__unwrap_iter_implIS1_Lb1EEEEET_S4_T0_, symObjAddr: 0x8660, symBinAddr: 0x10000AF7C, symSize: 0x3C }
  - { offset: 0xD78D, size: 0x8, addend: 0x0, symName: __ZNSt3__113__unwrap_iterB8ne180100INS_15__list_iteratorIiPvEENS_18__unwrap_iter_implIS3_Lb0EEELi0EEEDTclsrT0_8__unwrapclsr3stdE7declvalIT_EEEES7_, symObjAddr: 0x8704, symBinAddr: 0x10000B020, symSize: 0x34 }
  - { offset: 0xD819, size: 0x8, addend: 0x0, symName: __ZNSt3__122__make_exception_guardB8ne180100INS_29_AllocatorDestroyRangeReverseINS_9allocatorIiEEPiEEEENS_28__exception_guard_exceptionsIT_EES7_, symObjAddr: 0x87C4, symBinAddr: 0x10000B0E0, symSize: 0x4C }
  - { offset: 0xD84F, size: 0x8, addend: 0x0, symName: __ZNSt3__114__construct_atB8ne180100IiJRiEPiEEPT_S4_DpOT0_, symObjAddr: 0x8968, symBinAddr: 0x10000B284, symSize: 0x2C }
  - { offset: 0xD8A2, size: 0x8, addend: 0x0, symName: __ZNSt3__112construct_atB8ne180100IiJRiEPiEEPT_S4_DpOT0_, symObjAddr: 0x8994, symBinAddr: 0x10000B2B0, symSize: 0x24 }
  - { offset: 0xD8F5, size: 0x8, addend: 0x0, symName: __ZNSt3__119__allocator_destroyB8ne180100INS_9allocatorIiEENS_16reverse_iteratorIPiEES5_EEvRT_T0_T1_, symObjAddr: 0x8A70, symBinAddr: 0x10000B38C, symSize: 0x70 }
  - { offset: 0xD958, size: 0x8, addend: 0x0, symName: __ZNSt3__1neB8ne180100IPiS1_EEbRKNS_16reverse_iteratorIT_EERKNS2_IT0_EE, symObjAddr: 0x8B14, symBinAddr: 0x10000B430, symSize: 0x48 }
  - { offset: 0xD9A4, size: 0x8, addend: 0x0, symName: __ZNSt3__112__to_addressB8ne180100INS_16reverse_iteratorIPiEEvEEu7__decayIDTclsr19__to_address_helperIT_EE6__callclsr3stdE7declvalIRKS4_EEEEES6_, symObjAddr: 0x8B5C, symBinAddr: 0x10000B478, symSize: 0x24 }
  - { offset: 0xDA03, size: 0x8, addend: 0x0, symName: __ZNSt3__14prevB8ne180100IPiLi0EEET_S2_NS_15iterator_traitsIS2_E15difference_typeE, symObjAddr: 0x8C1C, symBinAddr: 0x10000B538, symSize: 0x3C }
  - { offset: 0xDA4C, size: 0x8, addend: 0x0, symName: __ZNSt3__19__advanceB8ne180100IPiEEvRT_NS_15iterator_traitsIS2_E15difference_typeENS_26random_access_iterator_tagE, symObjAddr: 0x8C90, symBinAddr: 0x10000B5AC, symSize: 0x28 }
  - { offset: 0xDAE8, size: 0x8, addend: 0x0, symName: __ZNSt3__1eqB8ne180100IPiEEbRKNS_11__wrap_iterIT_EES6_, symObjAddr: 0x8DD8, symBinAddr: 0x10000B6F4, symSize: 0x48 }
  - { offset: 0xDB2B, size: 0x8, addend: 0x0, symName: __ZNSt3__1eqB8ne180100IPNS_4pairIiiEEEEbRKNS_11__wrap_iterIT_EES8_, symObjAddr: 0x8F38, symBinAddr: 0x10000B854, symSize: 0x48 }
  - { offset: 0xDB6E, size: 0x8, addend: 0x0, symName: __ZNSt3__112__to_addressB8ne180100INS_4pairIiiEEEEPT_S4_, symObjAddr: 0x9248, symBinAddr: 0x10000BB64, symSize: 0x14 }
  - { offset: 0xDBA3, size: 0x8, addend: 0x0, symName: __ZNSt3__112__destroy_atB8ne180100INS_4pairIiiEELi0EEEvPT_, symObjAddr: 0x925C, symBinAddr: 0x10000BB78, symSize: 0x10 }
  - { offset: 0xEBE9, size: 0x8, addend: 0x0, symName: __ZSt28__throw_bad_array_new_lengthB8ne180100v, symObjAddr: 0x18D8, symBinAddr: 0x1000041F4, symSize: 0x34 }
  - { offset: 0xF375, size: 0x8, addend: 0x0, symName: __ZNSt3__16vectorINS_4listIiNS_9allocatorIiEEEENS2_IS4_EEE26__swap_out_circular_bufferERNS_14__split_bufferIS4_RS5_EE, symObjAddr: 0x314C, symBinAddr: 0x100005A68, symSize: 0x110 }
  - { offset: 0xF578, size: 0x8, addend: 0x0, symName: __ZNSt3__16vectorINS_4pairIiNS_15__list_iteratorIiPvEEEENS_9allocatorIS5_EEE26__swap_out_circular_bufferERNS_14__split_bufferIS5_RS7_EE, symObjAddr: 0x56AC, symBinAddr: 0x100007FC8, symSize: 0x110 }
  - { offset: 0xFB7F, size: 0x8, addend: 0x0, symName: __ZN13RadixDijkstra12findAllPathsER5Graphii, symObjAddr: 0x0, symBinAddr: 0x10000291C, symSize: 0x44 }
  - { offset: 0xFBCF, size: 0x8, addend: 0x0, symName: __ZN13RadixDijkstra9rDijkstraER5Graphii, symObjAddr: 0x44, symBinAddr: 0x100002960, symSize: 0x214 }
  - { offset: 0xFC7B, size: 0x8, addend: 0x0, symName: __ZN13RadixDijkstra8findPathER5Graphiii, symObjAddr: 0x258, symBinAddr: 0x100002B74, symSize: 0xA8 }
  - { offset: 0xFCD8, size: 0x8, addend: 0x0, symName: __ZNSt3__16vectorIxNS_9allocatorIxEEE2atEm, symObjAddr: 0x300, symBinAddr: 0x100002C1C, symSize: 0x60 }
  - { offset: 0xFD0D, size: 0x8, addend: 0x0, symName: __ZNSt3__14pairIixEC1B8ne180100IRiRxLi0EEEOT_OT0_, symObjAddr: 0x360, symBinAddr: 0x100002C7C, symSize: 0x3C }
  - { offset: 0xFD69, size: 0x8, addend: 0x0, symName: __ZNSt3__16vectorIxNS_9allocatorIxEEED1B8ne180100Ev, symObjAddr: 0x39C, symBinAddr: 0x100002CB8, symSize: 0x2C }
  - { offset: 0xFD91, size: 0x8, addend: 0x0, symName: __ZNSt3__16vectorIxNS_9allocatorIxEEEC1EmRKx, symObjAddr: 0x3C8, symBinAddr: 0x100002CE4, symSize: 0x3C }
  - { offset: 0xFDD9, size: 0x8, addend: 0x0, symName: __ZNSt3__16vectorIiNS_9allocatorIiEEEC1EmRKi, symObjAddr: 0x404, symBinAddr: 0x100002D20, symSize: 0x3C }
  - { offset: 0xFE21, size: 0x8, addend: 0x0, symName: __ZN9RadixHeapC1EiiRNSt3__16vectorIxNS0_9allocatorIxEEEE, symObjAddr: 0x440, symBinAddr: 0x100002D5C, symSize: 0x44 }
  - { offset: 0xFE73, size: 0x8, addend: 0x0, symName: __ZN9RadixHeap6insertEix, symObjAddr: 0x484, symBinAddr: 0x100002DA0, symSize: 0x178 }
  - { offset: 0xFECF, size: 0x8, addend: 0x0, symName: __ZN9RadixHeap5emptyEv, symObjAddr: 0x5FC, symBinAddr: 0x100002F18, symSize: 0xB4 }
  - { offset: 0xFF41, size: 0x8, addend: 0x0, symName: __ZN9RadixHeap10extractMinEv, symObjAddr: 0x6B0, symBinAddr: 0x100002FCC, symSize: 0x170 }
  - { offset: 0x10003, size: 0x8, addend: 0x0, symName: __ZN13RadixDijkstra15updateProcedureEiR9RadixHeapR5GraphRNSt3__16vectorIxNS4_9allocatorIxEEEERNS5_IiNS6_IiEEEE, symObjAddr: 0x820, symBinAddr: 0x10000313C, symSize: 0x130 }
  - { offset: 0x100FB, size: 0x8, addend: 0x0, symName: __ZN9RadixHeapD1Ev, symObjAddr: 0x950, symBinAddr: 0x10000326C, symSize: 0x2C }
  - { offset: 0x10125, size: 0x8, addend: 0x0, symName: __ZNSt3__16vectorIiNS_9allocatorIiEEED1B8ne180100Ev, symObjAddr: 0x97C, symBinAddr: 0x100003298, symSize: 0x2C }
  - { offset: 0x1014D, size: 0x8, addend: 0x0, symName: __ZNSt3__16vectorINS_4pairIiiEENS_9allocatorIS2_EEE5beginB8ne180100Ev, symObjAddr: 0x9A8, symBinAddr: 0x1000032C4, symSize: 0x30 }
  - { offset: 0x10173, size: 0x8, addend: 0x0, symName: __ZNSt3__16vectorINS_4pairIiiEENS_9allocatorIS2_EEE3endB8ne180100Ev, symObjAddr: 0x9D8, symBinAddr: 0x1000032F4, symSize: 0x30 }
  - { offset: 0x10199, size: 0x8, addend: 0x0, symName: __ZNKSt3__111__wrap_iterIPNS_4pairIiiEEEdeB8ne180100Ev, symObjAddr: 0xA3C, symBinAddr: 0x100003358, symSize: 0x18 }
  - { offset: 0x101BD, size: 0x8, addend: 0x0, symName: __ZNSt3__16vectorIxNS_9allocatorIxEEEixB8ne180100Em, symObjAddr: 0xA54, symBinAddr: 0x100003370, symSize: 0x24 }
  - { offset: 0x101F2, size: 0x8, addend: 0x0, symName: __ZNSt3__111__wrap_iterIPNS_4pairIiiEEEppB8ne180100Ev, symObjAddr: 0xA78, symBinAddr: 0x100003394, symSize: 0x20 }
  - { offset: 0x10216, size: 0x8, addend: 0x0, symName: __ZNSt3__16vectorINS_4pairIiiEENS_9allocatorIS2_EEED1B8ne180100Ev, symObjAddr: 0xA98, symBinAddr: 0x1000033B4, symSize: 0x2C }
  - { offset: 0x1023E, size: 0x8, addend: 0x0, symName: __ZNKSt3__16vectorIxNS_9allocatorIxEEE4sizeB8ne180100Ev, symObjAddr: 0xAC4, symBinAddr: 0x1000033E0, symSize: 0x28 }
  - { offset: 0x10262, size: 0x8, addend: 0x0, symName: __ZNKSt3__16vectorIxNS_9allocatorIxEEE20__throw_out_of_rangeB8ne180100Ev, symObjAddr: 0xAEC, symBinAddr: 0x100003408, symSize: 0x1C }
  - { offset: 0x10286, size: 0x8, addend: 0x0, symName: __ZNSt12out_of_rangeC1B8ne180100EPKc, symObjAddr: 0xB6C, symBinAddr: 0x100003488, symSize: 0x34 }
  - { offset: 0x102BC, size: 0x8, addend: 0x0, symName: __ZNSt12out_of_rangeC2B8ne180100EPKc, symObjAddr: 0xBA0, symBinAddr: 0x1000034BC, symSize: 0x44 }
  - { offset: 0x102F3, size: 0x8, addend: 0x0, symName: __ZNSt3__14pairIixEC2B8ne180100IRiRxLi0EEEOT_OT0_, symObjAddr: 0xBE4, symBinAddr: 0x100003500, symSize: 0x34 }
  - { offset: 0x1034F, size: 0x8, addend: 0x0, symName: __ZNSt3__16vectorIxNS_9allocatorIxEEED2B8ne180100Ev, symObjAddr: 0xC18, symBinAddr: 0x100003534, symSize: 0x44 }
  - { offset: 0x10377, size: 0x8, addend: 0x0, symName: __ZNSt3__16vectorIxNS_9allocatorIxEEE16__destroy_vectorC1B8ne180100ERS3_, symObjAddr: 0xC5C, symBinAddr: 0x100003578, symSize: 0x34 }
  - { offset: 0x103AE, size: 0x8, addend: 0x0, symName: __ZNSt3__16vectorIxNS_9allocatorIxEEE16__destroy_vectorclB8ne180100Ev, symObjAddr: 0xCA0, symBinAddr: 0x1000035BC, symSize: 0x90 }
  - { offset: 0x103D3, size: 0x8, addend: 0x0, symName: __ZNSt3__16vectorIxNS_9allocatorIxEEE16__destroy_vectorC2B8ne180100ERS3_, symObjAddr: 0xD30, symBinAddr: 0x10000364C, symSize: 0x20 }
  - { offset: 0x1040A, size: 0x8, addend: 0x0, symName: __ZNSt3__16vectorIxNS_9allocatorIxEEE7__clearB8ne180100Ev, symObjAddr: 0xD50, symBinAddr: 0x10000366C, symSize: 0x28 }
  - { offset: 0x1042E, size: 0x8, addend: 0x0, symName: __ZNKSt3__16vectorIxNS_9allocatorIxEEE17__annotate_deleteB8ne180100Ev, symObjAddr: 0xD78, symBinAddr: 0x100003694, symSize: 0x10 }
  - { offset: 0x10453, size: 0x8, addend: 0x0, symName: __ZNSt3__116allocator_traitsINS_9allocatorIxEEE10deallocateB8ne180100ERS2_Pxm, symObjAddr: 0xD88, symBinAddr: 0x1000036A4, symSize: 0x34 }
  - { offset: 0x10494, size: 0x8, addend: 0x0, symName: __ZNSt3__16vectorIxNS_9allocatorIxEEE7__allocB8ne180100Ev, symObjAddr: 0xDBC, symBinAddr: 0x1000036D8, symSize: 0x28 }
  - { offset: 0x104B8, size: 0x8, addend: 0x0, symName: __ZNKSt3__16vectorIxNS_9allocatorIxEEE8capacityB8ne180100Ev, symObjAddr: 0xDE4, symBinAddr: 0x100003700, symSize: 0x40 }
  - { offset: 0x104DC, size: 0x8, addend: 0x0, symName: __ZNSt3__16vectorIxNS_9allocatorIxEEE22__base_destruct_at_endB8ne180100EPx, symObjAddr: 0xE24, symBinAddr: 0x100003740, symSize: 0x8C }
  - { offset: 0x1051F, size: 0x8, addend: 0x0, symName: __ZNSt3__116allocator_traitsINS_9allocatorIxEEE7destroyB8ne180100IxvvEEvRS2_PT_, symObjAddr: 0xEB0, symBinAddr: 0x1000037CC, symSize: 0x28 }
  - { offset: 0x10559, size: 0x8, addend: 0x0, symName: __ZNSt3__19allocatorIxE10deallocateB8ne180100EPxm, symObjAddr: 0xEFC, symBinAddr: 0x100003818, symSize: 0x40 }
  - { offset: 0x10599, size: 0x8, addend: 0x0, symName: __ZNSt3__117__compressed_pairIPxNS_9allocatorIxEEE6secondB8ne180100Ev, symObjAddr: 0x1064, symBinAddr: 0x100003980, symSize: 0x24 }
  - { offset: 0x105BD, size: 0x8, addend: 0x0, symName: __ZNSt3__122__compressed_pair_elemINS_9allocatorIxEELi1ELb1EE5__getB8ne180100Ev, symObjAddr: 0x1088, symBinAddr: 0x1000039A4, symSize: 0x14 }
  - { offset: 0x105E1, size: 0x8, addend: 0x0, symName: __ZNKSt3__16vectorIxNS_9allocatorIxEEE9__end_capB8ne180100Ev, symObjAddr: 0x109C, symBinAddr: 0x1000039B8, symSize: 0x28 }
  - { offset: 0x10605, size: 0x8, addend: 0x0, symName: __ZNKSt3__117__compressed_pairIPxNS_9allocatorIxEEE5firstB8ne180100Ev, symObjAddr: 0x10C4, symBinAddr: 0x1000039E0, symSize: 0x24 }
  - { offset: 0x10629, size: 0x8, addend: 0x0, symName: __ZNKSt3__122__compressed_pair_elemIPxLi0ELb0EE5__getB8ne180100Ev, symObjAddr: 0x10E8, symBinAddr: 0x100003A04, symSize: 0x14 }
  - { offset: 0x1064D, size: 0x8, addend: 0x0, symName: __ZNSt3__16vectorIxNS_9allocatorIxEEEC2EmRKx, symObjAddr: 0x10FC, symBinAddr: 0x100003A18, symSize: 0xDC }
  - { offset: 0x106BA, size: 0x8, addend: 0x0, symName: __ZNSt3__117__compressed_pairIPxNS_9allocatorIxEEEC1B8ne180100IDnNS_18__default_init_tagEEEOT_OT0_, symObjAddr: 0x11D8, symBinAddr: 0x100003AF4, symSize: 0x3C }
  - { offset: 0x10710, size: 0x8, addend: 0x0, symName: __ZNSt3__16vectorIxNS_9allocatorIxEEE11__vallocateB8ne180100Em, symObjAddr: 0x1254, symBinAddr: 0x100003B70, symSize: 0xAC }
  - { offset: 0x10752, size: 0x8, addend: 0x0, symName: __ZNSt3__16vectorIxNS_9allocatorIxEEE18__construct_at_endEmRKx, symObjAddr: 0x1300, symBinAddr: 0x100003C1C, symSize: 0xD0 }
  - { offset: 0x107D1, size: 0x8, addend: 0x0, symName: __ZNSt3__128__exception_guard_exceptionsINS_6vectorIxNS_9allocatorIxEEE16__destroy_vectorEE10__completeB8ne180100Ev, symObjAddr: 0x13D0, symBinAddr: 0x100003CEC, symSize: 0x1C }
  - { offset: 0x107F5, size: 0x8, addend: 0x0, symName: __ZNSt3__128__exception_guard_exceptionsINS_6vectorIxNS_9allocatorIxEEE16__destroy_vectorEED1B8ne180100Ev, symObjAddr: 0x13EC, symBinAddr: 0x100003D08, symSize: 0x2C }
  - { offset: 0x1081D, size: 0x8, addend: 0x0, symName: __ZNSt3__117__compressed_pairIPxNS_9allocatorIxEEEC2B8ne180100IDnNS_18__default_init_tagEEEOT_OT0_, symObjAddr: 0x1418, symBinAddr: 0x100003D34, symSize: 0x40 }
  - { offset: 0x10874, size: 0x8, addend: 0x0, symName: __ZNSt3__122__compressed_pair_elemIPxLi0ELb0EEC2B8ne180100IDnvEEOT_, symObjAddr: 0x1458, symBinAddr: 0x100003D74, symSize: 0x1C }
  - { offset: 0x108B4, size: 0x8, addend: 0x0, symName: __ZNSt3__122__compressed_pair_elemINS_9allocatorIxEELi1ELb1EEC2B8ne180100ENS_18__default_init_tagE, symObjAddr: 0x1474, symBinAddr: 0x100003D90, symSize: 0x2C }
  - { offset: 0x108E6, size: 0x8, addend: 0x0, symName: __ZNSt3__19allocatorIxEC2B8ne180100Ev, symObjAddr: 0x14A0, symBinAddr: 0x100003DBC, symSize: 0x2C }
  - { offset: 0x1090F, size: 0x8, addend: 0x0, symName: __ZNSt3__116__non_trivial_ifILb1ENS_9allocatorIxEEEC2B8ne180100Ev, symObjAddr: 0x14CC, symBinAddr: 0x100003DE8, symSize: 0x14 }
  - { offset: 0x10937, size: 0x8, addend: 0x0, symName: __ZNSt3__128__exception_guard_exceptionsINS_6vectorIxNS_9allocatorIxEEE16__destroy_vectorEEC1B8ne180100ES5_, symObjAddr: 0x14E0, symBinAddr: 0x100003DFC, symSize: 0x34 }
  - { offset: 0x1096E, size: 0x8, addend: 0x0, symName: __ZNSt3__128__exception_guard_exceptionsINS_6vectorIxNS_9allocatorIxEEE16__destroy_vectorEEC2B8ne180100ES5_, symObjAddr: 0x1514, symBinAddr: 0x100003E30, symSize: 0x24 }
  - { offset: 0x109A4, size: 0x8, addend: 0x0, symName: __ZNKSt3__16vectorIxNS_9allocatorIxEEE8max_sizeEv, symObjAddr: 0x1538, symBinAddr: 0x100003E54, symSize: 0x60 }
  - { offset: 0x109CA, size: 0x8, addend: 0x0, symName: __ZNKSt3__16vectorIxNS_9allocatorIxEEE20__throw_length_errorB8ne180100Ev, symObjAddr: 0x1598, symBinAddr: 0x100003EB4, symSize: 0x1C }
  - { offset: 0x109EE, size: 0x8, addend: 0x0, symName: __ZNSt3__16vectorIxNS_9allocatorIxEEE9__end_capB8ne180100Ev, symObjAddr: 0x15F4, symBinAddr: 0x100003F10, symSize: 0x28 }
  - { offset: 0x10A12, size: 0x8, addend: 0x0, symName: __ZNKSt3__16vectorIxNS_9allocatorIxEEE14__annotate_newB8ne180100Em, symObjAddr: 0x161C, symBinAddr: 0x100003F38, symSize: 0x14 }
  - { offset: 0x10A50, size: 0x8, addend: 0x0, symName: __ZNSt3__116allocator_traitsINS_9allocatorIxEEE8max_sizeB8ne180100IS2_vvEEmRKS2_, symObjAddr: 0x165C, symBinAddr: 0x100003F78, symSize: 0x28 }
  - { offset: 0x10A7B, size: 0x8, addend: 0x0, symName: __ZNKSt3__16vectorIxNS_9allocatorIxEEE7__allocB8ne180100Ev, symObjAddr: 0x1684, symBinAddr: 0x100003FA0, symSize: 0x28 }
  - { offset: 0x10AA0, size: 0x8, addend: 0x0, symName: __ZNSt3__114numeric_limitsIlE3maxB8ne180100Ev, symObjAddr: 0x16AC, symBinAddr: 0x100003FC8, symSize: 0x14 }
  - { offset: 0x10ABD, size: 0x8, addend: 0x0, symName: __ZNKSt3__16__lessIvvEclB8ne180100ImmEEbRKT_RKT0_, symObjAddr: 0x1714, symBinAddr: 0x100004030, symSize: 0x34 }
  - { offset: 0x10B10, size: 0x8, addend: 0x0, symName: __ZNSt3__114numeric_limitsImE3maxB8ne180100Ev, symObjAddr: 0x1748, symBinAddr: 0x100004064, symSize: 0x14 }
  - { offset: 0x10B24, size: 0x8, addend: 0x0, symName: __ZNSt3__123__libcpp_numeric_limitsImLb1EE3maxB8ne180100Ev, symObjAddr: 0x175C, symBinAddr: 0x100004078, symSize: 0x8 }
  - { offset: 0x10B37, size: 0x8, addend: 0x0, symName: __ZNKSt3__117__compressed_pairIPxNS_9allocatorIxEEE6secondB8ne180100Ev, symObjAddr: 0x1764, symBinAddr: 0x100004080, symSize: 0x24 }
  - { offset: 0x10B5B, size: 0x8, addend: 0x0, symName: __ZNKSt3__122__compressed_pair_elemINS_9allocatorIxEELi1ELb1EE5__getB8ne180100Ev, symObjAddr: 0x1788, symBinAddr: 0x1000040A4, symSize: 0x14 }
  - { offset: 0x10B80, size: 0x8, addend: 0x0, symName: __ZNSt3__123__libcpp_numeric_limitsIlLb1EE3maxB8ne180100Ev, symObjAddr: 0x179C, symBinAddr: 0x1000040B8, symSize: 0x8 }
  - { offset: 0x10B93, size: 0x8, addend: 0x0, symName: __ZNSt12length_errorC1B8ne180100EPKc, symObjAddr: 0x1808, symBinAddr: 0x100004124, symSize: 0x34 }
  - { offset: 0x10BC9, size: 0x8, addend: 0x0, symName: __ZNSt12length_errorC2B8ne180100EPKc, symObjAddr: 0x183C, symBinAddr: 0x100004158, symSize: 0x44 }
  - { offset: 0x10BFF, size: 0x8, addend: 0x0, symName: __ZNSt3__19allocatorIxE8allocateB8ne180100Em, symObjAddr: 0x1880, symBinAddr: 0x10000419C, symSize: 0x58 }
  - { offset: 0x10C31, size: 0x8, addend: 0x0, symName: __ZNSt3__117__compressed_pairIPxNS_9allocatorIxEEE5firstB8ne180100Ev, symObjAddr: 0x19BC, symBinAddr: 0x1000042D8, symSize: 0x24 }
  - { offset: 0x10C55, size: 0x8, addend: 0x0, symName: __ZNSt3__122__compressed_pair_elemIPxLi0ELb0EE5__getB8ne180100Ev, symObjAddr: 0x19E0, symBinAddr: 0x1000042FC, symSize: 0x14 }
  - { offset: 0x10C92, size: 0x8, addend: 0x0, symName: __ZNSt3__16vectorIxNS_9allocatorIxEEE21_ConstructTransactionC1B8ne180100ERS3_m, symObjAddr: 0x19F4, symBinAddr: 0x100004310, symSize: 0x3C }
  - { offset: 0x10CDE, size: 0x8, addend: 0x0, symName: __ZNSt3__116allocator_traitsINS_9allocatorIxEEE9constructB8ne180100IxJRKxEvvEEvRS2_PT_DpOT0_, symObjAddr: 0x1A30, symBinAddr: 0x10000434C, symSize: 0x30 }
  - { offset: 0x10D32, size: 0x8, addend: 0x0, symName: __ZNSt3__16vectorIxNS_9allocatorIxEEE21_ConstructTransactionD1B8ne180100Ev, symObjAddr: 0x1A60, symBinAddr: 0x10000437C, symSize: 0x2C }
  - { offset: 0x10D5B, size: 0x8, addend: 0x0, symName: __ZNSt3__16vectorIxNS_9allocatorIxEEE21_ConstructTransactionC2B8ne180100ERS3_m, symObjAddr: 0x1A8C, symBinAddr: 0x1000043A8, symSize: 0x44 }
  - { offset: 0x10DA2, size: 0x8, addend: 0x0, symName: __ZNSt3__16vectorIxNS_9allocatorIxEEE21_ConstructTransactionD2B8ne180100Ev, symObjAddr: 0x1B20, symBinAddr: 0x10000443C, symSize: 0x20 }
  - { offset: 0x10DCA, size: 0x8, addend: 0x0, symName: __ZNSt3__128__exception_guard_exceptionsINS_6vectorIxNS_9allocatorIxEEE16__destroy_vectorEED2B8ne180100Ev, symObjAddr: 0x1B40, symBinAddr: 0x10000445C, symSize: 0x48 }
  - { offset: 0x10DF2, size: 0x8, addend: 0x0, symName: __ZNSt3__16vectorIiNS_9allocatorIiEEEC2EmRKi, symObjAddr: 0x1B88, symBinAddr: 0x1000044A4, symSize: 0xDC }
  - { offset: 0x10E4F, size: 0x8, addend: 0x0, symName: __ZNSt3__117__compressed_pairIPiNS_9allocatorIiEEEC1B8ne180100IDnNS_18__default_init_tagEEEOT_OT0_, symObjAddr: 0x1C64, symBinAddr: 0x100004580, symSize: 0x3C }
  - { offset: 0x10EA5, size: 0x8, addend: 0x0, symName: __ZNSt3__16vectorIiNS_9allocatorIiEEE16__destroy_vectorC1B8ne180100ERS3_, symObjAddr: 0x1CE0, symBinAddr: 0x1000045FC, symSize: 0x34 }
  - { offset: 0x10EDC, size: 0x8, addend: 0x0, symName: __ZNSt3__16vectorIiNS_9allocatorIiEEE11__vallocateB8ne180100Em, symObjAddr: 0x1D14, symBinAddr: 0x100004630, symSize: 0xAC }
  - { offset: 0x10F1E, size: 0x8, addend: 0x0, symName: __ZNSt3__16vectorIiNS_9allocatorIiEEE18__construct_at_endEmRKi, symObjAddr: 0x1DC0, symBinAddr: 0x1000046DC, symSize: 0xD0 }
  - { offset: 0x10F9D, size: 0x8, addend: 0x0, symName: __ZNSt3__128__exception_guard_exceptionsINS_6vectorIiNS_9allocatorIiEEE16__destroy_vectorEE10__completeB8ne180100Ev, symObjAddr: 0x1E90, symBinAddr: 0x1000047AC, symSize: 0x1C }
  - { offset: 0x10FC1, size: 0x8, addend: 0x0, symName: __ZNSt3__128__exception_guard_exceptionsINS_6vectorIiNS_9allocatorIiEEE16__destroy_vectorEED1B8ne180100Ev, symObjAddr: 0x1EAC, symBinAddr: 0x1000047C8, symSize: 0x2C }
  - { offset: 0x10FE9, size: 0x8, addend: 0x0, symName: __ZNSt3__117__compressed_pairIPiNS_9allocatorIiEEEC2B8ne180100IDnNS_18__default_init_tagEEEOT_OT0_, symObjAddr: 0x1ED8, symBinAddr: 0x1000047F4, symSize: 0x40 }
  - { offset: 0x11040, size: 0x8, addend: 0x0, symName: __ZNSt3__122__compressed_pair_elemIPiLi0ELb0EEC2B8ne180100IDnvEEOT_, symObjAddr: 0x1F18, symBinAddr: 0x100004834, symSize: 0x1C }
  - { offset: 0x11080, size: 0x8, addend: 0x0, symName: __ZNSt3__122__compressed_pair_elemINS_9allocatorIiEELi1ELb1EEC2B8ne180100ENS_18__default_init_tagE, symObjAddr: 0x1F34, symBinAddr: 0x100004850, symSize: 0x2C }
  - { offset: 0x110B2, size: 0x8, addend: 0x0, symName: __ZNSt3__19allocatorIiEC2B8ne180100Ev, symObjAddr: 0x1F60, symBinAddr: 0x10000487C, symSize: 0x2C }
  - { offset: 0x110DB, size: 0x8, addend: 0x0, symName: __ZNSt3__116__non_trivial_ifILb1ENS_9allocatorIiEEEC2B8ne180100Ev, symObjAddr: 0x1F8C, symBinAddr: 0x1000048A8, symSize: 0x14 }
  - { offset: 0x11103, size: 0x8, addend: 0x0, symName: __ZNSt3__128__exception_guard_exceptionsINS_6vectorIiNS_9allocatorIiEEE16__destroy_vectorEEC1B8ne180100ES5_, symObjAddr: 0x1FA0, symBinAddr: 0x1000048BC, symSize: 0x34 }
  - { offset: 0x1113A, size: 0x8, addend: 0x0, symName: __ZNSt3__128__exception_guard_exceptionsINS_6vectorIiNS_9allocatorIiEEE16__destroy_vectorEEC2B8ne180100ES5_, symObjAddr: 0x1FD4, symBinAddr: 0x1000048F0, symSize: 0x24 }
  - { offset: 0x11171, size: 0x8, addend: 0x0, symName: __ZNSt3__16vectorIiNS_9allocatorIiEEE16__destroy_vectorC2B8ne180100ERS3_, symObjAddr: 0x1FF8, symBinAddr: 0x100004914, symSize: 0x20 }
  - { offset: 0x111A8, size: 0x8, addend: 0x0, symName: __ZNKSt3__16vectorIiNS_9allocatorIiEEE8max_sizeEv, symObjAddr: 0x2018, symBinAddr: 0x100004934, symSize: 0x60 }
  - { offset: 0x111CE, size: 0x8, addend: 0x0, symName: __ZNKSt3__16vectorIiNS_9allocatorIiEEE20__throw_length_errorB8ne180100Ev, symObjAddr: 0x2078, symBinAddr: 0x100004994, symSize: 0x1C }
  - { offset: 0x111F2, size: 0x8, addend: 0x0, symName: __ZNSt3__16vectorIiNS_9allocatorIiEEE7__allocB8ne180100Ev, symObjAddr: 0x20D4, symBinAddr: 0x1000049F0, symSize: 0x28 }
  - { offset: 0x11216, size: 0x8, addend: 0x0, symName: __ZNSt3__16vectorIiNS_9allocatorIiEEE9__end_capB8ne180100Ev, symObjAddr: 0x20FC, symBinAddr: 0x100004A18, symSize: 0x28 }
  - { offset: 0x1123A, size: 0x8, addend: 0x0, symName: __ZNKSt3__16vectorIiNS_9allocatorIiEEE14__annotate_newB8ne180100Em, symObjAddr: 0x2124, symBinAddr: 0x100004A40, symSize: 0x14 }
  - { offset: 0x11278, size: 0x8, addend: 0x0, symName: __ZNSt3__116allocator_traitsINS_9allocatorIiEEE8max_sizeB8ne180100IS2_vvEEmRKS2_, symObjAddr: 0x2138, symBinAddr: 0x100004A54, symSize: 0x28 }
  - { offset: 0x112A3, size: 0x8, addend: 0x0, symName: __ZNKSt3__16vectorIiNS_9allocatorIiEEE7__allocB8ne180100Ev, symObjAddr: 0x2160, symBinAddr: 0x100004A7C, symSize: 0x28 }
  - { offset: 0x112C7, size: 0x8, addend: 0x0, symName: __ZNKSt3__117__compressed_pairIPiNS_9allocatorIiEEE6secondB8ne180100Ev, symObjAddr: 0x2188, symBinAddr: 0x100004AA4, symSize: 0x24 }
  - { offset: 0x112EB, size: 0x8, addend: 0x0, symName: __ZNKSt3__122__compressed_pair_elemINS_9allocatorIiEELi1ELb1EE5__getB8ne180100Ev, symObjAddr: 0x21AC, symBinAddr: 0x100004AC8, symSize: 0x14 }
  - { offset: 0x1130F, size: 0x8, addend: 0x0, symName: __ZNSt3__19allocatorIiE8allocateB8ne180100Em, symObjAddr: 0x21C0, symBinAddr: 0x100004ADC, symSize: 0x58 }
  - { offset: 0x11341, size: 0x8, addend: 0x0, symName: __ZNSt3__117__compressed_pairIPiNS_9allocatorIiEEE6secondB8ne180100Ev, symObjAddr: 0x2218, symBinAddr: 0x100004B34, symSize: 0x24 }
  - { offset: 0x11365, size: 0x8, addend: 0x0, symName: __ZNSt3__122__compressed_pair_elemINS_9allocatorIiEELi1ELb1EE5__getB8ne180100Ev, symObjAddr: 0x223C, symBinAddr: 0x100004B58, symSize: 0x14 }
  - { offset: 0x11389, size: 0x8, addend: 0x0, symName: __ZNSt3__117__compressed_pairIPiNS_9allocatorIiEEE5firstB8ne180100Ev, symObjAddr: 0x2250, symBinAddr: 0x100004B6C, symSize: 0x24 }
  - { offset: 0x113AD, size: 0x8, addend: 0x0, symName: __ZNSt3__122__compressed_pair_elemIPiLi0ELb0EE5__getB8ne180100Ev, symObjAddr: 0x2274, symBinAddr: 0x100004B90, symSize: 0x14 }
  - { offset: 0x113EA, size: 0x8, addend: 0x0, symName: __ZNSt3__16vectorIiNS_9allocatorIiEEE21_ConstructTransactionC1B8ne180100ERS3_m, symObjAddr: 0x2288, symBinAddr: 0x100004BA4, symSize: 0x3C }
  - { offset: 0x11436, size: 0x8, addend: 0x0, symName: __ZNSt3__116allocator_traitsINS_9allocatorIiEEE9constructB8ne180100IiJRKiEvvEEvRS2_PT_DpOT0_, symObjAddr: 0x22C4, symBinAddr: 0x100004BE0, symSize: 0x30 }
  - { offset: 0x1148A, size: 0x8, addend: 0x0, symName: __ZNSt3__16vectorIiNS_9allocatorIiEEE21_ConstructTransactionD1B8ne180100Ev, symObjAddr: 0x2308, symBinAddr: 0x100004C24, symSize: 0x2C }
  - { offset: 0x114B3, size: 0x8, addend: 0x0, symName: __ZNSt3__16vectorIiNS_9allocatorIiEEE21_ConstructTransactionC2B8ne180100ERS3_m, symObjAddr: 0x2334, symBinAddr: 0x100004C50, symSize: 0x44 }
  - { offset: 0x114FA, size: 0x8, addend: 0x0, symName: __ZNSt3__16vectorIiNS_9allocatorIiEEE21_ConstructTransactionD2B8ne180100Ev, symObjAddr: 0x23C8, symBinAddr: 0x100004CE4, symSize: 0x20 }
  - { offset: 0x11522, size: 0x8, addend: 0x0, symName: __ZNSt3__128__exception_guard_exceptionsINS_6vectorIiNS_9allocatorIiEEE16__destroy_vectorEED2B8ne180100Ev, symObjAddr: 0x23E8, symBinAddr: 0x100004D04, symSize: 0x50 }
  - { offset: 0x1154A, size: 0x8, addend: 0x0, symName: __ZNSt3__16vectorIiNS_9allocatorIiEEE16__destroy_vectorclB8ne180100Ev, symObjAddr: 0x2438, symBinAddr: 0x100004D54, symSize: 0x90 }
  - { offset: 0x1156E, size: 0x8, addend: 0x0, symName: __ZNSt3__16vectorIiNS_9allocatorIiEEE7__clearB8ne180100Ev, symObjAddr: 0x24C8, symBinAddr: 0x100004DE4, symSize: 0x28 }
  - { offset: 0x11592, size: 0x8, addend: 0x0, symName: __ZNKSt3__16vectorIiNS_9allocatorIiEEE17__annotate_deleteB8ne180100Ev, symObjAddr: 0x24F0, symBinAddr: 0x100004E0C, symSize: 0x10 }
  - { offset: 0x115B7, size: 0x8, addend: 0x0, symName: __ZNSt3__116allocator_traitsINS_9allocatorIiEEE10deallocateB8ne180100ERS2_Pim, symObjAddr: 0x2500, symBinAddr: 0x100004E1C, symSize: 0x34 }
  - { offset: 0x115F8, size: 0x8, addend: 0x0, symName: __ZNKSt3__16vectorIiNS_9allocatorIiEEE8capacityB8ne180100Ev, symObjAddr: 0x2534, symBinAddr: 0x100004E50, symSize: 0x40 }
  - { offset: 0x1161C, size: 0x8, addend: 0x0, symName: __ZNSt3__16vectorIiNS_9allocatorIiEEE22__base_destruct_at_endB8ne180100EPi, symObjAddr: 0x2574, symBinAddr: 0x100004E90, symSize: 0x8C }
  - { offset: 0x1165F, size: 0x8, addend: 0x0, symName: __ZNSt3__116allocator_traitsINS_9allocatorIiEEE7destroyB8ne180100IivvEEvRS2_PT_, symObjAddr: 0x2600, symBinAddr: 0x100004F1C, symSize: 0x28 }
  - { offset: 0x11699, size: 0x8, addend: 0x0, symName: __ZNSt3__19allocatorIiE10deallocateB8ne180100EPim, symObjAddr: 0x2638, symBinAddr: 0x100004F54, symSize: 0x40 }
  - { offset: 0x116D9, size: 0x8, addend: 0x0, symName: __ZNKSt3__16vectorIiNS_9allocatorIiEEE9__end_capB8ne180100Ev, symObjAddr: 0x2678, symBinAddr: 0x100004F94, symSize: 0x28 }
  - { offset: 0x116FD, size: 0x8, addend: 0x0, symName: __ZNKSt3__117__compressed_pairIPiNS_9allocatorIiEEE5firstB8ne180100Ev, symObjAddr: 0x26A0, symBinAddr: 0x100004FBC, symSize: 0x24 }
  - { offset: 0x11721, size: 0x8, addend: 0x0, symName: __ZNKSt3__122__compressed_pair_elemIPiLi0ELb0EE5__getB8ne180100Ev, symObjAddr: 0x26C4, symBinAddr: 0x100004FE0, symSize: 0x14 }
  - { offset: 0x11745, size: 0x8, addend: 0x0, symName: __ZN9RadixHeapC2EiiRNSt3__16vectorIxNS0_9allocatorIxEEEE, symObjAddr: 0x26D8, symBinAddr: 0x100004FF4, symSize: 0x114 }
  - { offset: 0x117AB, size: 0x8, addend: 0x0, symName: __ZNSt3__16vectorINS_4pairIiNS_15__list_iteratorIiPvEEEENS_9allocatorIS5_EEEC1B8ne180100Ev, symObjAddr: 0x27EC, symBinAddr: 0x100005108, symSize: 0x2C }
  - { offset: 0x117D3, size: 0x8, addend: 0x0, symName: __ZNSt3__16vectorINS_4listIiNS_9allocatorIiEEEENS2_IS4_EEEC1B8ne180100Ev, symObjAddr: 0x2818, symBinAddr: 0x100005134, symSize: 0x2C }
  - { offset: 0x117FB, size: 0x8, addend: 0x0, symName: __ZNSt3__16vectorINS_4listIiNS_9allocatorIiEEEENS2_IS4_EEE6resizeEm, symObjAddr: 0x2874, symBinAddr: 0x100005190, symSize: 0x9C }
  - { offset: 0x1183F, size: 0x8, addend: 0x0, symName: __ZNSt3__16vectorINS_4pairIiNS_15__list_iteratorIiPvEEEENS_9allocatorIS5_EEE6resizeEmRKS5_, symObjAddr: 0x2910, symBinAddr: 0x10000522C, symSize: 0x9C }
  - { offset: 0x11892, size: 0x8, addend: 0x0, symName: __ZNSt3__115__list_iteratorIiPvEC1B8ne180100Ev, symObjAddr: 0x29AC, symBinAddr: 0x1000052C8, symSize: 0x2C }
  - { offset: 0x118BA, size: 0x8, addend: 0x0, symName: __ZNSt3__14pairIiNS_15__list_iteratorIiPvEEEC1B8ne180100ILb1ELi0EEERKiRKS3_, symObjAddr: 0x29D8, symBinAddr: 0x1000052F4, symSize: 0x3C }
  - { offset: 0x1190E, size: 0x8, addend: 0x0, symName: __ZNSt3__16vectorINS_4listIiNS_9allocatorIiEEEENS2_IS4_EEED1B8ne180100Ev, symObjAddr: 0x2A14, symBinAddr: 0x100005330, symSize: 0x2C }
  - { offset: 0x11936, size: 0x8, addend: 0x0, symName: __ZNSt3__16vectorINS_4pairIiNS_15__list_iteratorIiPvEEEENS_9allocatorIS5_EEED1B8ne180100Ev, symObjAddr: 0x2A40, symBinAddr: 0x10000535C, symSize: 0x2C }
  - { offset: 0x1195E, size: 0x8, addend: 0x0, symName: __ZNSt3__16vectorINS_4pairIiNS_15__list_iteratorIiPvEEEENS_9allocatorIS5_EEEC2B8ne180100Ev, symObjAddr: 0x2A6C, symBinAddr: 0x100005388, symSize: 0x4C }
  - { offset: 0x11986, size: 0x8, addend: 0x0, symName: __ZNSt3__117__compressed_pairIPNS_4pairIiNS_15__list_iteratorIiPvEEEENS_9allocatorIS5_EEEC1B8ne180100IDnNS_18__default_init_tagEEEOT_OT0_, symObjAddr: 0x2AB8, symBinAddr: 0x1000053D4, symSize: 0x3C }
  - { offset: 0x119DC, size: 0x8, addend: 0x0, symName: __ZNSt3__117__compressed_pairIPNS_4pairIiNS_15__list_iteratorIiPvEEEENS_9allocatorIS5_EEEC2B8ne180100IDnNS_18__default_init_tagEEEOT_OT0_, symObjAddr: 0x2AF4, symBinAddr: 0x100005410, symSize: 0x40 }
  - { offset: 0x11A33, size: 0x8, addend: 0x0, symName: __ZNSt3__122__compressed_pair_elemIPNS_4pairIiNS_15__list_iteratorIiPvEEEELi0ELb0EEC2B8ne180100IDnvEEOT_, symObjAddr: 0x2B34, symBinAddr: 0x100005450, symSize: 0x1C }
  - { offset: 0x11A73, size: 0x8, addend: 0x0, symName: __ZNSt3__122__compressed_pair_elemINS_9allocatorINS_4pairIiNS_15__list_iteratorIiPvEEEEEELi1ELb1EEC2B8ne180100ENS_18__default_init_tagE, symObjAddr: 0x2B50, symBinAddr: 0x10000546C, symSize: 0x2C }
  - { offset: 0x11AA5, size: 0x8, addend: 0x0, symName: __ZNSt3__19allocatorINS_4pairIiNS_15__list_iteratorIiPvEEEEEC2B8ne180100Ev, symObjAddr: 0x2B7C, symBinAddr: 0x100005498, symSize: 0x2C }
  - { offset: 0x11ACE, size: 0x8, addend: 0x0, symName: __ZNSt3__116__non_trivial_ifILb1ENS_9allocatorINS_4pairIiNS_15__list_iteratorIiPvEEEEEEEC2B8ne180100Ev, symObjAddr: 0x2BA8, symBinAddr: 0x1000054C4, symSize: 0x14 }
  - { offset: 0x11AF6, size: 0x8, addend: 0x0, symName: __ZNSt3__16vectorINS_4listIiNS_9allocatorIiEEEENS2_IS4_EEEC2B8ne180100Ev, symObjAddr: 0x2BBC, symBinAddr: 0x1000054D8, symSize: 0x4C }
  - { offset: 0x11B1E, size: 0x8, addend: 0x0, symName: __ZNSt3__117__compressed_pairIPNS_4listIiNS_9allocatorIiEEEENS2_IS4_EEEC1B8ne180100IDnNS_18__default_init_tagEEEOT_OT0_, symObjAddr: 0x2C08, symBinAddr: 0x100005524, symSize: 0x3C }
  - { offset: 0x11B74, size: 0x8, addend: 0x0, symName: __ZNSt3__117__compressed_pairIPNS_4listIiNS_9allocatorIiEEEENS2_IS4_EEEC2B8ne180100IDnNS_18__default_init_tagEEEOT_OT0_, symObjAddr: 0x2C44, symBinAddr: 0x100005560, symSize: 0x40 }
  - { offset: 0x11BCB, size: 0x8, addend: 0x0, symName: __ZNSt3__122__compressed_pair_elemIPNS_4listIiNS_9allocatorIiEEEELi0ELb0EEC2B8ne180100IDnvEEOT_, symObjAddr: 0x2C84, symBinAddr: 0x1000055A0, symSize: 0x1C }
  - { offset: 0x11C0B, size: 0x8, addend: 0x0, symName: __ZNSt3__122__compressed_pair_elemINS_9allocatorINS_4listIiNS1_IiEEEEEELi1ELb1EEC2B8ne180100ENS_18__default_init_tagE, symObjAddr: 0x2CA0, symBinAddr: 0x1000055BC, symSize: 0x2C }
  - { offset: 0x11C3D, size: 0x8, addend: 0x0, symName: __ZNSt3__19allocatorINS_4listIiNS0_IiEEEEEC2B8ne180100Ev, symObjAddr: 0x2CCC, symBinAddr: 0x1000055E8, symSize: 0x2C }
  - { offset: 0x11C66, size: 0x8, addend: 0x0, symName: __ZNSt3__116__non_trivial_ifILb1ENS_9allocatorINS_4listIiNS1_IiEEEEEEEC2B8ne180100Ev, symObjAddr: 0x2CF8, symBinAddr: 0x100005614, symSize: 0x14 }
  - { offset: 0x11C8E, size: 0x8, addend: 0x0, symName: __ZNKSt3__16vectorINS_4listIiNS_9allocatorIiEEEENS2_IS4_EEE4sizeB8ne180100Ev, symObjAddr: 0x2D0C, symBinAddr: 0x100005628, symSize: 0x28 }
  - { offset: 0x11CB2, size: 0x8, addend: 0x0, symName: __ZNSt3__16vectorINS_4listIiNS_9allocatorIiEEEENS2_IS4_EEE8__appendEm, symObjAddr: 0x2D34, symBinAddr: 0x100005650, symSize: 0x108 }
  - { offset: 0x11D0B, size: 0x8, addend: 0x0, symName: __ZNSt3__16vectorINS_4listIiNS_9allocatorIiEEEENS2_IS4_EEE17__destruct_at_endB8ne180100EPS4_, symObjAddr: 0x2E3C, symBinAddr: 0x100005758, symSize: 0x4C }
  - { offset: 0x11D4D, size: 0x8, addend: 0x0, symName: __ZNSt3__16vectorINS_4listIiNS_9allocatorIiEEEENS2_IS4_EEE9__end_capB8ne180100Ev, symObjAddr: 0x2E88, symBinAddr: 0x1000057A4, symSize: 0x28 }
  - { offset: 0x11D71, size: 0x8, addend: 0x0, symName: __ZNSt3__16vectorINS_4listIiNS_9allocatorIiEEEENS2_IS4_EEE18__construct_at_endEm, symObjAddr: 0x2EB0, symBinAddr: 0x1000057CC, symSize: 0xC8 }
  - { offset: 0x11DE1, size: 0x8, addend: 0x0, symName: __ZNSt3__16vectorINS_4listIiNS_9allocatorIiEEEENS2_IS4_EEE7__allocB8ne180100Ev, symObjAddr: 0x2F78, symBinAddr: 0x100005894, symSize: 0x28 }
  - { offset: 0x11E05, size: 0x8, addend: 0x0, symName: __ZNKSt3__16vectorINS_4listIiNS_9allocatorIiEEEENS2_IS4_EEE11__recommendB8ne180100Em, symObjAddr: 0x2FA0, symBinAddr: 0x1000058BC, symSize: 0xB4 }
  - { offset: 0x11E58, size: 0x8, addend: 0x0, symName: __ZNSt3__114__split_bufferINS_4listIiNS_9allocatorIiEEEERNS2_IS4_EEEC1EmmS6_, symObjAddr: 0x3054, symBinAddr: 0x100005970, symSize: 0x44 }
  - { offset: 0x11EAD, size: 0x8, addend: 0x0, symName: __ZNSt3__114__split_bufferINS_4listIiNS_9allocatorIiEEEERNS2_IS4_EEE18__construct_at_endEm, symObjAddr: 0x3098, symBinAddr: 0x1000059B4, symSize: 0xB4 }
  - { offset: 0x11EEE, size: 0x8, addend: 0x0, symName: __ZNSt3__114__split_bufferINS_4listIiNS_9allocatorIiEEEERNS2_IS4_EEED1Ev, symObjAddr: 0x325C, symBinAddr: 0x100005B78, symSize: 0x2C }
  - { offset: 0x11F18, size: 0x8, addend: 0x0, symName: __ZNSt3__117__compressed_pairIPNS_4listIiNS_9allocatorIiEEEENS2_IS4_EEE5firstB8ne180100Ev, symObjAddr: 0x3288, symBinAddr: 0x100005BA4, symSize: 0x24 }
  - { offset: 0x11F3C, size: 0x8, addend: 0x0, symName: __ZNSt3__122__compressed_pair_elemIPNS_4listIiNS_9allocatorIiEEEELi0ELb0EE5__getB8ne180100Ev, symObjAddr: 0x32AC, symBinAddr: 0x100005BC8, symSize: 0x14 }
  - { offset: 0x11F79, size: 0x8, addend: 0x0, symName: __ZNSt3__16vectorINS_4listIiNS_9allocatorIiEEEENS2_IS4_EEE21_ConstructTransactionC1B8ne180100ERS6_m, symObjAddr: 0x32C0, symBinAddr: 0x100005BDC, symSize: 0x3C }
  - { offset: 0x11FC0, size: 0x8, addend: 0x0, symName: __ZNSt3__116allocator_traitsINS_9allocatorINS_4listIiNS1_IiEEEEEEE9constructB8ne180100IS4_JEvvEEvRS5_PT_DpOT0_, symObjAddr: 0x32FC, symBinAddr: 0x100005C18, symSize: 0x28 }
  - { offset: 0x11FFF, size: 0x8, addend: 0x0, symName: __ZNSt3__16vectorINS_4listIiNS_9allocatorIiEEEENS2_IS4_EEE21_ConstructTransactionD1B8ne180100Ev, symObjAddr: 0x3338, symBinAddr: 0x100005C54, symSize: 0x2C }
  - { offset: 0x12028, size: 0x8, addend: 0x0, symName: __ZNSt3__16vectorINS_4listIiNS_9allocatorIiEEEENS2_IS4_EEE21_ConstructTransactionC2B8ne180100ERS6_m, symObjAddr: 0x3364, symBinAddr: 0x100005C80, symSize: 0x4C }
  - { offset: 0x1206E, size: 0x8, addend: 0x0, symName: __ZNSt3__14listIiNS_9allocatorIiEEEC1B8ne180100Ev, symObjAddr: 0x3400, symBinAddr: 0x100005D1C, symSize: 0x2C }
  - { offset: 0x12096, size: 0x8, addend: 0x0, symName: __ZNSt3__14listIiNS_9allocatorIiEEEC2B8ne180100Ev, symObjAddr: 0x342C, symBinAddr: 0x100005D48, symSize: 0x2C }
  - { offset: 0x120BE, size: 0x8, addend: 0x0, symName: __ZNSt3__110__list_impIiNS_9allocatorIiEEEC2Ev, symObjAddr: 0x3458, symBinAddr: 0x100005D74, symSize: 0x50 }
  - { offset: 0x120E8, size: 0x8, addend: 0x0, symName: __ZNSt3__116__list_node_baseIiPvEC1B8ne180100Ev, symObjAddr: 0x34A8, symBinAddr: 0x100005DC4, symSize: 0x2C }
  - { offset: 0x12115, size: 0x8, addend: 0x0, symName: __ZNSt3__117__compressed_pairImNS_9allocatorINS_11__list_nodeIiPvEEEEEC1B8ne180100IiNS_18__default_init_tagEEEOT_OT0_, symObjAddr: 0x34D4, symBinAddr: 0x100005DF0, symSize: 0x3C }
  - { offset: 0x1216B, size: 0x8, addend: 0x0, symName: __ZNSt3__116__list_node_baseIiPvEC2B8ne180100Ev, symObjAddr: 0x3510, symBinAddr: 0x100005E2C, symSize: 0x4C }
  - { offset: 0x12194, size: 0x8, addend: 0x0, symName: __ZNSt3__126__list_node_pointer_traitsIiPvE26__unsafe_link_pointer_castB8ne180100EPNS_16__list_node_baseIiS1_EE, symObjAddr: 0x355C, symBinAddr: 0x100005E78, symSize: 0x14 }
  - { offset: 0x121B7, size: 0x8, addend: 0x0, symName: __ZNSt3__116__list_node_baseIiPvE6__selfB8ne180100Ev, symObjAddr: 0x3570, symBinAddr: 0x100005E8C, symSize: 0x24 }
  - { offset: 0x121E1, size: 0x8, addend: 0x0, symName: __ZNSt3__114pointer_traitsIPNS_16__list_node_baseIiPvEEE10pointer_toB8ne180100ERS3_, symObjAddr: 0x3594, symBinAddr: 0x100005EB0, symSize: 0x14 }
  - { offset: 0x12203, size: 0x8, addend: 0x0, symName: __ZNSt3__117__compressed_pairImNS_9allocatorINS_11__list_nodeIiPvEEEEEC2B8ne180100IiNS_18__default_init_tagEEEOT_OT0_, symObjAddr: 0x35A8, symBinAddr: 0x100005EC4, symSize: 0x40 }
  - { offset: 0x1225A, size: 0x8, addend: 0x0, symName: __ZNSt3__122__compressed_pair_elemImLi0ELb0EEC2B8ne180100IivEEOT_, symObjAddr: 0x35E8, symBinAddr: 0x100005F04, symSize: 0x24 }
  - { offset: 0x1229A, size: 0x8, addend: 0x0, symName: __ZNSt3__122__compressed_pair_elemINS_9allocatorINS_11__list_nodeIiPvEEEELi1ELb1EEC2B8ne180100ENS_18__default_init_tagE, symObjAddr: 0x360C, symBinAddr: 0x100005F28, symSize: 0x2C }
  - { offset: 0x122CC, size: 0x8, addend: 0x0, symName: __ZNSt3__19allocatorINS_11__list_nodeIiPvEEEC2B8ne180100Ev, symObjAddr: 0x3638, symBinAddr: 0x100005F54, symSize: 0x2C }
  - { offset: 0x122F5, size: 0x8, addend: 0x0, symName: __ZNSt3__116__non_trivial_ifILb1ENS_9allocatorINS_11__list_nodeIiPvEEEEEC2B8ne180100Ev, symObjAddr: 0x3664, symBinAddr: 0x100005F80, symSize: 0x14 }
  - { offset: 0x1231E, size: 0x8, addend: 0x0, symName: __ZNSt3__16vectorINS_4listIiNS_9allocatorIiEEEENS2_IS4_EEE21_ConstructTransactionD2B8ne180100Ev, symObjAddr: 0x3678, symBinAddr: 0x100005F94, symSize: 0x20 }
  - { offset: 0x12346, size: 0x8, addend: 0x0, symName: __ZNSt3__117__compressed_pairIPNS_4listIiNS_9allocatorIiEEEENS2_IS4_EEE6secondB8ne180100Ev, symObjAddr: 0x3698, symBinAddr: 0x100005FB4, symSize: 0x24 }
  - { offset: 0x1236A, size: 0x8, addend: 0x0, symName: __ZNSt3__122__compressed_pair_elemINS_9allocatorINS_4listIiNS1_IiEEEEEELi1ELb1EE5__getB8ne180100Ev, symObjAddr: 0x36BC, symBinAddr: 0x100005FD8, symSize: 0x14 }
  - { offset: 0x1238E, size: 0x8, addend: 0x0, symName: __ZNKSt3__16vectorINS_4listIiNS_9allocatorIiEEEENS2_IS4_EEE8max_sizeEv, symObjAddr: 0x36D0, symBinAddr: 0x100005FEC, symSize: 0x60 }
  - { offset: 0x123B4, size: 0x8, addend: 0x0, symName: __ZNKSt3__16vectorINS_4listIiNS_9allocatorIiEEEENS2_IS4_EEE20__throw_length_errorB8ne180100Ev, symObjAddr: 0x3730, symBinAddr: 0x10000604C, symSize: 0x1C }
  - { offset: 0x123D8, size: 0x8, addend: 0x0, symName: __ZNKSt3__16vectorINS_4listIiNS_9allocatorIiEEEENS2_IS4_EEE8capacityB8ne180100Ev, symObjAddr: 0x374C, symBinAddr: 0x100006068, symSize: 0x40 }
  - { offset: 0x12407, size: 0x8, addend: 0x0, symName: __ZNSt3__116allocator_traitsINS_9allocatorINS_4listIiNS1_IiEEEEEEE8max_sizeB8ne180100IS5_vvEEmRKS5_, symObjAddr: 0x37B8, symBinAddr: 0x1000060D4, symSize: 0x28 }
  - { offset: 0x12432, size: 0x8, addend: 0x0, symName: __ZNKSt3__16vectorINS_4listIiNS_9allocatorIiEEEENS2_IS4_EEE7__allocB8ne180100Ev, symObjAddr: 0x37E0, symBinAddr: 0x1000060FC, symSize: 0x28 }
  - { offset: 0x12456, size: 0x8, addend: 0x0, symName: __ZNKSt3__117__compressed_pairIPNS_4listIiNS_9allocatorIiEEEENS2_IS4_EEE6secondB8ne180100Ev, symObjAddr: 0x3808, symBinAddr: 0x100006124, symSize: 0x24 }
  - { offset: 0x1247A, size: 0x8, addend: 0x0, symName: __ZNKSt3__122__compressed_pair_elemINS_9allocatorINS_4listIiNS1_IiEEEEEELi1ELb1EE5__getB8ne180100Ev, symObjAddr: 0x382C, symBinAddr: 0x100006148, symSize: 0x14 }
  - { offset: 0x1249E, size: 0x8, addend: 0x0, symName: __ZNKSt3__16vectorINS_4listIiNS_9allocatorIiEEEENS2_IS4_EEE9__end_capB8ne180100Ev, symObjAddr: 0x3840, symBinAddr: 0x10000615C, symSize: 0x28 }
  - { offset: 0x124C2, size: 0x8, addend: 0x0, symName: __ZNKSt3__117__compressed_pairIPNS_4listIiNS_9allocatorIiEEEENS2_IS4_EEE5firstB8ne180100Ev, symObjAddr: 0x3868, symBinAddr: 0x100006184, symSize: 0x24 }
  - { offset: 0x124E6, size: 0x8, addend: 0x0, symName: __ZNKSt3__122__compressed_pair_elemIPNS_4listIiNS_9allocatorIiEEEELi0ELb0EE5__getB8ne180100Ev, symObjAddr: 0x388C, symBinAddr: 0x1000061A8, symSize: 0x14 }
  - { offset: 0x1250A, size: 0x8, addend: 0x0, symName: __ZNSt3__114__split_bufferINS_4listIiNS_9allocatorIiEEEERNS2_IS4_EEEC2EmmS6_, symObjAddr: 0x38F4, symBinAddr: 0x100006210, symSize: 0xE0 }
  - { offset: 0x1257B, size: 0x8, addend: 0x0, symName: __ZNSt3__117__compressed_pairIPNS_4listIiNS_9allocatorIiEEEERNS2_IS4_EEEC1B8ne180100IDnS7_EEOT_OT0_, symObjAddr: 0x39D4, symBinAddr: 0x1000062F0, symSize: 0x3C }
  - { offset: 0x125D1, size: 0x8, addend: 0x0, symName: __ZNSt3__114__split_bufferINS_4listIiNS_9allocatorIiEEEERNS2_IS4_EEE7__allocB8ne180100Ev, symObjAddr: 0x3A50, symBinAddr: 0x10000636C, symSize: 0x28 }
  - { offset: 0x125F5, size: 0x8, addend: 0x0, symName: __ZNSt3__114__split_bufferINS_4listIiNS_9allocatorIiEEEERNS2_IS4_EEE9__end_capB8ne180100Ev, symObjAddr: 0x3A78, symBinAddr: 0x100006394, symSize: 0x28 }
  - { offset: 0x12619, size: 0x8, addend: 0x0, symName: __ZNSt3__117__compressed_pairIPNS_4listIiNS_9allocatorIiEEEERNS2_IS4_EEEC2B8ne180100IDnS7_EEOT_OT0_, symObjAddr: 0x3AA0, symBinAddr: 0x1000063BC, symSize: 0x48 }
  - { offset: 0x12670, size: 0x8, addend: 0x0, symName: __ZNSt3__122__compressed_pair_elemIRNS_9allocatorINS_4listIiNS1_IiEEEEEELi1ELb0EEC2B8ne180100IS6_vEEOT_, symObjAddr: 0x3AE8, symBinAddr: 0x100006404, symSize: 0x20 }
  - { offset: 0x126B0, size: 0x8, addend: 0x0, symName: __ZNSt3__19allocatorINS_4listIiNS0_IiEEEEE8allocateB8ne180100Em, symObjAddr: 0x3B08, symBinAddr: 0x100006424, symSize: 0x5C }
  - { offset: 0x126E2, size: 0x8, addend: 0x0, symName: __ZNSt3__117__compressed_pairIPNS_4listIiNS_9allocatorIiEEEERNS2_IS4_EEE6secondB8ne180100Ev, symObjAddr: 0x3B64, symBinAddr: 0x100006480, symSize: 0x28 }
  - { offset: 0x12706, size: 0x8, addend: 0x0, symName: __ZNSt3__122__compressed_pair_elemIRNS_9allocatorINS_4listIiNS1_IiEEEEEELi1ELb0EE5__getB8ne180100Ev, symObjAddr: 0x3B8C, symBinAddr: 0x1000064A8, symSize: 0x18 }
  - { offset: 0x1272A, size: 0x8, addend: 0x0, symName: __ZNSt3__117__compressed_pairIPNS_4listIiNS_9allocatorIiEEEERNS2_IS4_EEE5firstB8ne180100Ev, symObjAddr: 0x3BA4, symBinAddr: 0x1000064C0, symSize: 0x24 }
  - { offset: 0x12758, size: 0x8, addend: 0x0, symName: __ZNSt3__114__split_bufferINS_4listIiNS_9allocatorIiEEEERNS2_IS4_EEE21_ConstructTransactionC1B8ne180100EPPS4_m, symObjAddr: 0x3BC8, symBinAddr: 0x1000064E4, symSize: 0x3C }
  - { offset: 0x1279C, size: 0x8, addend: 0x0, symName: __ZNSt3__114__split_bufferINS_4listIiNS_9allocatorIiEEEERNS2_IS4_EEE21_ConstructTransactionD1B8ne180100Ev, symObjAddr: 0x3C04, symBinAddr: 0x100006520, symSize: 0x2C }
  - { offset: 0x127C5, size: 0x8, addend: 0x0, symName: __ZNSt3__114__split_bufferINS_4listIiNS_9allocatorIiEEEERNS2_IS4_EEE21_ConstructTransactionC2B8ne180100EPPS4_m, symObjAddr: 0x3C30, symBinAddr: 0x10000654C, symSize: 0x4C }
  - { offset: 0x1280A, size: 0x8, addend: 0x0, symName: __ZNSt3__114__split_bufferINS_4listIiNS_9allocatorIiEEEERNS2_IS4_EEE21_ConstructTransactionD2B8ne180100Ev, symObjAddr: 0x3C7C, symBinAddr: 0x100006598, symSize: 0x20 }
  - { offset: 0x12832, size: 0x8, addend: 0x0, symName: __ZNKSt3__16vectorINS_4listIiNS_9allocatorIiEEEENS2_IS4_EEE17__annotate_deleteB8ne180100Ev, symObjAddr: 0x3C9C, symBinAddr: 0x1000065B8, symSize: 0x10 }
  - { offset: 0x12856, size: 0x8, addend: 0x0, symName: __ZNSt3__116reverse_iteratorIPNS_4listIiNS_9allocatorIiEEEEEC1B8ne180100ES5_, symObjAddr: 0x3DD8, symBinAddr: 0x1000066F4, symSize: 0x34 }
  - { offset: 0x1288C, size: 0x8, addend: 0x0, symName: __ZNKSt3__116reverse_iteratorIPNS_4listIiNS_9allocatorIiEEEEE4baseB8ne180100Ev, symObjAddr: 0x3E0C, symBinAddr: 0x100006728, symSize: 0x18 }
  - { offset: 0x128B0, size: 0x8, addend: 0x0, symName: __ZNKSt3__16vectorINS_4listIiNS_9allocatorIiEEEENS2_IS4_EEE14__annotate_newB8ne180100Em, symObjAddr: 0x3E60, symBinAddr: 0x10000677C, symSize: 0x14 }
  - { offset: 0x128E3, size: 0x8, addend: 0x0, symName: __ZNSt3__129_AllocatorDestroyRangeReverseINS_9allocatorINS_4listIiNS1_IiEEEEEENS_16reverse_iteratorIPS4_EEEC1B8ne180100ERS5_RS8_SB_, symObjAddr: 0x3EC0, symBinAddr: 0x1000067DC, symSize: 0x44 }
  - { offset: 0x12939, size: 0x8, addend: 0x0, symName: __ZNSt3__116allocator_traitsINS_9allocatorINS_4listIiNS1_IiEEEEEEE9constructB8ne180100IS4_JS4_EvvEEvRS5_PT_DpOT0_, symObjAddr: 0x3F4C, symBinAddr: 0x100006868, symSize: 0x30 }
  - { offset: 0x1298D, size: 0x8, addend: 0x0, symName: __ZNKSt3__116reverse_iteratorIPNS_4listIiNS_9allocatorIiEEEEEdeB8ne180100Ev, symObjAddr: 0x3FA0, symBinAddr: 0x1000068BC, symSize: 0x28 }
  - { offset: 0x129BF, size: 0x8, addend: 0x0, symName: __ZNSt3__116reverse_iteratorIPNS_4listIiNS_9allocatorIiEEEEEppB8ne180100Ev, symObjAddr: 0x3FC8, symBinAddr: 0x1000068E4, symSize: 0x20 }
  - { offset: 0x129E3, size: 0x8, addend: 0x0, symName: __ZNSt3__128__exception_guard_exceptionsINS_29_AllocatorDestroyRangeReverseINS_9allocatorINS_4listIiNS2_IiEEEEEENS_16reverse_iteratorIPS5_EEEEE10__completeB8ne180100Ev, symObjAddr: 0x3FE8, symBinAddr: 0x100006904, symSize: 0x1C }
  - { offset: 0x12A07, size: 0x8, addend: 0x0, symName: __ZNSt3__128__exception_guard_exceptionsINS_29_AllocatorDestroyRangeReverseINS_9allocatorINS_4listIiNS2_IiEEEEEENS_16reverse_iteratorIPS5_EEEEED1B8ne180100Ev, symObjAddr: 0x4004, symBinAddr: 0x100006920, symSize: 0x2C }
  - { offset: 0x12A2F, size: 0x8, addend: 0x0, symName: __ZNSt3__128__exception_guard_exceptionsINS_29_AllocatorDestroyRangeReverseINS_9allocatorINS_4listIiNS2_IiEEEEEENS_16reverse_iteratorIPS5_EEEEEC1B8ne180100ESA_, symObjAddr: 0x4030, symBinAddr: 0x10000694C, symSize: 0x34 }
  - { offset: 0x12A67, size: 0x8, addend: 0x0, symName: __ZNSt3__128__exception_guard_exceptionsINS_29_AllocatorDestroyRangeReverseINS_9allocatorINS_4listIiNS2_IiEEEEEENS_16reverse_iteratorIPS5_EEEEEC2B8ne180100ESA_, symObjAddr: 0x4064, symBinAddr: 0x100006980, symSize: 0x30 }
  - { offset: 0x12A9F, size: 0x8, addend: 0x0, symName: __ZNSt3__129_AllocatorDestroyRangeReverseINS_9allocatorINS_4listIiNS1_IiEEEEEENS_16reverse_iteratorIPS4_EEEC2B8ne180100ERS5_RS8_SB_, symObjAddr: 0x4094, symBinAddr: 0x1000069B0, symSize: 0x38 }
  - { offset: 0x12AF4, size: 0x8, addend: 0x0, symName: __ZNSt3__14listIiNS_9allocatorIiEEEC1EOS3_, symObjAddr: 0x412C, symBinAddr: 0x100006A48, symSize: 0x34 }
  - { offset: 0x12B2D, size: 0x8, addend: 0x0, symName: __ZNSt3__14listIiNS_9allocatorIiEEEC2EOS3_, symObjAddr: 0x4160, symBinAddr: 0x100006A7C, symSize: 0x70 }
  - { offset: 0x12B66, size: 0x8, addend: 0x0, symName: __ZNSt3__110__list_impIiNS_9allocatorIiEEE12__node_allocB8ne180100Ev, symObjAddr: 0x41D0, symBinAddr: 0x100006AEC, symSize: 0x28 }
  - { offset: 0x12B8A, size: 0x8, addend: 0x0, symName: __ZNSt3__110__list_impIiNS_9allocatorIiEEEC2EONS1_INS_11__list_nodeIiPvEEEE, symObjAddr: 0x41F8, symBinAddr: 0x100006B14, symSize: 0x54 }
  - { offset: 0x12BC3, size: 0x8, addend: 0x0, symName: __ZNSt3__14listIiNS_9allocatorIiEEE6spliceENS_21__list_const_iteratorIiPvEERS3_, symObjAddr: 0x424C, symBinAddr: 0x100006B68, symSize: 0xAC }
  - { offset: 0x12C33, size: 0x8, addend: 0x0, symName: __ZNSt3__14listIiNS_9allocatorIiEEE3endB8ne180100Ev, symObjAddr: 0x42F8, symBinAddr: 0x100006C14, symSize: 0x2C }
  - { offset: 0x12C57, size: 0x8, addend: 0x0, symName: __ZNSt3__121__list_const_iteratorIiPvEC1B8ne180100ERKNS_15__list_iteratorIiS1_EE, symObjAddr: 0x4324, symBinAddr: 0x100006C40, symSize: 0x34 }
  - { offset: 0x12C8E, size: 0x8, addend: 0x0, symName: __ZNSt3__117__compressed_pairImNS_9allocatorINS_11__list_nodeIiPvEEEEE6secondB8ne180100Ev, symObjAddr: 0x4358, symBinAddr: 0x100006C74, symSize: 0x24 }
  - { offset: 0x12CB2, size: 0x8, addend: 0x0, symName: __ZNSt3__122__compressed_pair_elemINS_9allocatorINS_11__list_nodeIiPvEEEELi1ELb1EE5__getB8ne180100Ev, symObjAddr: 0x437C, symBinAddr: 0x100006C98, symSize: 0x14 }
  - { offset: 0x12CDB, size: 0x8, addend: 0x0, symName: __ZNSt3__117__compressed_pairImNS_9allocatorINS_11__list_nodeIiPvEEEEEC1B8ne180100IiS5_EEOT_OT0_, symObjAddr: 0x4390, symBinAddr: 0x100006CAC, symSize: 0x3C }
  - { offset: 0x12D31, size: 0x8, addend: 0x0, symName: __ZNSt3__117__compressed_pairImNS_9allocatorINS_11__list_nodeIiPvEEEEEC2B8ne180100IiS5_EEOT_OT0_, symObjAddr: 0x43CC, symBinAddr: 0x100006CE8, symSize: 0x44 }
  - { offset: 0x12D88, size: 0x8, addend: 0x0, symName: __ZNSt3__122__compressed_pair_elemINS_9allocatorINS_11__list_nodeIiPvEEEELi1ELb1EEC2B8ne180100IS5_vEEOT_, symObjAddr: 0x4410, symBinAddr: 0x100006D2C, symSize: 0x18 }
  - { offset: 0x12DC8, size: 0x8, addend: 0x0, symName: __ZNKSt3__14listIiNS_9allocatorIiEEE5emptyB8ne180100Ev, symObjAddr: 0x4428, symBinAddr: 0x100006D44, symSize: 0x28 }
  - { offset: 0x12DED, size: 0x8, addend: 0x0, symName: __ZNSt3__110__list_impIiNS_9allocatorIiEEE14__unlink_nodesEPNS_16__list_node_baseIiPvEES7_, symObjAddr: 0x4450, symBinAddr: 0x100006D6C, symSize: 0x3C }
  - { offset: 0x12E22, size: 0x8, addend: 0x0, symName: __ZNSt3__14listIiNS_9allocatorIiEEE12__link_nodesEPNS_16__list_node_baseIiPvEES7_S7_, symObjAddr: 0x448C, symBinAddr: 0x100006DA8, symSize: 0x50 }
  - { offset: 0x12E65, size: 0x8, addend: 0x0, symName: __ZNSt3__110__list_impIiNS_9allocatorIiEEE4__szB8ne180100Ev, symObjAddr: 0x44DC, symBinAddr: 0x100006DF8, symSize: 0x28 }
  - { offset: 0x12E89, size: 0x8, addend: 0x0, symName: __ZNKSt3__110__list_impIiNS_9allocatorIiEEE5emptyB8ne180100Ev, symObjAddr: 0x4504, symBinAddr: 0x100006E20, symSize: 0x34 }
  - { offset: 0x12EAD, size: 0x8, addend: 0x0, symName: __ZNKSt3__110__list_impIiNS_9allocatorIiEEE4__szB8ne180100Ev, symObjAddr: 0x4538, symBinAddr: 0x100006E54, symSize: 0x28 }
  - { offset: 0x12ED1, size: 0x8, addend: 0x0, symName: __ZNKSt3__117__compressed_pairImNS_9allocatorINS_11__list_nodeIiPvEEEEE5firstB8ne180100Ev, symObjAddr: 0x4560, symBinAddr: 0x100006E7C, symSize: 0x24 }
  - { offset: 0x12EF5, size: 0x8, addend: 0x0, symName: __ZNKSt3__122__compressed_pair_elemImLi0ELb0EE5__getB8ne180100Ev, symObjAddr: 0x4584, symBinAddr: 0x100006EA0, symSize: 0x14 }
  - { offset: 0x12F19, size: 0x8, addend: 0x0, symName: __ZNSt3__117__compressed_pairImNS_9allocatorINS_11__list_nodeIiPvEEEEE5firstB8ne180100Ev, symObjAddr: 0x4598, symBinAddr: 0x100006EB4, symSize: 0x24 }
  - { offset: 0x12F3D, size: 0x8, addend: 0x0, symName: __ZNSt3__122__compressed_pair_elemImLi0ELb0EE5__getB8ne180100Ev, symObjAddr: 0x45BC, symBinAddr: 0x100006ED8, symSize: 0x14 }
  - { offset: 0x12F61, size: 0x8, addend: 0x0, symName: __ZNSt3__110__list_impIiNS_9allocatorIiEEE3endB8ne180100Ev, symObjAddr: 0x45D0, symBinAddr: 0x100006EEC, symSize: 0x34 }
  - { offset: 0x12F85, size: 0x8, addend: 0x0, symName: __ZNKSt3__110__list_impIiNS_9allocatorIiEEE13__end_as_linkB8ne180100Ev, symObjAddr: 0x4604, symBinAddr: 0x100006F20, symSize: 0x28 }
  - { offset: 0x12FA9, size: 0x8, addend: 0x0, symName: __ZNSt3__115__list_iteratorIiPvEC1B8ne180100EPNS_16__list_node_baseIiS1_EE, symObjAddr: 0x462C, symBinAddr: 0x100006F48, symSize: 0x34 }
  - { offset: 0x12FE1, size: 0x8, addend: 0x0, symName: __ZNSt3__115__list_iteratorIiPvEC2B8ne180100EPNS_16__list_node_baseIiS1_EE, symObjAddr: 0x4660, symBinAddr: 0x100006F7C, symSize: 0x20 }
  - { offset: 0x13019, size: 0x8, addend: 0x0, symName: __ZNSt3__121__list_const_iteratorIiPvEC2B8ne180100ERKNS_15__list_iteratorIiS1_EE, symObjAddr: 0x4680, symBinAddr: 0x100006F9C, symSize: 0x24 }
  - { offset: 0x13056, size: 0x8, addend: 0x0, symName: __ZNSt3__119__to_address_helperINS_16reverse_iteratorIPNS_4listIiNS_9allocatorIiEEEEEEvE6__callB8ne180100ERKS7_, symObjAddr: 0x46A4, symBinAddr: 0x100006FC0, symSize: 0x38 }
  - { offset: 0x13078, size: 0x8, addend: 0x0, symName: __ZNKSt3__116reverse_iteratorIPNS_4listIiNS_9allocatorIiEEEEEptB8ne180100Ev, symObjAddr: 0x46DC, symBinAddr: 0x100006FF8, symSize: 0x2C }
  - { offset: 0x1309C, size: 0x8, addend: 0x0, symName: __ZNSt3__128__exception_guard_exceptionsINS_29_AllocatorDestroyRangeReverseINS_9allocatorINS_4listIiNS2_IiEEEEEENS_16reverse_iteratorIPS5_EEEEED2B8ne180100Ev, symObjAddr: 0x47C0, symBinAddr: 0x1000070DC, symSize: 0x50 }
  - { offset: 0x130C4, size: 0x8, addend: 0x0, symName: __ZNKSt3__129_AllocatorDestroyRangeReverseINS_9allocatorINS_4listIiNS1_IiEEEEEENS_16reverse_iteratorIPS4_EEEclB8ne180100Ev, symObjAddr: 0x4810, symBinAddr: 0x10000712C, symSize: 0xB4 }
  - { offset: 0x130E9, size: 0x8, addend: 0x0, symName: __ZNSt3__116reverse_iteratorINS0_IPNS_4listIiNS_9allocatorIiEEEEEEEC1B8ne180100ES6_, symObjAddr: 0x4934, symBinAddr: 0x100007250, symSize: 0x3C }
  - { offset: 0x13120, size: 0x8, addend: 0x0, symName: __ZNSt3__116allocator_traitsINS_9allocatorINS_4listIiNS1_IiEEEEEEE7destroyB8ne180100IS4_vvEEvRS5_PT_, symObjAddr: 0x49D0, symBinAddr: 0x1000072EC, symSize: 0x28 }
  - { offset: 0x1315A, size: 0x8, addend: 0x0, symName: __ZNSt3__116reverse_iteratorINS0_IPNS_4listIiNS_9allocatorIiEEEEEEEppB8ne180100Ev, symObjAddr: 0x4A1C, symBinAddr: 0x100007338, symSize: 0x30 }
  - { offset: 0x1317E, size: 0x8, addend: 0x0, symName: __ZNKSt3__116reverse_iteratorINS0_IPNS_4listIiNS_9allocatorIiEEEEEEE4baseB8ne180100Ev, symObjAddr: 0x4A4C, symBinAddr: 0x100007368, symSize: 0x24 }
  - { offset: 0x131A3, size: 0x8, addend: 0x0, symName: __ZNSt3__14listIiNS_9allocatorIiEEED1Ev, symObjAddr: 0x4A94, symBinAddr: 0x1000073B0, symSize: 0x2C }
  - { offset: 0x131CF, size: 0x8, addend: 0x0, symName: __ZNSt3__14listIiNS_9allocatorIiEEED2Ev, symObjAddr: 0x4AC0, symBinAddr: 0x1000073DC, symSize: 0x2C }
  - { offset: 0x131FA, size: 0x8, addend: 0x0, symName: __ZNSt3__110__list_impIiNS_9allocatorIiEEED2Ev, symObjAddr: 0x4AEC, symBinAddr: 0x100007408, symSize: 0x2C }
  - { offset: 0x13224, size: 0x8, addend: 0x0, symName: __ZNSt3__110__list_impIiNS_9allocatorIiEEE5clearEv, symObjAddr: 0x4B18, symBinAddr: 0x100007434, symSize: 0xBC }
  - { offset: 0x13283, size: 0x8, addend: 0x0, symName: __ZNSt3__116__list_node_baseIiPvE9__as_nodeB8ne180100Ev, symObjAddr: 0x4BD4, symBinAddr: 0x1000074F0, symSize: 0x24 }
  - { offset: 0x132AC, size: 0x8, addend: 0x0, symName: __ZNSt3__110__list_impIiNS_9allocatorIiEEE13__delete_nodeB8ne180100IJEEEvPNS_11__list_nodeIiPvEE, symObjAddr: 0x4BF8, symBinAddr: 0x100007514, symSize: 0x60 }
  - { offset: 0x132F4, size: 0x8, addend: 0x0, symName: __ZNSt3__116allocator_traitsINS_9allocatorINS_11__list_nodeIiPvEEEEE7destroyB8ne180100IivvEEvRS5_PT_, symObjAddr: 0x4C58, symBinAddr: 0x100007574, symSize: 0x28 }
  - { offset: 0x1332E, size: 0x8, addend: 0x0, symName: __ZNSt3__111__list_nodeIiPvE11__get_valueB8ne180100Ev, symObjAddr: 0x4C80, symBinAddr: 0x10000759C, symSize: 0x18 }
  - { offset: 0x13353, size: 0x8, addend: 0x0, symName: __ZNSt3__116allocator_traitsINS_9allocatorINS_11__list_nodeIiPvEEEEE10deallocateB8ne180100ERS5_PS4_m, symObjAddr: 0x4CBC, symBinAddr: 0x1000075D8, symSize: 0x34 }
  - { offset: 0x13394, size: 0x8, addend: 0x0, symName: __ZNSt3__111__list_nodeIiPvED1B8ne180100Ev, symObjAddr: 0x4CF0, symBinAddr: 0x10000760C, symSize: 0x2C }
  - { offset: 0x133BD, size: 0x8, addend: 0x0, symName: __ZNSt3__111__list_nodeIiPvED2B8ne180100Ev, symObjAddr: 0x4D1C, symBinAddr: 0x100007638, symSize: 0x14 }
  - { offset: 0x133E5, size: 0x8, addend: 0x0, symName: __ZNSt3__19allocatorINS_11__list_nodeIiPvEEE10deallocateB8ne180100EPS3_m, symObjAddr: 0x4D30, symBinAddr: 0x10000764C, symSize: 0x44 }
  - { offset: 0x1342B, size: 0x8, addend: 0x0, symName: __ZNSt3__119__to_address_helperINS_16reverse_iteratorINS1_IPNS_4listIiNS_9allocatorIiEEEEEEEEvE6__callB8ne180100ERKS8_, symObjAddr: 0x4D74, symBinAddr: 0x100007690, symSize: 0x38 }
  - { offset: 0x1344D, size: 0x8, addend: 0x0, symName: __ZNKSt3__116reverse_iteratorINS0_IPNS_4listIiNS_9allocatorIiEEEEEEEptB8ne180100Ev, symObjAddr: 0x4DAC, symBinAddr: 0x1000076C8, symSize: 0x4C }
  - { offset: 0x13471, size: 0x8, addend: 0x0, symName: __ZNSt3__116reverse_iteratorIPNS_4listIiNS_9allocatorIiEEEEEpLB8ne180100El, symObjAddr: 0x4EA8, symBinAddr: 0x1000077C4, symSize: 0x30 }
  - { offset: 0x134A3, size: 0x8, addend: 0x0, symName: __ZNSt3__116reverse_iteratorIPNS_4listIiNS_9allocatorIiEEEEEmmB8ne180100Ev, symObjAddr: 0x4ED8, symBinAddr: 0x1000077F4, symSize: 0x20 }
  - { offset: 0x134C8, size: 0x8, addend: 0x0, symName: __ZNSt3__116reverse_iteratorINS0_IPNS_4listIiNS_9allocatorIiEEEEEEEC2B8ne180100ES6_, symObjAddr: 0x4EF8, symBinAddr: 0x100007814, symSize: 0x2C }
  - { offset: 0x134FF, size: 0x8, addend: 0x0, symName: __ZNSt3__116reverse_iteratorIPNS_4listIiNS_9allocatorIiEEEEEC2B8ne180100ES5_, symObjAddr: 0x4F24, symBinAddr: 0x100007840, symSize: 0x28 }
  - { offset: 0x13535, size: 0x8, addend: 0x0, symName: __ZNSt3__114__split_bufferINS_4listIiNS_9allocatorIiEEEERNS2_IS4_EEED2Ev, symObjAddr: 0x4F4C, symBinAddr: 0x100007868, symSize: 0x8C }
  - { offset: 0x1355F, size: 0x8, addend: 0x0, symName: __ZNSt3__114__split_bufferINS_4listIiNS_9allocatorIiEEEERNS2_IS4_EEE5clearB8ne180100Ev, symObjAddr: 0x4FD8, symBinAddr: 0x1000078F4, symSize: 0x28 }
  - { offset: 0x13584, size: 0x8, addend: 0x0, symName: __ZNSt3__116allocator_traitsINS_9allocatorINS_4listIiNS1_IiEEEEEEE10deallocateB8ne180100ERS5_PS4_m, symObjAddr: 0x5000, symBinAddr: 0x10000791C, symSize: 0x34 }
  - { offset: 0x135C5, size: 0x8, addend: 0x0, symName: __ZNKSt3__114__split_bufferINS_4listIiNS_9allocatorIiEEEERNS2_IS4_EEE8capacityB8ne180100Ev, symObjAddr: 0x5034, symBinAddr: 0x100007950, symSize: 0x40 }
  - { offset: 0x135E9, size: 0x8, addend: 0x0, symName: __ZNSt3__114__split_bufferINS_4listIiNS_9allocatorIiEEEERNS2_IS4_EEE17__destruct_at_endB8ne180100EPS4_, symObjAddr: 0x5074, symBinAddr: 0x100007990, symSize: 0x2C }
  - { offset: 0x1361B, size: 0x8, addend: 0x0, symName: __ZNSt3__114__split_bufferINS_4listIiNS_9allocatorIiEEEERNS2_IS4_EEE17__destruct_at_endB8ne180100EPS4_NS_17integral_constantIbLb0EEE, symObjAddr: 0x50A0, symBinAddr: 0x1000079BC, symSize: 0x80 }
  - { offset: 0x13659, size: 0x8, addend: 0x0, symName: __ZNSt3__19allocatorINS_4listIiNS0_IiEEEEE10deallocateB8ne180100EPS3_m, symObjAddr: 0x5120, symBinAddr: 0x100007A3C, symSize: 0x44 }
  - { offset: 0x13699, size: 0x8, addend: 0x0, symName: __ZNKSt3__114__split_bufferINS_4listIiNS_9allocatorIiEEEERNS2_IS4_EEE9__end_capB8ne180100Ev, symObjAddr: 0x5164, symBinAddr: 0x100007A80, symSize: 0x28 }
  - { offset: 0x136BD, size: 0x8, addend: 0x0, symName: __ZNKSt3__117__compressed_pairIPNS_4listIiNS_9allocatorIiEEEERNS2_IS4_EEE5firstB8ne180100Ev, symObjAddr: 0x518C, symBinAddr: 0x100007AA8, symSize: 0x24 }
  - { offset: 0x136E1, size: 0x8, addend: 0x0, symName: __ZNSt3__16vectorINS_4listIiNS_9allocatorIiEEEENS2_IS4_EEE22__base_destruct_at_endB8ne180100EPS4_, symObjAddr: 0x51B0, symBinAddr: 0x100007ACC, symSize: 0x8C }
  - { offset: 0x13723, size: 0x8, addend: 0x0, symName: __ZNKSt3__16vectorINS_4listIiNS_9allocatorIiEEEENS2_IS4_EEE17__annotate_shrinkB8ne180100Em, symObjAddr: 0x523C, symBinAddr: 0x100007B58, symSize: 0x14 }
  - { offset: 0x13756, size: 0x8, addend: 0x0, symName: __ZNKSt3__16vectorINS_4pairIiNS_15__list_iteratorIiPvEEEENS_9allocatorIS5_EEE4sizeB8ne180100Ev, symObjAddr: 0x5250, symBinAddr: 0x100007B6C, symSize: 0x28 }
  - { offset: 0x1377A, size: 0x8, addend: 0x0, symName: __ZNSt3__16vectorINS_4pairIiNS_15__list_iteratorIiPvEEEENS_9allocatorIS5_EEE8__appendEmRKS5_, symObjAddr: 0x5278, symBinAddr: 0x100007B94, symSize: 0x114 }
  - { offset: 0x137E2, size: 0x8, addend: 0x0, symName: __ZNSt3__16vectorINS_4pairIiNS_15__list_iteratorIiPvEEEENS_9allocatorIS5_EEE17__destruct_at_endB8ne180100EPS5_, symObjAddr: 0x538C, symBinAddr: 0x100007CA8, symSize: 0x4C }
  - { offset: 0x13824, size: 0x8, addend: 0x0, symName: __ZNSt3__16vectorINS_4pairIiNS_15__list_iteratorIiPvEEEENS_9allocatorIS5_EEE9__end_capB8ne180100Ev, symObjAddr: 0x53D8, symBinAddr: 0x100007CF4, symSize: 0x28 }
  - { offset: 0x13848, size: 0x8, addend: 0x0, symName: __ZNSt3__16vectorINS_4pairIiNS_15__list_iteratorIiPvEEEENS_9allocatorIS5_EEE18__construct_at_endEmRKS5_, symObjAddr: 0x5400, symBinAddr: 0x100007D1C, symSize: 0xD0 }
  - { offset: 0x138C7, size: 0x8, addend: 0x0, symName: __ZNSt3__16vectorINS_4pairIiNS_15__list_iteratorIiPvEEEENS_9allocatorIS5_EEE7__allocB8ne180100Ev, symObjAddr: 0x54D0, symBinAddr: 0x100007DEC, symSize: 0x28 }
  - { offset: 0x138EB, size: 0x8, addend: 0x0, symName: __ZNKSt3__16vectorINS_4pairIiNS_15__list_iteratorIiPvEEEENS_9allocatorIS5_EEE11__recommendB8ne180100Em, symObjAddr: 0x54F8, symBinAddr: 0x100007E14, symSize: 0xB4 }
  - { offset: 0x1393E, size: 0x8, addend: 0x0, symName: __ZNSt3__114__split_bufferINS_4pairIiNS_15__list_iteratorIiPvEEEERNS_9allocatorIS5_EEEC1EmmS8_, symObjAddr: 0x55AC, symBinAddr: 0x100007EC8, symSize: 0x44 }
  - { offset: 0x13992, size: 0x8, addend: 0x0, symName: __ZNSt3__114__split_bufferINS_4pairIiNS_15__list_iteratorIiPvEEEERNS_9allocatorIS5_EEE18__construct_at_endEmRKS5_, symObjAddr: 0x55F0, symBinAddr: 0x100007F0C, symSize: 0xBC }
  - { offset: 0x139E3, size: 0x8, addend: 0x0, symName: __ZNSt3__114__split_bufferINS_4pairIiNS_15__list_iteratorIiPvEEEERNS_9allocatorIS5_EEED1Ev, symObjAddr: 0x57BC, symBinAddr: 0x1000080D8, symSize: 0x2C }
  - { offset: 0x13A0D, size: 0x8, addend: 0x0, symName: __ZNSt3__117__compressed_pairIPNS_4pairIiNS_15__list_iteratorIiPvEEEENS_9allocatorIS5_EEE5firstB8ne180100Ev, symObjAddr: 0x57E8, symBinAddr: 0x100008104, symSize: 0x24 }
  - { offset: 0x13A31, size: 0x8, addend: 0x0, symName: __ZNSt3__122__compressed_pair_elemIPNS_4pairIiNS_15__list_iteratorIiPvEEEELi0ELb0EE5__getB8ne180100Ev, symObjAddr: 0x580C, symBinAddr: 0x100008128, symSize: 0x14 }
  - { offset: 0x13A6E, size: 0x8, addend: 0x0, symName: __ZNSt3__16vectorINS_4pairIiNS_15__list_iteratorIiPvEEEENS_9allocatorIS5_EEE21_ConstructTransactionC1B8ne180100ERS8_m, symObjAddr: 0x5820, symBinAddr: 0x10000813C, symSize: 0x3C }
  - { offset: 0x13AB5, size: 0x8, addend: 0x0, symName: __ZNSt3__116allocator_traitsINS_9allocatorINS_4pairIiNS_15__list_iteratorIiPvEEEEEEE9constructB8ne180100IS6_JRKS6_EvvEEvRS7_PT_DpOT0_, symObjAddr: 0x585C, symBinAddr: 0x100008178, symSize: 0x30 }
  - { offset: 0x13B09, size: 0x8, addend: 0x0, symName: __ZNSt3__16vectorINS_4pairIiNS_15__list_iteratorIiPvEEEENS_9allocatorIS5_EEE21_ConstructTransactionD1B8ne180100Ev, symObjAddr: 0x58A0, symBinAddr: 0x1000081BC, symSize: 0x2C }
  - { offset: 0x13B32, size: 0x8, addend: 0x0, symName: __ZNSt3__16vectorINS_4pairIiNS_15__list_iteratorIiPvEEEENS_9allocatorIS5_EEE21_ConstructTransactionC2B8ne180100ERS8_m, symObjAddr: 0x58CC, symBinAddr: 0x1000081E8, symSize: 0x44 }
  - { offset: 0x13B79, size: 0x8, addend: 0x0, symName: __ZNSt3__16vectorINS_4pairIiNS_15__list_iteratorIiPvEEEENS_9allocatorIS5_EEE21_ConstructTransactionD2B8ne180100Ev, symObjAddr: 0x5960, symBinAddr: 0x10000827C, symSize: 0x20 }
  - { offset: 0x13BA1, size: 0x8, addend: 0x0, symName: __ZNSt3__117__compressed_pairIPNS_4pairIiNS_15__list_iteratorIiPvEEEENS_9allocatorIS5_EEE6secondB8ne180100Ev, symObjAddr: 0x5980, symBinAddr: 0x10000829C, symSize: 0x24 }
  - { offset: 0x13BC5, size: 0x8, addend: 0x0, symName: __ZNSt3__122__compressed_pair_elemINS_9allocatorINS_4pairIiNS_15__list_iteratorIiPvEEEEEELi1ELb1EE5__getB8ne180100Ev, symObjAddr: 0x59A4, symBinAddr: 0x1000082C0, symSize: 0x14 }
  - { offset: 0x13BE9, size: 0x8, addend: 0x0, symName: __ZNKSt3__16vectorINS_4pairIiNS_15__list_iteratorIiPvEEEENS_9allocatorIS5_EEE8max_sizeEv, symObjAddr: 0x59B8, symBinAddr: 0x1000082D4, symSize: 0x60 }
  - { offset: 0x13C0F, size: 0x8, addend: 0x0, symName: __ZNKSt3__16vectorINS_4pairIiNS_15__list_iteratorIiPvEEEENS_9allocatorIS5_EEE20__throw_length_errorB8ne180100Ev, symObjAddr: 0x5A18, symBinAddr: 0x100008334, symSize: 0x1C }
  - { offset: 0x13C33, size: 0x8, addend: 0x0, symName: __ZNKSt3__16vectorINS_4pairIiNS_15__list_iteratorIiPvEEEENS_9allocatorIS5_EEE8capacityB8ne180100Ev, symObjAddr: 0x5A34, symBinAddr: 0x100008350, symSize: 0x40 }
  - { offset: 0x13C62, size: 0x8, addend: 0x0, symName: __ZNSt3__116allocator_traitsINS_9allocatorINS_4pairIiNS_15__list_iteratorIiPvEEEEEEE8max_sizeB8ne180100IS7_vvEEmRKS7_, symObjAddr: 0x5A74, symBinAddr: 0x100008390, symSize: 0x28 }
  - { offset: 0x13C8D, size: 0x8, addend: 0x0, symName: __ZNKSt3__16vectorINS_4pairIiNS_15__list_iteratorIiPvEEEENS_9allocatorIS5_EEE7__allocB8ne180100Ev, symObjAddr: 0x5A9C, symBinAddr: 0x1000083B8, symSize: 0x28 }
  - { offset: 0x13CB1, size: 0x8, addend: 0x0, symName: __ZNKSt3__117__compressed_pairIPNS_4pairIiNS_15__list_iteratorIiPvEEEENS_9allocatorIS5_EEE6secondB8ne180100Ev, symObjAddr: 0x5AC4, symBinAddr: 0x1000083E0, symSize: 0x24 }
  - { offset: 0x13CD5, size: 0x8, addend: 0x0, symName: __ZNKSt3__122__compressed_pair_elemINS_9allocatorINS_4pairIiNS_15__list_iteratorIiPvEEEEEELi1ELb1EE5__getB8ne180100Ev, symObjAddr: 0x5AE8, symBinAddr: 0x100008404, symSize: 0x14 }
  - { offset: 0x13CF9, size: 0x8, addend: 0x0, symName: __ZNKSt3__16vectorINS_4pairIiNS_15__list_iteratorIiPvEEEENS_9allocatorIS5_EEE9__end_capB8ne180100Ev, symObjAddr: 0x5AFC, symBinAddr: 0x100008418, symSize: 0x28 }
  - { offset: 0x13D1D, size: 0x8, addend: 0x0, symName: __ZNKSt3__117__compressed_pairIPNS_4pairIiNS_15__list_iteratorIiPvEEEENS_9allocatorIS5_EEE5firstB8ne180100Ev, symObjAddr: 0x5B24, symBinAddr: 0x100008440, symSize: 0x24 }
  - { offset: 0x13D41, size: 0x8, addend: 0x0, symName: __ZNKSt3__122__compressed_pair_elemIPNS_4pairIiNS_15__list_iteratorIiPvEEEELi0ELb0EE5__getB8ne180100Ev, symObjAddr: 0x5B48, symBinAddr: 0x100008464, symSize: 0x14 }
  - { offset: 0x13D65, size: 0x8, addend: 0x0, symName: __ZNSt3__114__split_bufferINS_4pairIiNS_15__list_iteratorIiPvEEEERNS_9allocatorIS5_EEEC2EmmS8_, symObjAddr: 0x5B5C, symBinAddr: 0x100008478, symSize: 0xD4 }
  - { offset: 0x13DD6, size: 0x8, addend: 0x0, symName: __ZNSt3__117__compressed_pairIPNS_4pairIiNS_15__list_iteratorIiPvEEEERNS_9allocatorIS5_EEEC1B8ne180100IDnS9_EEOT_OT0_, symObjAddr: 0x5C30, symBinAddr: 0x10000854C, symSize: 0x3C }
  - { offset: 0x13E2C, size: 0x8, addend: 0x0, symName: __ZNSt3__114__split_bufferINS_4pairIiNS_15__list_iteratorIiPvEEEERNS_9allocatorIS5_EEE7__allocB8ne180100Ev, symObjAddr: 0x5CAC, symBinAddr: 0x1000085C8, symSize: 0x28 }
  - { offset: 0x13E50, size: 0x8, addend: 0x0, symName: __ZNSt3__114__split_bufferINS_4pairIiNS_15__list_iteratorIiPvEEEERNS_9allocatorIS5_EEE9__end_capB8ne180100Ev, symObjAddr: 0x5CD4, symBinAddr: 0x1000085F0, symSize: 0x28 }
  - { offset: 0x13E74, size: 0x8, addend: 0x0, symName: __ZNSt3__117__compressed_pairIPNS_4pairIiNS_15__list_iteratorIiPvEEEERNS_9allocatorIS5_EEEC2B8ne180100IDnS9_EEOT_OT0_, symObjAddr: 0x5CFC, symBinAddr: 0x100008618, symSize: 0x48 }
  - { offset: 0x13ECB, size: 0x8, addend: 0x0, symName: __ZNSt3__122__compressed_pair_elemIRNS_9allocatorINS_4pairIiNS_15__list_iteratorIiPvEEEEEELi1ELb0EEC2B8ne180100IS8_vEEOT_, symObjAddr: 0x5D44, symBinAddr: 0x100008660, symSize: 0x20 }
  - { offset: 0x13F0B, size: 0x8, addend: 0x0, symName: __ZNSt3__19allocatorINS_4pairIiNS_15__list_iteratorIiPvEEEEE8allocateB8ne180100Em, symObjAddr: 0x5D64, symBinAddr: 0x100008680, symSize: 0x58 }
  - { offset: 0x13F3D, size: 0x8, addend: 0x0, symName: __ZNSt3__117__compressed_pairIPNS_4pairIiNS_15__list_iteratorIiPvEEEERNS_9allocatorIS5_EEE6secondB8ne180100Ev, symObjAddr: 0x5DBC, symBinAddr: 0x1000086D8, symSize: 0x28 }
  - { offset: 0x13F61, size: 0x8, addend: 0x0, symName: __ZNSt3__122__compressed_pair_elemIRNS_9allocatorINS_4pairIiNS_15__list_iteratorIiPvEEEEEELi1ELb0EE5__getB8ne180100Ev, symObjAddr: 0x5DE4, symBinAddr: 0x100008700, symSize: 0x18 }
  - { offset: 0x13F85, size: 0x8, addend: 0x0, symName: __ZNSt3__117__compressed_pairIPNS_4pairIiNS_15__list_iteratorIiPvEEEERNS_9allocatorIS5_EEE5firstB8ne180100Ev, symObjAddr: 0x5DFC, symBinAddr: 0x100008718, symSize: 0x24 }
  - { offset: 0x13FB3, size: 0x8, addend: 0x0, symName: __ZNSt3__114__split_bufferINS_4pairIiNS_15__list_iteratorIiPvEEEERNS_9allocatorIS5_EEE21_ConstructTransactionC1B8ne180100EPPS5_m, symObjAddr: 0x5E20, symBinAddr: 0x10000873C, symSize: 0x3C }
  - { offset: 0x13FF7, size: 0x8, addend: 0x0, symName: __ZNSt3__114__split_bufferINS_4pairIiNS_15__list_iteratorIiPvEEEERNS_9allocatorIS5_EEE21_ConstructTransactionD1B8ne180100Ev, symObjAddr: 0x5E5C, symBinAddr: 0x100008778, symSize: 0x2C }
  - { offset: 0x14020, size: 0x8, addend: 0x0, symName: __ZNSt3__114__split_bufferINS_4pairIiNS_15__list_iteratorIiPvEEEERNS_9allocatorIS5_EEE21_ConstructTransactionC2B8ne180100EPPS5_m, symObjAddr: 0x5E88, symBinAddr: 0x1000087A4, symSize: 0x44 }
  - { offset: 0x14065, size: 0x8, addend: 0x0, symName: __ZNSt3__114__split_bufferINS_4pairIiNS_15__list_iteratorIiPvEEEERNS_9allocatorIS5_EEE21_ConstructTransactionD2B8ne180100Ev, symObjAddr: 0x5ECC, symBinAddr: 0x1000087E8, symSize: 0x20 }
  - { offset: 0x1408D, size: 0x8, addend: 0x0, symName: __ZNKSt3__16vectorINS_4pairIiNS_15__list_iteratorIiPvEEEENS_9allocatorIS5_EEE17__annotate_deleteB8ne180100Ev, symObjAddr: 0x5EEC, symBinAddr: 0x100008808, symSize: 0x10 }
  - { offset: 0x140B1, size: 0x8, addend: 0x0, symName: __ZNSt3__116reverse_iteratorIPNS_4pairIiNS_15__list_iteratorIiPvEEEEEC1B8ne180100ES6_, symObjAddr: 0x6028, symBinAddr: 0x100008944, symSize: 0x34 }
  - { offset: 0x140E7, size: 0x8, addend: 0x0, symName: __ZNKSt3__116reverse_iteratorIPNS_4pairIiNS_15__list_iteratorIiPvEEEEE4baseB8ne180100Ev, symObjAddr: 0x605C, symBinAddr: 0x100008978, symSize: 0x18 }
  - { offset: 0x1410B, size: 0x8, addend: 0x0, symName: __ZNKSt3__16vectorINS_4pairIiNS_15__list_iteratorIiPvEEEENS_9allocatorIS5_EEE14__annotate_newB8ne180100Em, symObjAddr: 0x60B0, symBinAddr: 0x1000089CC, symSize: 0x14 }
  - { offset: 0x1413E, size: 0x8, addend: 0x0, symName: __ZNSt3__129_AllocatorDestroyRangeReverseINS_9allocatorINS_4pairIiNS_15__list_iteratorIiPvEEEEEENS_16reverse_iteratorIPS6_EEEC1B8ne180100ERS7_RSA_SD_, symObjAddr: 0x6110, symBinAddr: 0x100008A2C, symSize: 0x44 }
  - { offset: 0x14194, size: 0x8, addend: 0x0, symName: __ZNSt3__116allocator_traitsINS_9allocatorINS_4pairIiNS_15__list_iteratorIiPvEEEEEEE9constructB8ne180100IS6_JS6_EvvEEvRS7_PT_DpOT0_, symObjAddr: 0x619C, symBinAddr: 0x100008AB8, symSize: 0x30 }
  - { offset: 0x141E8, size: 0x8, addend: 0x0, symName: __ZNKSt3__116reverse_iteratorIPNS_4pairIiNS_15__list_iteratorIiPvEEEEEdeB8ne180100Ev, symObjAddr: 0x61F0, symBinAddr: 0x100008B0C, symSize: 0x28 }
  - { offset: 0x1421A, size: 0x8, addend: 0x0, symName: __ZNSt3__116reverse_iteratorIPNS_4pairIiNS_15__list_iteratorIiPvEEEEEppB8ne180100Ev, symObjAddr: 0x6218, symBinAddr: 0x100008B34, symSize: 0x20 }
  - { offset: 0x1423E, size: 0x8, addend: 0x0, symName: __ZNSt3__128__exception_guard_exceptionsINS_29_AllocatorDestroyRangeReverseINS_9allocatorINS_4pairIiNS_15__list_iteratorIiPvEEEEEENS_16reverse_iteratorIPS7_EEEEE10__completeB8ne180100Ev, symObjAddr: 0x6238, symBinAddr: 0x100008B54, symSize: 0x1C }
  - { offset: 0x14262, size: 0x8, addend: 0x0, symName: __ZNSt3__128__exception_guard_exceptionsINS_29_AllocatorDestroyRangeReverseINS_9allocatorINS_4pairIiNS_15__list_iteratorIiPvEEEEEENS_16reverse_iteratorIPS7_EEEEED1B8ne180100Ev, symObjAddr: 0x6254, symBinAddr: 0x100008B70, symSize: 0x2C }
  - { offset: 0x1428A, size: 0x8, addend: 0x0, symName: __ZNSt3__128__exception_guard_exceptionsINS_29_AllocatorDestroyRangeReverseINS_9allocatorINS_4pairIiNS_15__list_iteratorIiPvEEEEEENS_16reverse_iteratorIPS7_EEEEEC1B8ne180100ESC_, symObjAddr: 0x6280, symBinAddr: 0x100008B9C, symSize: 0x34 }
  - { offset: 0x142C2, size: 0x8, addend: 0x0, symName: __ZNSt3__128__exception_guard_exceptionsINS_29_AllocatorDestroyRangeReverseINS_9allocatorINS_4pairIiNS_15__list_iteratorIiPvEEEEEENS_16reverse_iteratorIPS7_EEEEEC2B8ne180100ESC_, symObjAddr: 0x62B4, symBinAddr: 0x100008BD0, symSize: 0x30 }
  - { offset: 0x142FA, size: 0x8, addend: 0x0, symName: __ZNSt3__129_AllocatorDestroyRangeReverseINS_9allocatorINS_4pairIiNS_15__list_iteratorIiPvEEEEEENS_16reverse_iteratorIPS6_EEEC2B8ne180100ERS7_RSA_SD_, symObjAddr: 0x62E4, symBinAddr: 0x100008C00, symSize: 0x38 }
  - { offset: 0x14355, size: 0x8, addend: 0x0, symName: __ZNSt3__119__to_address_helperINS_16reverse_iteratorIPNS_4pairIiNS_15__list_iteratorIiPvEEEEEEvE6__callB8ne180100ERKS8_, symObjAddr: 0x636C, symBinAddr: 0x100008C88, symSize: 0x38 }
  - { offset: 0x14377, size: 0x8, addend: 0x0, symName: __ZNKSt3__116reverse_iteratorIPNS_4pairIiNS_15__list_iteratorIiPvEEEEEptB8ne180100Ev, symObjAddr: 0x63A4, symBinAddr: 0x100008CC0, symSize: 0x2C }
  - { offset: 0x1439B, size: 0x8, addend: 0x0, symName: __ZNSt3__128__exception_guard_exceptionsINS_29_AllocatorDestroyRangeReverseINS_9allocatorINS_4pairIiNS_15__list_iteratorIiPvEEEEEENS_16reverse_iteratorIPS7_EEEEED2B8ne180100Ev, symObjAddr: 0x646C, symBinAddr: 0x100008D88, symSize: 0x50 }
  - { offset: 0x143C3, size: 0x8, addend: 0x0, symName: __ZNKSt3__129_AllocatorDestroyRangeReverseINS_9allocatorINS_4pairIiNS_15__list_iteratorIiPvEEEEEENS_16reverse_iteratorIPS6_EEEclB8ne180100Ev, symObjAddr: 0x64BC, symBinAddr: 0x100008DD8, symSize: 0xB4 }
  - { offset: 0x143E8, size: 0x8, addend: 0x0, symName: __ZNSt3__116reverse_iteratorINS0_IPNS_4pairIiNS_15__list_iteratorIiPvEEEEEEEC1B8ne180100ES7_, symObjAddr: 0x65E0, symBinAddr: 0x100008EFC, symSize: 0x3C }
  - { offset: 0x1441F, size: 0x8, addend: 0x0, symName: __ZNSt3__116allocator_traitsINS_9allocatorINS_4pairIiNS_15__list_iteratorIiPvEEEEEEE7destroyB8ne180100IS6_vvEEvRS7_PT_, symObjAddr: 0x667C, symBinAddr: 0x100008F98, symSize: 0x28 }
  - { offset: 0x14459, size: 0x8, addend: 0x0, symName: __ZNSt3__116reverse_iteratorINS0_IPNS_4pairIiNS_15__list_iteratorIiPvEEEEEEEppB8ne180100Ev, symObjAddr: 0x66C8, symBinAddr: 0x100008FE4, symSize: 0x30 }
  - { offset: 0x1447D, size: 0x8, addend: 0x0, symName: __ZNKSt3__116reverse_iteratorINS0_IPNS_4pairIiNS_15__list_iteratorIiPvEEEEEEE4baseB8ne180100Ev, symObjAddr: 0x66F8, symBinAddr: 0x100009014, symSize: 0x24 }
  - { offset: 0x144A7, size: 0x8, addend: 0x0, symName: __ZNSt3__119__to_address_helperINS_16reverse_iteratorINS1_IPNS_4pairIiNS_15__list_iteratorIiPvEEEEEEEEvE6__callB8ne180100ERKS9_, symObjAddr: 0x672C, symBinAddr: 0x100009048, symSize: 0x38 }
  - { offset: 0x144C9, size: 0x8, addend: 0x0, symName: __ZNKSt3__116reverse_iteratorINS0_IPNS_4pairIiNS_15__list_iteratorIiPvEEEEEEEptB8ne180100Ev, symObjAddr: 0x6764, symBinAddr: 0x100009080, symSize: 0x4C }
  - { offset: 0x144ED, size: 0x8, addend: 0x0, symName: __ZNSt3__116reverse_iteratorIPNS_4pairIiNS_15__list_iteratorIiPvEEEEEpLB8ne180100El, symObjAddr: 0x6860, symBinAddr: 0x10000917C, symSize: 0x30 }
  - { offset: 0x1451F, size: 0x8, addend: 0x0, symName: __ZNSt3__116reverse_iteratorIPNS_4pairIiNS_15__list_iteratorIiPvEEEEEmmB8ne180100Ev, symObjAddr: 0x6890, symBinAddr: 0x1000091AC, symSize: 0x20 }
  - { offset: 0x14544, size: 0x8, addend: 0x0, symName: __ZNSt3__116reverse_iteratorINS0_IPNS_4pairIiNS_15__list_iteratorIiPvEEEEEEEC2B8ne180100ES7_, symObjAddr: 0x68B0, symBinAddr: 0x1000091CC, symSize: 0x2C }
  - { offset: 0x1457B, size: 0x8, addend: 0x0, symName: __ZNSt3__116reverse_iteratorIPNS_4pairIiNS_15__list_iteratorIiPvEEEEEC2B8ne180100ES6_, symObjAddr: 0x68DC, symBinAddr: 0x1000091F8, symSize: 0x28 }
  - { offset: 0x145B1, size: 0x8, addend: 0x0, symName: __ZNSt3__114__split_bufferINS_4pairIiNS_15__list_iteratorIiPvEEEERNS_9allocatorIS5_EEED2Ev, symObjAddr: 0x6904, symBinAddr: 0x100009220, symSize: 0x8C }
  - { offset: 0x145DB, size: 0x8, addend: 0x0, symName: __ZNSt3__114__split_bufferINS_4pairIiNS_15__list_iteratorIiPvEEEERNS_9allocatorIS5_EEE5clearB8ne180100Ev, symObjAddr: 0x6990, symBinAddr: 0x1000092AC, symSize: 0x28 }
  - { offset: 0x14600, size: 0x8, addend: 0x0, symName: __ZNSt3__116allocator_traitsINS_9allocatorINS_4pairIiNS_15__list_iteratorIiPvEEEEEEE10deallocateB8ne180100ERS7_PS6_m, symObjAddr: 0x69B8, symBinAddr: 0x1000092D4, symSize: 0x34 }
  - { offset: 0x14641, size: 0x8, addend: 0x0, symName: __ZNKSt3__114__split_bufferINS_4pairIiNS_15__list_iteratorIiPvEEEERNS_9allocatorIS5_EEE8capacityB8ne180100Ev, symObjAddr: 0x69EC, symBinAddr: 0x100009308, symSize: 0x40 }
  - { offset: 0x14665, size: 0x8, addend: 0x0, symName: __ZNSt3__114__split_bufferINS_4pairIiNS_15__list_iteratorIiPvEEEERNS_9allocatorIS5_EEE17__destruct_at_endB8ne180100EPS5_, symObjAddr: 0x6A2C, symBinAddr: 0x100009348, symSize: 0x2C }
  - { offset: 0x14697, size: 0x8, addend: 0x0, symName: __ZNSt3__114__split_bufferINS_4pairIiNS_15__list_iteratorIiPvEEEERNS_9allocatorIS5_EEE17__destruct_at_endB8ne180100EPS5_NS_17integral_constantIbLb0EEE, symObjAddr: 0x6A58, symBinAddr: 0x100009374, symSize: 0x80 }
  - { offset: 0x146D5, size: 0x8, addend: 0x0, symName: __ZNSt3__19allocatorINS_4pairIiNS_15__list_iteratorIiPvEEEEE10deallocateB8ne180100EPS5_m, symObjAddr: 0x6AD8, symBinAddr: 0x1000093F4, symSize: 0x40 }
  - { offset: 0x14715, size: 0x8, addend: 0x0, symName: __ZNKSt3__114__split_bufferINS_4pairIiNS_15__list_iteratorIiPvEEEERNS_9allocatorIS5_EEE9__end_capB8ne180100Ev, symObjAddr: 0x6B18, symBinAddr: 0x100009434, symSize: 0x28 }
  - { offset: 0x14739, size: 0x8, addend: 0x0, symName: __ZNKSt3__117__compressed_pairIPNS_4pairIiNS_15__list_iteratorIiPvEEEERNS_9allocatorIS5_EEE5firstB8ne180100Ev, symObjAddr: 0x6B40, symBinAddr: 0x10000945C, symSize: 0x24 }
  - { offset: 0x1475D, size: 0x8, addend: 0x0, symName: __ZNSt3__16vectorINS_4pairIiNS_15__list_iteratorIiPvEEEENS_9allocatorIS5_EEE22__base_destruct_at_endB8ne180100EPS5_, symObjAddr: 0x6B64, symBinAddr: 0x100009480, symSize: 0x8C }
  - { offset: 0x1479F, size: 0x8, addend: 0x0, symName: __ZNKSt3__16vectorINS_4pairIiNS_15__list_iteratorIiPvEEEENS_9allocatorIS5_EEE17__annotate_shrinkB8ne180100Em, symObjAddr: 0x6BF0, symBinAddr: 0x10000950C, symSize: 0x14 }
  - { offset: 0x147D3, size: 0x8, addend: 0x0, symName: __ZNSt3__115__list_iteratorIiPvEC2B8ne180100Ev, symObjAddr: 0x6C04, symBinAddr: 0x100009520, symSize: 0x18 }
  - { offset: 0x147FC, size: 0x8, addend: 0x0, symName: __ZNSt3__14pairIiNS_15__list_iteratorIiPvEEEC2B8ne180100ILb1ELi0EEERKiRKS3_, symObjAddr: 0x6C1C, symBinAddr: 0x100009538, symSize: 0x34 }
  - { offset: 0x14850, size: 0x8, addend: 0x0, symName: __ZNSt3__16vectorINS_4listIiNS_9allocatorIiEEEENS2_IS4_EEED2B8ne180100Ev, symObjAddr: 0x6C50, symBinAddr: 0x10000956C, symSize: 0x44 }
  - { offset: 0x14878, size: 0x8, addend: 0x0, symName: __ZNSt3__16vectorINS_4listIiNS_9allocatorIiEEEENS2_IS4_EEE16__destroy_vectorC1B8ne180100ERS6_, symObjAddr: 0x6C94, symBinAddr: 0x1000095B0, symSize: 0x34 }
  - { offset: 0x148AF, size: 0x8, addend: 0x0, symName: __ZNSt3__16vectorINS_4listIiNS_9allocatorIiEEEENS2_IS4_EEE16__destroy_vectorclB8ne180100Ev, symObjAddr: 0x6CC8, symBinAddr: 0x1000095E4, symSize: 0x90 }
  - { offset: 0x148D4, size: 0x8, addend: 0x0, symName: __ZNSt3__16vectorINS_4listIiNS_9allocatorIiEEEENS2_IS4_EEE16__destroy_vectorC2B8ne180100ERS6_, symObjAddr: 0x6D58, symBinAddr: 0x100009674, symSize: 0x20 }
  - { offset: 0x1490B, size: 0x8, addend: 0x0, symName: __ZNSt3__16vectorINS_4listIiNS_9allocatorIiEEEENS2_IS4_EEE7__clearB8ne180100Ev, symObjAddr: 0x6D78, symBinAddr: 0x100009694, symSize: 0x28 }
  - { offset: 0x1492F, size: 0x8, addend: 0x0, symName: __ZNSt3__16vectorINS_4pairIiNS_15__list_iteratorIiPvEEEENS_9allocatorIS5_EEED2B8ne180100Ev, symObjAddr: 0x6DA0, symBinAddr: 0x1000096BC, symSize: 0x44 }
  - { offset: 0x14957, size: 0x8, addend: 0x0, symName: __ZNSt3__16vectorINS_4pairIiNS_15__list_iteratorIiPvEEEENS_9allocatorIS5_EEE16__destroy_vectorC1B8ne180100ERS8_, symObjAddr: 0x6DE4, symBinAddr: 0x100009700, symSize: 0x34 }
  - { offset: 0x1498E, size: 0x8, addend: 0x0, symName: __ZNSt3__16vectorINS_4pairIiNS_15__list_iteratorIiPvEEEENS_9allocatorIS5_EEE16__destroy_vectorclB8ne180100Ev, symObjAddr: 0x6E18, symBinAddr: 0x100009734, symSize: 0x90 }
  - { offset: 0x149B3, size: 0x8, addend: 0x0, symName: __ZNSt3__16vectorINS_4pairIiNS_15__list_iteratorIiPvEEEENS_9allocatorIS5_EEE16__destroy_vectorC2B8ne180100ERS8_, symObjAddr: 0x6EA8, symBinAddr: 0x1000097C4, symSize: 0x20 }
  - { offset: 0x149EA, size: 0x8, addend: 0x0, symName: __ZNSt3__16vectorINS_4pairIiNS_15__list_iteratorIiPvEEEENS_9allocatorIS5_EEE7__clearB8ne180100Ev, symObjAddr: 0x6EC8, symBinAddr: 0x1000097E4, symSize: 0x28 }
  - { offset: 0x14A0E, size: 0x8, addend: 0x0, symName: __ZN9RadixHeap8deletionEi, symObjAddr: 0x6EF0, symBinAddr: 0x10000980C, symSize: 0x154 }
  - { offset: 0x14A6A, size: 0x8, addend: 0x0, symName: __ZN9RadixHeap20calculateBucketIndexEi, symObjAddr: 0x7044, symBinAddr: 0x100009960, symSize: 0x40 }
  - { offset: 0x14AAA, size: 0x8, addend: 0x0, symName: __ZNSt3__16vectorINS_4listIiNS_9allocatorIiEEEENS2_IS4_EEEixB8ne180100Em, symObjAddr: 0x7084, symBinAddr: 0x1000099A0, symSize: 0x2C }
  - { offset: 0x14ADF, size: 0x8, addend: 0x0, symName: __ZNSt3__14listIiNS_9allocatorIiEEE6insertENS_21__list_const_iteratorIiPvEERKi, symObjAddr: 0x70B0, symBinAddr: 0x1000099CC, symSize: 0x98 }
  - { offset: 0x14B37, size: 0x8, addend: 0x0, symName: __ZNSt3__14pairIiNS_15__list_iteratorIiPvEEEC1B8ne180100IRiS3_Li0EEEOT_OT0_, symObjAddr: 0x7148, symBinAddr: 0x100009A64, symSize: 0x3C }
  - { offset: 0x14B93, size: 0x8, addend: 0x0, symName: __ZNSt3__16vectorINS_4pairIiNS_15__list_iteratorIiPvEEEENS_9allocatorIS5_EEEixB8ne180100Em, symObjAddr: 0x7184, symBinAddr: 0x100009AA0, symSize: 0x24 }
  - { offset: 0x14BC8, size: 0x8, addend: 0x0, symName: __ZNSt3__14pairIiNS_15__list_iteratorIiPvEEEaSB8ne180100EOS4_, symObjAddr: 0x71A8, symBinAddr: 0x100009AC4, symSize: 0x30 }
  - { offset: 0x14BFB, size: 0x8, addend: 0x0, symName: __ZNSt3__14listIiNS_9allocatorIiEEE5eraseENS_21__list_const_iteratorIiPvEE, symObjAddr: 0x720C, symBinAddr: 0x100009B28, symSize: 0x80 }
  - { offset: 0x14C4E, size: 0x8, addend: 0x0, symName: __ZNSt3__14pairIiNS_15__list_iteratorIiPvEEEC1B8ne180100IiS3_Li0EEEOT_OT0_, symObjAddr: 0x728C, symBinAddr: 0x100009BA8, symSize: 0x3C }
  - { offset: 0x14CAB, size: 0x8, addend: 0x0, symName: __ZNSt3__14pairIiNS_15__list_iteratorIiPvEEEC2B8ne180100IiS3_Li0EEEOT_OT0_, symObjAddr: 0x72F8, symBinAddr: 0x100009C14, symSize: 0x34 }
  - { offset: 0x14D07, size: 0x8, addend: 0x0, symName: __Z3absB8ne180100x, symObjAddr: 0x732C, symBinAddr: 0x100009C48, symSize: 0x28 }
  - { offset: 0x14D33, size: 0x8, addend: 0x0, symName: __ZNSt3__110__list_impIiNS_9allocatorIiEEE13__create_nodeB8ne180100IJRKiEEEPNS_11__list_nodeIiPvEEPNS_16__list_node_baseIiS8_EESD_DpOT_, symObjAddr: 0x7474, symBinAddr: 0x100009D90, symSize: 0xD4 }
  - { offset: 0x14DAD, size: 0x8, addend: 0x0, symName: __ZNSt3__111__list_nodeIiPvE9__as_linkB8ne180100Ev, symObjAddr: 0x7548, symBinAddr: 0x100009E64, symSize: 0x24 }
  - { offset: 0x14DEF, size: 0x8, addend: 0x0, symName: __ZNSt3__118__allocation_guardINS_9allocatorINS_11__list_nodeIiPvEEEEEC1B8ne180100IS5_EET_m, symObjAddr: 0x756C, symBinAddr: 0x100009E88, symSize: 0x34 }
  - { offset: 0x14E3C, size: 0x8, addend: 0x0, symName: __ZNKSt3__118__allocation_guardINS_9allocatorINS_11__list_nodeIiPvEEEEE5__getB8ne180100Ev, symObjAddr: 0x75D4, symBinAddr: 0x100009EF0, symSize: 0x18 }
  - { offset: 0x14E61, size: 0x8, addend: 0x0, symName: __ZNSt3__116allocator_traitsINS_9allocatorINS_11__list_nodeIiPvEEEEE9constructB8ne180100IiJRKiEvvEEvRS5_PT_DpOT0_, symObjAddr: 0x75EC, symBinAddr: 0x100009F08, symSize: 0x30 }
  - { offset: 0x14EB5, size: 0x8, addend: 0x0, symName: __ZNSt3__118__allocation_guardINS_9allocatorINS_11__list_nodeIiPvEEEEE13__release_ptrB8ne180100Ev, symObjAddr: 0x761C, symBinAddr: 0x100009F38, symSize: 0x24 }
  - { offset: 0x14EE7, size: 0x8, addend: 0x0, symName: __ZNSt3__118__allocation_guardINS_9allocatorINS_11__list_nodeIiPvEEEEED1B8ne180100Ev, symObjAddr: 0x7640, symBinAddr: 0x100009F5C, symSize: 0x2C }
  - { offset: 0x14F0F, size: 0x8, addend: 0x0, symName: __ZNSt3__118__allocation_guardINS_9allocatorINS_11__list_nodeIiPvEEEEEC2B8ne180100IS5_EET_m, symObjAddr: 0x766C, symBinAddr: 0x100009F88, symSize: 0x44 }
  - { offset: 0x14F5D, size: 0x8, addend: 0x0, symName: __ZNSt3__116allocator_traitsINS_9allocatorINS_11__list_nodeIiPvEEEEE8allocateB8ne180100ERS5_m, symObjAddr: 0x76B0, symBinAddr: 0x100009FCC, symSize: 0x2C }
  - { offset: 0x14F8F, size: 0x8, addend: 0x0, symName: __ZNSt3__19allocatorINS_11__list_nodeIiPvEEE8allocateB8ne180100Em, symObjAddr: 0x76DC, symBinAddr: 0x100009FF8, symSize: 0x5C }
  - { offset: 0x14FCC, size: 0x8, addend: 0x0, symName: __ZNSt3__116allocator_traitsINS_9allocatorINS_11__list_nodeIiPvEEEEE8max_sizeB8ne180100IS5_vvEEmRKS5_, symObjAddr: 0x7738, symBinAddr: 0x10000A054, symSize: 0x28 }
  - { offset: 0x14FF7, size: 0x8, addend: 0x0, symName: __ZNSt3__111__list_nodeIiPvEC1B8ne180100EPNS_16__list_node_baseIiS1_EES5_, symObjAddr: 0x77A4, symBinAddr: 0x10000A0C0, symSize: 0x3C }
  - { offset: 0x1503D, size: 0x8, addend: 0x0, symName: __ZNSt3__111__list_nodeIiPvEC2B8ne180100EPNS_16__list_node_baseIiS1_EES5_, symObjAddr: 0x77E0, symBinAddr: 0x10000A0FC, symSize: 0x3C }
  - { offset: 0x15084, size: 0x8, addend: 0x0, symName: __ZNSt3__116__list_node_baseIiPvEC2B8ne180100EPS2_S3_, symObjAddr: 0x781C, symBinAddr: 0x10000A138, symSize: 0x2C }
  - { offset: 0x150CA, size: 0x8, addend: 0x0, symName: __ZNSt3__118__allocation_guardINS_9allocatorINS_11__list_nodeIiPvEEEEED2B8ne180100Ev, symObjAddr: 0x7848, symBinAddr: 0x10000A164, symSize: 0x2C }
  - { offset: 0x150F2, size: 0x8, addend: 0x0, symName: __ZNSt3__118__allocation_guardINS_9allocatorINS_11__list_nodeIiPvEEEEE9__destroyB8ne180100Ev, symObjAddr: 0x7874, symBinAddr: 0x10000A190, symSize: 0x4C }
  - { offset: 0x15117, size: 0x8, addend: 0x0, symName: __ZNSt3__14pairIiNS_15__list_iteratorIiPvEEEC2B8ne180100IRiS3_Li0EEEOT_OT0_, symObjAddr: 0x78C0, symBinAddr: 0x10000A1DC, symSize: 0x34 }
  - { offset: 0x15173, size: 0x8, addend: 0x0, symName: __ZNSt3__16vectorINS_4listIiNS_9allocatorIiEEEENS2_IS4_EEE5beginB8ne180100Ev, symObjAddr: 0x78F4, symBinAddr: 0x10000A210, symSize: 0x30 }
  - { offset: 0x15199, size: 0x8, addend: 0x0, symName: __ZNSt3__16vectorINS_4listIiNS_9allocatorIiEEEENS2_IS4_EEE3endB8ne180100Ev, symObjAddr: 0x7924, symBinAddr: 0x10000A240, symSize: 0x30 }
  - { offset: 0x151BF, size: 0x8, addend: 0x0, symName: __ZNKSt3__111__wrap_iterIPNS_4listIiNS_9allocatorIiEEEEEdeB8ne180100Ev, symObjAddr: 0x7988, symBinAddr: 0x10000A2A4, symSize: 0x18 }
  - { offset: 0x151E3, size: 0x8, addend: 0x0, symName: __ZNSt3__111__wrap_iterIPNS_4listIiNS_9allocatorIiEEEEEppB8ne180100Ev, symObjAddr: 0x79A0, symBinAddr: 0x10000A2BC, symSize: 0x20 }
  - { offset: 0x15207, size: 0x8, addend: 0x0, symName: __ZNSt3__16vectorINS_4listIiNS_9allocatorIiEEEENS2_IS4_EEE11__make_iterB8ne180100EPS4_, symObjAddr: 0x79C0, symBinAddr: 0x10000A2DC, symSize: 0x30 }
  - { offset: 0x1523A, size: 0x8, addend: 0x0, symName: __ZNSt3__111__wrap_iterIPNS_4listIiNS_9allocatorIiEEEEEC1B8ne180100ES5_, symObjAddr: 0x79F0, symBinAddr: 0x10000A30C, symSize: 0x34 }
  - { offset: 0x15271, size: 0x8, addend: 0x0, symName: __ZNSt3__111__wrap_iterIPNS_4listIiNS_9allocatorIiEEEEEC2B8ne180100ES5_, symObjAddr: 0x7A24, symBinAddr: 0x10000A340, symSize: 0x20 }
  - { offset: 0x152A7, size: 0x8, addend: 0x0, symName: __ZNKSt3__111__wrap_iterIPNS_4listIiNS_9allocatorIiEEEEE4baseB8ne180100Ev, symObjAddr: 0x7A8C, symBinAddr: 0x10000A3A8, symSize: 0x18 }
  - { offset: 0x152CB, size: 0x8, addend: 0x0, symName: __ZN9RadixHeap20findFirstEmptyBucketEv, symObjAddr: 0x7AA4, symBinAddr: 0x10000A3C0, symSize: 0x94 }
  - { offset: 0x1530B, size: 0x8, addend: 0x0, symName: __ZNSt3__16vectorINS_4listIiNS_9allocatorIiEEEENS2_IS4_EEE2atEm, symObjAddr: 0x7B38, symBinAddr: 0x10000A454, symSize: 0x68 }
  - { offset: 0x15340, size: 0x8, addend: 0x0, symName: __ZNSt3__14listIiNS_9allocatorIiEEE5beginB8ne180100Ev, symObjAddr: 0x7BF0, symBinAddr: 0x10000A50C, symSize: 0x2C }
  - { offset: 0x15364, size: 0x8, addend: 0x0, symName: __ZNKSt3__115__list_iteratorIiPvEdeB8ne180100Ev, symObjAddr: 0x7C1C, symBinAddr: 0x10000A538, symSize: 0x2C }
  - { offset: 0x15388, size: 0x8, addend: 0x0, symName: __ZN9RadixHeap10distributeERNSt3__14listIiNS0_9allocatorIiEEEEi, symObjAddr: 0x7C48, symBinAddr: 0x10000A564, symSize: 0x130 }
  - { offset: 0x1541E, size: 0x8, addend: 0x0, symName: __ZNSt3__14listIiNS_9allocatorIiEEE5frontB8ne180100Ev, symObjAddr: 0x7D78, symBinAddr: 0x10000A694, symSize: 0x2C }
  - { offset: 0x15442, size: 0x8, addend: 0x0, symName: __ZNSt3__14listIiNS_9allocatorIiEEE9pop_frontEv, symObjAddr: 0x7DA4, symBinAddr: 0x10000A6C0, symSize: 0x60 }
  - { offset: 0x15477, size: 0x8, addend: 0x0, symName: __ZNKSt3__16vectorINS_4listIiNS_9allocatorIiEEEENS2_IS4_EEE20__throw_out_of_rangeB8ne180100Ev, symObjAddr: 0x7E04, symBinAddr: 0x10000A720, symSize: 0x1C }
  - { offset: 0x1549B, size: 0x8, addend: 0x0, symName: __ZNSt3__115__list_iteratorIiPvEppB8ne180100Ev, symObjAddr: 0x7F64, symBinAddr: 0x10000A880, symSize: 0x20 }
  - { offset: 0x154CE, size: 0x8, addend: 0x0, symName: __ZZN9RadixHeap10extractMinEvENKUlRKiS1_E_clES1_S1_, symObjAddr: 0x7FE8, symBinAddr: 0x10000A904, symSize: 0x70 }
  - { offset: 0x1551C, size: 0x8, addend: 0x0, symName: __ZNKSt3__110__identityclB8ne180100IRiEEOT_S4_, symObjAddr: 0x8058, symBinAddr: 0x10000A974, symSize: 0x18 }
  - { offset: 0x15557, size: 0x8, addend: 0x0, symName: __ZNSt3__110__list_impIiNS_9allocatorIiEEE5beginB8ne180100Ev, symObjAddr: 0x8070, symBinAddr: 0x10000A98C, symSize: 0x30 }
  - { offset: 0x1557B, size: 0x8, addend: 0x0, symName: __ZNSt3__16vectorIiNS_9allocatorIiEEEC1INS_15__list_iteratorIiPvEELi0EEET_S8_, symObjAddr: 0x80A0, symBinAddr: 0x10000A9BC, symSize: 0x3C }
  - { offset: 0x155D2, size: 0x8, addend: 0x0, symName: __ZNSt3__14listIiNS_9allocatorIiEEE5clearB8ne180100Ev, symObjAddr: 0x80DC, symBinAddr: 0x10000A9F8, symSize: 0x24 }
  - { offset: 0x155F6, size: 0x8, addend: 0x0, symName: __ZNSt3__16vectorIiNS_9allocatorIiEEE5beginB8ne180100Ev, symObjAddr: 0x8100, symBinAddr: 0x10000AA1C, symSize: 0x30 }
  - { offset: 0x1561C, size: 0x8, addend: 0x0, symName: __ZNSt3__16vectorIiNS_9allocatorIiEEE3endB8ne180100Ev, symObjAddr: 0x8130, symBinAddr: 0x10000AA4C, symSize: 0x30 }
  - { offset: 0x15642, size: 0x8, addend: 0x0, symName: __ZNKSt3__111__wrap_iterIPiEdeB8ne180100Ev, symObjAddr: 0x8194, symBinAddr: 0x10000AAB0, symSize: 0x18 }
  - { offset: 0x15666, size: 0x8, addend: 0x0, symName: __ZNSt3__111__wrap_iterIPiEppB8ne180100Ev, symObjAddr: 0x81AC, symBinAddr: 0x10000AAC8, symSize: 0x20 }
  - { offset: 0x1568A, size: 0x8, addend: 0x0, symName: __ZNSt3__16vectorIiNS_9allocatorIiEEEC2INS_15__list_iteratorIiPvEELi0EEET_S8_, symObjAddr: 0x81CC, symBinAddr: 0x10000AAE8, symSize: 0x94 }
  - { offset: 0x156FE, size: 0x8, addend: 0x0, symName: __ZNSt3__16vectorIiNS_9allocatorIiEEE16__init_with_sizeB8ne180100INS_15__list_iteratorIiPvEES7_EEvT_T0_m, symObjAddr: 0x829C, symBinAddr: 0x10000ABB8, symSize: 0xC8 }
  - { offset: 0x15770, size: 0x8, addend: 0x0, symName: __ZNSt3__16vectorIiNS_9allocatorIiEEE18__construct_at_endINS_15__list_iteratorIiPvEES7_EEvT_T0_m, symObjAddr: 0x83C0, symBinAddr: 0x10000ACDC, symSize: 0x9C }
  - { offset: 0x157FE, size: 0x8, addend: 0x0, symName: __ZNSt3__119__unwrap_range_implINS_15__list_iteratorIiPvEES3_E8__unwrapB8ne180100ES3_S3_, symObjAddr: 0x869C, symBinAddr: 0x10000AFB8, symSize: 0x68 }
  - { offset: 0x1582E, size: 0x8, addend: 0x0, symName: __ZNSt3__14pairINS_15__list_iteratorIiPvEES3_EC1B8ne180100IS3_S3_Li0EEEOT_OT0_, symObjAddr: 0x8738, symBinAddr: 0x10000B054, symSize: 0x3C }
  - { offset: 0x1588B, size: 0x8, addend: 0x0, symName: __ZNSt3__118__unwrap_iter_implINS_15__list_iteratorIiPvEELb0EE8__unwrapB8ne180100ES3_, symObjAddr: 0x8774, symBinAddr: 0x10000B090, symSize: 0x1C }
  - { offset: 0x158AE, size: 0x8, addend: 0x0, symName: __ZNSt3__14pairINS_15__list_iteratorIiPvEES3_EC2B8ne180100IS3_S3_Li0EEEOT_OT0_, symObjAddr: 0x8790, symBinAddr: 0x10000B0AC, symSize: 0x34 }
  - { offset: 0x1590A, size: 0x8, addend: 0x0, symName: __ZNSt3__129_AllocatorDestroyRangeReverseINS_9allocatorIiEEPiEC1B8ne180100ERS2_RS3_S6_, symObjAddr: 0x8810, symBinAddr: 0x10000B12C, symSize: 0x44 }
  - { offset: 0x15960, size: 0x8, addend: 0x0, symName: __ZNSt3__116allocator_traitsINS_9allocatorIiEEE9constructB8ne180100IiJRiEvvEEvRS2_PT_DpOT0_, symObjAddr: 0x8854, symBinAddr: 0x10000B170, symSize: 0x30 }
  - { offset: 0x159B4, size: 0x8, addend: 0x0, symName: __ZNSt3__128__exception_guard_exceptionsINS_29_AllocatorDestroyRangeReverseINS_9allocatorIiEEPiEEE10__completeB8ne180100Ev, symObjAddr: 0x8884, symBinAddr: 0x10000B1A0, symSize: 0x1C }
  - { offset: 0x159D8, size: 0x8, addend: 0x0, symName: __ZNSt3__128__exception_guard_exceptionsINS_29_AllocatorDestroyRangeReverseINS_9allocatorIiEEPiEEED1B8ne180100Ev, symObjAddr: 0x88A0, symBinAddr: 0x10000B1BC, symSize: 0x2C }
  - { offset: 0x15A00, size: 0x8, addend: 0x0, symName: __ZNSt3__128__exception_guard_exceptionsINS_29_AllocatorDestroyRangeReverseINS_9allocatorIiEEPiEEEC1B8ne180100ES5_, symObjAddr: 0x88CC, symBinAddr: 0x10000B1E8, symSize: 0x34 }
  - { offset: 0x15A38, size: 0x8, addend: 0x0, symName: __ZNSt3__128__exception_guard_exceptionsINS_29_AllocatorDestroyRangeReverseINS_9allocatorIiEEPiEEEC2B8ne180100ES5_, symObjAddr: 0x8900, symBinAddr: 0x10000B21C, symSize: 0x30 }
  - { offset: 0x15A70, size: 0x8, addend: 0x0, symName: __ZNSt3__129_AllocatorDestroyRangeReverseINS_9allocatorIiEEPiEC2B8ne180100ERS2_RS3_S6_, symObjAddr: 0x8930, symBinAddr: 0x10000B24C, symSize: 0x38 }
  - { offset: 0x15AC5, size: 0x8, addend: 0x0, symName: __ZNSt3__128__exception_guard_exceptionsINS_29_AllocatorDestroyRangeReverseINS_9allocatorIiEEPiEEED2B8ne180100Ev, symObjAddr: 0x89B8, symBinAddr: 0x10000B2D4, symSize: 0x50 }
  - { offset: 0x15AED, size: 0x8, addend: 0x0, symName: __ZNKSt3__129_AllocatorDestroyRangeReverseINS_9allocatorIiEEPiEclB8ne180100Ev, symObjAddr: 0x8A08, symBinAddr: 0x10000B324, symSize: 0x68 }
  - { offset: 0x15B11, size: 0x8, addend: 0x0, symName: __ZNSt3__116reverse_iteratorIPiEC1B8ne180100ES1_, symObjAddr: 0x8AE0, symBinAddr: 0x10000B3FC, symSize: 0x34 }
  - { offset: 0x15B47, size: 0x8, addend: 0x0, symName: __ZNSt3__116reverse_iteratorIPiEppB8ne180100Ev, symObjAddr: 0x8B80, symBinAddr: 0x10000B49C, symSize: 0x20 }
  - { offset: 0x15B6B, size: 0x8, addend: 0x0, symName: __ZNKSt3__116reverse_iteratorIPiE4baseB8ne180100Ev, symObjAddr: 0x8BA0, symBinAddr: 0x10000B4BC, symSize: 0x18 }
  - { offset: 0x15B95, size: 0x8, addend: 0x0, symName: __ZNSt3__119__to_address_helperINS_16reverse_iteratorIPiEEvE6__callB8ne180100ERKS3_, symObjAddr: 0x8BB8, symBinAddr: 0x10000B4D4, symSize: 0x38 }
  - { offset: 0x15BB7, size: 0x8, addend: 0x0, symName: __ZNKSt3__116reverse_iteratorIPiEptB8ne180100Ev, symObjAddr: 0x8BF0, symBinAddr: 0x10000B50C, symSize: 0x2C }
  - { offset: 0x15BDC, size: 0x8, addend: 0x0, symName: __ZNSt3__116reverse_iteratorIPiEC2B8ne180100ES1_, symObjAddr: 0x8CB8, symBinAddr: 0x10000B5D4, symSize: 0x28 }
  - { offset: 0x15C13, size: 0x8, addend: 0x0, symName: __ZNSt3__118__unwrap_iter_implIPiLb1EE8__unwrapB8ne180100ES1_, symObjAddr: 0x8CE0, symBinAddr: 0x10000B5FC, symSize: 0x24 }
  - { offset: 0x15C36, size: 0x8, addend: 0x0, symName: __ZNSt3__118__unwrap_iter_implIPiLb1EE8__rewrapB8ne180100ES1_S1_, symObjAddr: 0x8D04, symBinAddr: 0x10000B620, symSize: 0x50 }
  - { offset: 0x15C66, size: 0x8, addend: 0x0, symName: __ZNSt3__16vectorIiNS_9allocatorIiEEE11__make_iterB8ne180100EPi, symObjAddr: 0x8D54, symBinAddr: 0x10000B670, symSize: 0x30 }
  - { offset: 0x15C99, size: 0x8, addend: 0x0, symName: __ZNSt3__111__wrap_iterIPiEC1B8ne180100ES1_, symObjAddr: 0x8D84, symBinAddr: 0x10000B6A0, symSize: 0x34 }
  - { offset: 0x15CD0, size: 0x8, addend: 0x0, symName: __ZNSt3__111__wrap_iterIPiEC2B8ne180100ES1_, symObjAddr: 0x8DB8, symBinAddr: 0x10000B6D4, symSize: 0x20 }
  - { offset: 0x15D06, size: 0x8, addend: 0x0, symName: __ZNKSt3__111__wrap_iterIPiE4baseB8ne180100Ev, symObjAddr: 0x8E20, symBinAddr: 0x10000B73C, symSize: 0x18 }
  - { offset: 0x15D2A, size: 0x8, addend: 0x0, symName: __ZN9RadixHeapD2Ev, symObjAddr: 0x8E38, symBinAddr: 0x10000B754, symSize: 0x3C }
  - { offset: 0x15D54, size: 0x8, addend: 0x0, symName: __ZNSt3__16vectorIiNS_9allocatorIiEEED2B8ne180100Ev, symObjAddr: 0x8E74, symBinAddr: 0x10000B790, symSize: 0x40 }
  - { offset: 0x15D7C, size: 0x8, addend: 0x0, symName: __ZNSt3__16vectorINS_4pairIiiEENS_9allocatorIS2_EEE11__make_iterB8ne180100EPS2_, symObjAddr: 0x8EB4, symBinAddr: 0x10000B7D0, symSize: 0x30 }
  - { offset: 0x15DAF, size: 0x8, addend: 0x0, symName: __ZNSt3__111__wrap_iterIPNS_4pairIiiEEEC1B8ne180100ES3_, symObjAddr: 0x8EE4, symBinAddr: 0x10000B800, symSize: 0x34 }
  - { offset: 0x15DE6, size: 0x8, addend: 0x0, symName: __ZNSt3__111__wrap_iterIPNS_4pairIiiEEEC2B8ne180100ES3_, symObjAddr: 0x8F18, symBinAddr: 0x10000B834, symSize: 0x20 }
  - { offset: 0x15E1C, size: 0x8, addend: 0x0, symName: __ZNKSt3__111__wrap_iterIPNS_4pairIiiEEE4baseB8ne180100Ev, symObjAddr: 0x8F80, symBinAddr: 0x10000B89C, symSize: 0x18 }
  - { offset: 0x15E40, size: 0x8, addend: 0x0, symName: __ZNSt3__16vectorINS_4pairIiiEENS_9allocatorIS2_EEED2B8ne180100Ev, symObjAddr: 0x8F98, symBinAddr: 0x10000B8B4, symSize: 0x44 }
  - { offset: 0x15E68, size: 0x8, addend: 0x0, symName: __ZNSt3__16vectorINS_4pairIiiEENS_9allocatorIS2_EEE16__destroy_vectorC1B8ne180100ERS5_, symObjAddr: 0x8FDC, symBinAddr: 0x10000B8F8, symSize: 0x34 }
  - { offset: 0x15E9F, size: 0x8, addend: 0x0, symName: __ZNSt3__16vectorINS_4pairIiiEENS_9allocatorIS2_EEE16__destroy_vectorclB8ne180100Ev, symObjAddr: 0x9010, symBinAddr: 0x10000B92C, symSize: 0x90 }
  - { offset: 0x15EC4, size: 0x8, addend: 0x0, symName: __ZNSt3__16vectorINS_4pairIiiEENS_9allocatorIS2_EEE16__destroy_vectorC2B8ne180100ERS5_, symObjAddr: 0x90A0, symBinAddr: 0x10000B9BC, symSize: 0x20 }
  - { offset: 0x15EFB, size: 0x8, addend: 0x0, symName: __ZNSt3__16vectorINS_4pairIiiEENS_9allocatorIS2_EEE7__clearB8ne180100Ev, symObjAddr: 0x90C0, symBinAddr: 0x10000B9DC, symSize: 0x28 }
  - { offset: 0x15F1F, size: 0x8, addend: 0x0, symName: __ZNKSt3__16vectorINS_4pairIiiEENS_9allocatorIS2_EEE17__annotate_deleteB8ne180100Ev, symObjAddr: 0x90E8, symBinAddr: 0x10000BA04, symSize: 0x10 }
  - { offset: 0x15F44, size: 0x8, addend: 0x0, symName: __ZNSt3__116allocator_traitsINS_9allocatorINS_4pairIiiEEEEE10deallocateB8ne180100ERS4_PS3_m, symObjAddr: 0x90F8, symBinAddr: 0x10000BA14, symSize: 0x34 }
  - { offset: 0x15F85, size: 0x8, addend: 0x0, symName: __ZNSt3__16vectorINS_4pairIiiEENS_9allocatorIS2_EEE7__allocB8ne180100Ev, symObjAddr: 0x912C, symBinAddr: 0x10000BA48, symSize: 0x28 }
  - { offset: 0x15FA9, size: 0x8, addend: 0x0, symName: __ZNKSt3__16vectorINS_4pairIiiEENS_9allocatorIS2_EEE8capacityB8ne180100Ev, symObjAddr: 0x9154, symBinAddr: 0x10000BA70, symSize: 0x40 }
  - { offset: 0x15FCD, size: 0x8, addend: 0x0, symName: __ZNSt3__16vectorINS_4pairIiiEENS_9allocatorIS2_EEE22__base_destruct_at_endB8ne180100EPS2_, symObjAddr: 0x9194, symBinAddr: 0x10000BAB0, symSize: 0x8C }
  - { offset: 0x16010, size: 0x8, addend: 0x0, symName: __ZNSt3__116allocator_traitsINS_9allocatorINS_4pairIiiEEEEE7destroyB8ne180100IS3_vvEEvRS4_PT_, symObjAddr: 0x9220, symBinAddr: 0x10000BB3C, symSize: 0x28 }
  - { offset: 0x1604A, size: 0x8, addend: 0x0, symName: __ZNSt3__19allocatorINS_4pairIiiEEE10deallocateB8ne180100EPS2_m, symObjAddr: 0x926C, symBinAddr: 0x10000BB88, symSize: 0x40 }
  - { offset: 0x1608A, size: 0x8, addend: 0x0, symName: __ZNSt3__117__compressed_pairIPNS_4pairIiiEENS_9allocatorIS2_EEE6secondB8ne180100Ev, symObjAddr: 0x92AC, symBinAddr: 0x10000BBC8, symSize: 0x24 }
  - { offset: 0x160AE, size: 0x8, addend: 0x0, symName: __ZNSt3__122__compressed_pair_elemINS_9allocatorINS_4pairIiiEEEELi1ELb1EE5__getB8ne180100Ev, symObjAddr: 0x92D0, symBinAddr: 0x10000BBEC, symSize: 0x14 }
  - { offset: 0x160D2, size: 0x8, addend: 0x0, symName: __ZNKSt3__16vectorINS_4pairIiiEENS_9allocatorIS2_EEE9__end_capB8ne180100Ev, symObjAddr: 0x92E4, symBinAddr: 0x10000BC00, symSize: 0x28 }
  - { offset: 0x160F6, size: 0x8, addend: 0x0, symName: __ZNKSt3__117__compressed_pairIPNS_4pairIiiEENS_9allocatorIS2_EEE5firstB8ne180100Ev, symObjAddr: 0x930C, symBinAddr: 0x10000BC28, symSize: 0x24 }
  - { offset: 0x1611A, size: 0x8, addend: 0x0, symName: __ZNKSt3__122__compressed_pair_elemIPNS_4pairIiiEELi0ELb0EE5__getB8ne180100Ev, symObjAddr: 0x9330, symBinAddr: 0x10000BC4C, symSize: 0x14 }
  - { offset: 0x1C95B, size: 0x8, addend: 0x0, symName: __ZNSt3__17advanceB8ne180100IPNS_4pairIiNS1_IiiEEEEllvEEvRT_T0_, symObjAddr: 0x2944, symBinAddr: 0x10000E29C, symSize: 0x38 }
  - { offset: 0x1E0D0, size: 0x8, addend: 0x0, symName: __ZNSt3__17advanceB8ne180100IPNS_4pairIiiEEllvEEvRT_T0_, symObjAddr: 0x3F54, symBinAddr: 0x10000F5EC, symSize: 0x38 }
  - { offset: 0x1E350, size: 0x8, addend: 0x0, symName: __ZNSt3__17advanceB8ne180100INS_16reverse_iteratorIPNS_4pairIiiEEEEllvEEvRT_T0_, symObjAddr: 0x4344, symBinAddr: 0x10000F9A4, symSize: 0x38 }
  - { offset: 0x1E3BB, size: 0x8, addend: 0x0, symName: __ZNSt3__124__put_character_sequenceB8ne180100IcNS_11char_traitsIcEEEERNS_13basic_ostreamIT_T0_EES7_PKS4_m, symObjAddr: 0x4F40, symBinAddr: 0x10001018C, symSize: 0x1EC }
  - { offset: 0x1F25F, size: 0x8, addend: 0x0, symName: __ZNSt3__1lsB8ne180100INS_11char_traitsIcEEEERNS_13basic_ostreamIcT_EES6_PKc, symObjAddr: 0xC68, symBinAddr: 0x10000C8C8, symSize: 0x48 }
  - { offset: 0x1F2A5, size: 0x8, addend: 0x0, symName: __ZNSt3__14endlB8ne180100IcNS_11char_traitsIcEEEERNS_13basic_ostreamIT_T0_EES7_, symObjAddr: 0xCDC, symBinAddr: 0x10000C93C, symSize: 0x58 }
  - { offset: 0x1F2E5, size: 0x8, addend: 0x0, symName: __ZNSt3__14copyB8ne180100IPiS1_EET0_T_S3_S2_, symObjAddr: 0x1254, symBinAddr: 0x10000CE78, symSize: 0x40 }
  - { offset: 0x1F33F, size: 0x8, addend: 0x0, symName: __ZNSt3__122__make_exception_guardB8ne180100INS_6vectorINS_4pairIiNS2_IiiEEEENS_9allocatorIS4_EEE16__destroy_vectorEEENS_28__exception_guard_exceptionsIT_EESA_, symObjAddr: 0x197C, symBinAddr: 0x10000D5A0, symSize: 0x40 }
  - { offset: 0x1F374, size: 0x8, addend: 0x0, symName: __ZNSt3__119__allocate_at_leastB8ne180100INS_9allocatorINS_4pairIiNS2_IiiEEEEEEEENS_19__allocation_resultINS_16allocator_traitsIT_E7pointerEEERS8_m, symObjAddr: 0x1C6C, symBinAddr: 0x10000D890, symSize: 0x40 }
  - { offset: 0x1F3B7, size: 0x8, addend: 0x0, symName: __ZNSt3__130__uninitialized_allocator_copyB8ne180100INS_9allocatorINS_4pairIiNS2_IiiEEEEEEPS4_S6_S6_EET2_RT_T0_T1_S7_, symObjAddr: 0x210C, symBinAddr: 0x10000DA64, symSize: 0x80 }
  - { offset: 0x1F454, size: 0x8, addend: 0x0, symName: __ZNSt3__114__unwrap_rangeB8ne180100IPNS_4pairIiNS1_IiiEEEES4_EEDaT_T0_, symObjAddr: 0x2204, symBinAddr: 0x10000DB5C, symSize: 0x3C }
  - { offset: 0x1F4A0, size: 0x8, addend: 0x0, symName: __ZNSt3__135__uninitialized_allocator_copy_implB8ne180100INS_9allocatorINS_4pairIiNS2_IiiEEEEEEPS4_S6_S6_EET2_RT_T0_T1_S7_, symObjAddr: 0x2240, symBinAddr: 0x10000DB98, symSize: 0xF4 }
  - { offset: 0x1F53E, size: 0x8, addend: 0x0, symName: __ZNSt3__113__unwrap_iterB8ne180100IPNS_4pairIiNS1_IiiEEEENS_18__unwrap_iter_implIS4_Lb1EEELi0EEEDTclsrT0_8__unwrapclsr3stdE7declvalIT_EEEES8_, symObjAddr: 0x2334, symBinAddr: 0x10000DC8C, symSize: 0x24 }
  - { offset: 0x1F582, size: 0x8, addend: 0x0, symName: __ZNSt3__113__rewrap_iterB8ne180100IPNS_4pairIiNS1_IiiEEEES4_NS_18__unwrap_iter_implIS4_Lb1EEEEET_S7_T0_, symObjAddr: 0x2358, symBinAddr: 0x10000DCB0, symSize: 0x3C }
  - { offset: 0x1F6D9, size: 0x8, addend: 0x0, symName: __ZNSt3__122__make_exception_guardB8ne180100INS_29_AllocatorDestroyRangeReverseINS_9allocatorINS_4pairIiNS3_IiiEEEEEEPS5_EEEENS_28__exception_guard_exceptionsIT_EESA_, symObjAddr: 0x245C, symBinAddr: 0x10000DDB4, symSize: 0x4C }
  - { offset: 0x1F70F, size: 0x8, addend: 0x0, symName: __ZNSt3__112__to_addressB8ne180100INS_4pairIiNS1_IiiEEEEEEPT_S5_, symObjAddr: 0x251C, symBinAddr: 0x10000DE74, symSize: 0x14 }
  - { offset: 0x1F744, size: 0x8, addend: 0x0, symName: __ZNSt3__114__construct_atB8ne180100INS_4pairIiNS1_IiiEEEEJRS3_EPS3_EEPT_S7_DpOT0_, symObjAddr: 0x2614, symBinAddr: 0x10000DF6C, symSize: 0x2C }
  - { offset: 0x1F797, size: 0x8, addend: 0x0, symName: __ZNSt3__112construct_atB8ne180100INS_4pairIiNS1_IiiEEEEJRS3_EPS3_EEPT_S7_DpOT0_, symObjAddr: 0x2640, symBinAddr: 0x10000DF98, symSize: 0x2C }
  - { offset: 0x1F7EA, size: 0x8, addend: 0x0, symName: __ZNSt3__119__allocator_destroyB8ne180100INS_9allocatorINS_4pairIiNS2_IiiEEEEEENS_16reverse_iteratorIPS4_EES8_EEvRT_T0_T1_, symObjAddr: 0x2724, symBinAddr: 0x10000E07C, symSize: 0x70 }
  - { offset: 0x1F84D, size: 0x8, addend: 0x0, symName: __ZNSt3__1neB8ne180100IPNS_4pairIiNS1_IiiEEEES4_EEbRKNS_16reverse_iteratorIT_EERKNS5_IT0_EE, symObjAddr: 0x27C8, symBinAddr: 0x10000E120, symSize: 0x48 }
  - { offset: 0x1F899, size: 0x8, addend: 0x0, symName: __ZNSt3__112__to_addressB8ne180100INS_16reverse_iteratorIPNS_4pairIiNS2_IiiEEEEEEvEEu7__decayIDTclsr19__to_address_helperIT_EE6__callclsr3stdE7declvalIRKS7_EEEEES9_, symObjAddr: 0x2838, symBinAddr: 0x10000E190, symSize: 0x24 }
  - { offset: 0x1F8CF, size: 0x8, addend: 0x0, symName: __ZNSt3__112__destroy_atB8ne180100INS_4pairIiNS1_IiiEEEELi0EEEvPT_, symObjAddr: 0x2894, symBinAddr: 0x10000E1EC, symSize: 0x10 }
  - { offset: 0x1F92F, size: 0x8, addend: 0x0, symName: __ZNSt3__14prevB8ne180100IPNS_4pairIiNS1_IiiEEEELi0EEET_S5_NS_15iterator_traitsIS5_E15difference_typeE, symObjAddr: 0x2908, symBinAddr: 0x10000E260, symSize: 0x3C }
  - { offset: 0x1F978, size: 0x8, addend: 0x0, symName: __ZNSt3__19__advanceB8ne180100IPNS_4pairIiNS1_IiiEEEEEEvRT_NS_15iterator_traitsIS5_E15difference_typeENS_26random_access_iterator_tagE, symObjAddr: 0x2990, symBinAddr: 0x10000E2D4, symSize: 0x30 }
  - { offset: 0x1FA14, size: 0x8, addend: 0x0, symName: __ZNSt3__114__construct_atB8ne180100INS_4pairIiiEEJS2_EPS2_EEPT_S5_DpOT0_, symObjAddr: 0x32C8, symBinAddr: 0x10000EAC8, symSize: 0x2C }
  - { offset: 0x1FA67, size: 0x8, addend: 0x0, symName: __ZNSt3__112construct_atB8ne180100INS_4pairIiiEEJS2_EPS2_EEPT_S5_DpOT0_, symObjAddr: 0x32F4, symBinAddr: 0x10000EAF4, symSize: 0x24 }
  - { offset: 0x1FABA, size: 0x8, addend: 0x0, symName: __ZNSt3__119__allocate_at_leastB8ne180100INS_9allocatorINS_4pairIiiEEEEEENS_19__allocation_resultINS_16allocator_traitsIT_E7pointerEEERS7_m, symObjAddr: 0x3900, symBinAddr: 0x10000EFA8, symSize: 0x40 }
  - { offset: 0x1FAFD, size: 0x8, addend: 0x0, symName: __ZNSt3__142__uninitialized_allocator_move_if_noexceptB8ne180100INS_9allocatorINS_4pairIiiEEEENS_16reverse_iteratorIPS3_EES7_S7_EET2_RT_T0_T1_S8_, symObjAddr: 0x3AC4, symBinAddr: 0x10000F15C, symSize: 0x12C }
  - { offset: 0x1FB9D, size: 0x8, addend: 0x0, symName: __ZNSt3__14swapB8ne180100IPNS_4pairIiiEEEENS_9enable_ifIXaasr21is_move_constructibleIT_EE5valuesr18is_move_assignableIS5_EE5valueEvE4typeERS5_S8_, symObjAddr: 0x3C3C, symBinAddr: 0x10000F2D4, symSize: 0x3C }
  - { offset: 0x1FBEE, size: 0x8, addend: 0x0, symName: __ZNSt3__122__make_exception_guardB8ne180100INS_29_AllocatorDestroyRangeReverseINS_9allocatorINS_4pairIiiEEEENS_16reverse_iteratorIPS4_EEEEEENS_28__exception_guard_exceptionsIT_EESB_, symObjAddr: 0x3C8C, symBinAddr: 0x10000F324, symSize: 0x4C }
  - { offset: 0x1FC24, size: 0x8, addend: 0x0, symName: __ZNSt3__1neB8ne180100IPNS_4pairIiiEES3_EEbRKNS_16reverse_iteratorIT_EERKNS4_IT0_EE, symObjAddr: 0x3D1C, symBinAddr: 0x10000F3B4, symSize: 0x48 }
  - { offset: 0x1FC70, size: 0x8, addend: 0x0, symName: __ZNSt3__112__to_addressB8ne180100INS_16reverse_iteratorIPNS_4pairIiiEEEEvEEu7__decayIDTclsr19__to_address_helperIT_EE6__callclsr3stdE7declvalIRKS6_EEEEES8_, symObjAddr: 0x3D64, symBinAddr: 0x10000F3FC, symSize: 0x24 }
  - { offset: 0x1FCCF, size: 0x8, addend: 0x0, symName: __ZNSt3__14prevB8ne180100IPNS_4pairIiiEELi0EEET_S4_NS_15iterator_traitsIS4_E15difference_typeE, symObjAddr: 0x3F18, symBinAddr: 0x10000F5B0, symSize: 0x3C }
  - { offset: 0x1FD18, size: 0x8, addend: 0x0, symName: __ZNSt3__19__advanceB8ne180100IPNS_4pairIiiEEEEvRT_NS_15iterator_traitsIS4_E15difference_typeENS_26random_access_iterator_tagE, symObjAddr: 0x3F8C, symBinAddr: 0x10000F624, symSize: 0x28 }
  - { offset: 0x1FD61, size: 0x8, addend: 0x0, symName: __ZNSt3__119__allocator_destroyB8ne180100INS_9allocatorINS_4pairIiiEEEENS_16reverse_iteratorINS5_IPS3_EEEES8_EEvRT_T0_T1_, symObjAddr: 0x40B8, symBinAddr: 0x10000F750, symSize: 0x70 }
  - { offset: 0x1FDC6, size: 0x8, addend: 0x0, symName: __ZNSt3__1neB8ne180100INS_16reverse_iteratorIPNS_4pairIiiEEEES5_EEbRKNS1_IT_EERKNS1_IT0_EE, symObjAddr: 0x4164, symBinAddr: 0x10000F7FC, symSize: 0x60 }
  - { offset: 0x1FE12, size: 0x8, addend: 0x0, symName: __ZNSt3__112__to_addressB8ne180100INS_16reverse_iteratorINS1_IPNS_4pairIiiEEEEEEvEEu7__decayIDTclsr19__to_address_helperIT_EE6__callclsr3stdE7declvalIRKS7_EEEEES9_, symObjAddr: 0x41EC, symBinAddr: 0x10000F85C, symSize: 0x24 }
  - { offset: 0x1FE71, size: 0x8, addend: 0x0, symName: __ZNSt3__14prevB8ne180100INS_16reverse_iteratorIPNS_4pairIiiEEEELi0EEET_S6_NS_15iterator_traitsIS6_E15difference_typeE, symObjAddr: 0x42F8, symBinAddr: 0x10000F958, symSize: 0x4C }
  - { offset: 0x1FEBA, size: 0x8, addend: 0x0, symName: __ZNSt3__19__advanceB8ne180100INS_16reverse_iteratorIPNS_4pairIiiEEEEEEvRT_NS_15iterator_traitsIS6_E15difference_typeENS_26random_access_iterator_tagE, symObjAddr: 0x437C, symBinAddr: 0x10000F9DC, symSize: 0x2C }
  - { offset: 0x1FF03, size: 0x8, addend: 0x0, symName: __ZNSt3__16__copyB8ne180100INS_17_ClassicAlgPolicyEPiS2_S2_EENS_4pairIT0_T2_EES4_T1_S5_, symObjAddr: 0x49B4, symBinAddr: 0x10000FCE8, symSize: 0x44 }
  - { offset: 0x1FF6F, size: 0x8, addend: 0x0, symName: __ZNSt3__123__dispatch_copy_or_moveB8ne180100INS_17_ClassicAlgPolicyENS_11__copy_loopIS1_EENS_14__copy_trivialEPiS5_S5_EENS_4pairIT2_T4_EES7_T3_S8_, symObjAddr: 0x49F8, symBinAddr: 0x10000FD2C, symSize: 0x44 }
  - { offset: 0x1FFED, size: 0x8, addend: 0x0, symName: __ZNSt3__121__unwrap_and_dispatchB8ne180100INS_10__overloadINS_11__copy_loopINS_17_ClassicAlgPolicyEEENS_14__copy_trivialEEEPiS7_S7_Li0EEENS_4pairIT0_T2_EES9_T1_SA_, symObjAddr: 0x4A3C, symBinAddr: 0x10000FD70, symSize: 0xB4 }
  - { offset: 0x2007B, size: 0x8, addend: 0x0, symName: __ZNSt3__114__unwrap_rangeB8ne180100IPiS1_EEDaT_T0_, symObjAddr: 0x4AF0, symBinAddr: 0x10000FE24, symSize: 0x3C }
  - { offset: 0x20210, size: 0x8, addend: 0x0, symName: __ZNSt3__19make_pairB8ne180100IPiS1_EENS_4pairINS_18__unwrap_ref_decayIT_E4typeENS3_IT0_E4typeEEEOS4_OS7_, symObjAddr: 0x4B98, symBinAddr: 0x10000FEA8, symSize: 0x38 }
  - { offset: 0x2025F, size: 0x8, addend: 0x0, symName: __ZNSt3__114__rewrap_rangeB8ne180100IPiS1_S1_EET0_S2_T1_, symObjAddr: 0x4BD0, symBinAddr: 0x10000FEE0, symSize: 0x2C }
  - { offset: 0x20304, size: 0x8, addend: 0x0, symName: __ZNSt3__119__copy_trivial_implB8ne180100IiiEENS_4pairIPT_PT0_EES3_S3_S5_, symObjAddr: 0x4D00, symBinAddr: 0x10000FFD4, symSize: 0x80 }
  - { offset: 0x2036C, size: 0x8, addend: 0x0, symName: __ZNSt3__119__constexpr_memmoveB8ne180100IiiLi0EEEPT_S2_PT0_NS_15__element_countE, symObjAddr: 0x4D80, symBinAddr: 0x100010054, symSize: 0x64 }
  - { offset: 0x203DA, size: 0x8, addend: 0x0, symName: __ZNSt3__19make_pairB8ne180100IRPiS1_EENS_4pairINS_18__unwrap_ref_decayIT_E4typeENS4_IT0_E4typeEEEOS5_OS8_, symObjAddr: 0x4DE4, symBinAddr: 0x1000100B8, symSize: 0x38 }
  - { offset: 0x20429, size: 0x8, addend: 0x0, symName: __ZNSt3__116__pad_and_outputB8ne180100IcNS_11char_traitsIcEEEENS_19ostreambuf_iteratorIT_T0_EES6_PKS4_S8_S8_RNS_8ios_baseES4_, symObjAddr: 0x517C, symBinAddr: 0x1000103C8, symSize: 0x240 }
  - { offset: 0x204F8, size: 0x8, addend: 0x0, symName: __ZNSt3__112__to_addressB8ne180100IcEEPT_S2_, symObjAddr: 0x56E4, symBinAddr: 0x100010930, symSize: 0x14 }
  - { offset: 0x2052D, size: 0x8, addend: 0x0, symName: __ZNSt3__19use_facetB8ne180100INS_5ctypeIcEEEERKT_RKNS_6localeE, symObjAddr: 0x599C, symBinAddr: 0x100010BE8, symSize: 0x2C }
  - { offset: 0x20A04, size: 0x8, addend: 0x0, symName: __ZNSt3__118__constexpr_strlenB8ne180100EPKc, symObjAddr: 0x5A34, symBinAddr: 0x100010C80, symSize: 0x24 }
  - { offset: 0x21CCB, size: 0x8, addend: 0x0, symName: __ZNSt3__16vectorINS_4pairIiiEENS_9allocatorIS2_EEE26__swap_out_circular_bufferERNS_14__split_bufferIS2_RS4_EE, symObjAddr: 0x3490, symBinAddr: 0x10000EC58, symSize: 0x110 }
  - { offset: 0x21E7A, size: 0x8, addend: 0x0, symName: __ZN5Graph12reverseGraphEv, symObjAddr: 0x0, symBinAddr: 0x10000BC60, symSize: 0x46C }
  - { offset: 0x22042, size: 0x8, addend: 0x0, symName: __ZN5GraphC1EPiS0_S0_iii, symObjAddr: 0x46C, symBinAddr: 0x10000C0CC, symSize: 0x5C }
  - { offset: 0x220BE, size: 0x8, addend: 0x0, symName: __ZN5GraphD1Ev, symObjAddr: 0x4C8, symBinAddr: 0x10000C128, symSize: 0x2C }
  - { offset: 0x220E8, size: 0x8, addend: 0x0, symName: __ZN5GraphC2EicNSt3__16vectorINS0_4pairIiNS2_IiiEEEENS0_9allocatorIS4_EEEE, symObjAddr: 0x4F4, symBinAddr: 0x10000C154, symSize: 0x2D4 }
  - { offset: 0x22162, size: 0x8, addend: 0x0, symName: __ZN5Graph7setTypeEc, symObjAddr: 0x7C8, symBinAddr: 0x10000C428, symSize: 0x1C }
  - { offset: 0x22196, size: 0x8, addend: 0x0, symName: __ZN5Graph9setArraysEiNSt3__16vectorINS0_4pairIiNS2_IiiEEEENS0_9allocatorIS4_EEEE, symObjAddr: 0x7E4, symBinAddr: 0x10000C444, symSize: 0x3FC }
  - { offset: 0x222FA, size: 0x8, addend: 0x0, symName: __ZNSt3__16vectorINS_4pairIiNS1_IiiEEEENS_9allocatorIS3_EEEC1ERKS6_, symObjAddr: 0xBE0, symBinAddr: 0x10000C840, symSize: 0x34 }
  - { offset: 0x22333, size: 0x8, addend: 0x0, symName: __ZNSt3__16vectorINS_4pairIiNS1_IiiEEEENS_9allocatorIS3_EEED1B8ne180100Ev, symObjAddr: 0xC14, symBinAddr: 0x10000C874, symSize: 0x2C }
  - { offset: 0x2235B, size: 0x8, addend: 0x0, symName: __ZNKSt3__16vectorINS_4pairIiNS1_IiiEEEENS_9allocatorIS3_EEE4sizeB8ne180100Ev, symObjAddr: 0xC40, symBinAddr: 0x10000C8A0, symSize: 0x28 }
  - { offset: 0x2237F, size: 0x8, addend: 0x0, symName: __ZNSt3__113basic_ostreamIcNS_11char_traitsIcEEElsB8ne180100EPFRS3_S4_E, symObjAddr: 0xCB0, symBinAddr: 0x10000C910, symSize: 0x2C }
  - { offset: 0x223B1, size: 0x8, addend: 0x0, symName: __ZN5GraphC1EicNSt3__16vectorINS0_4pairIiNS2_IiiEEEENS0_9allocatorIS4_EEEE, symObjAddr: 0xD44, symBinAddr: 0x10000C994, symSize: 0x44 }
  - { offset: 0x22406, size: 0x8, addend: 0x0, symName: __ZNK5Graph13getNeighboursEi, symObjAddr: 0xD88, symBinAddr: 0x10000C9D8, symSize: 0x134 }
  - { offset: 0x22481, size: 0x8, addend: 0x0, symName: __ZNSt3__16vectorINS_4pairIiiEENS_9allocatorIS2_EEEC1B8ne180100Ev, symObjAddr: 0xEBC, symBinAddr: 0x10000CB0C, symSize: 0x2C }
  - { offset: 0x224A9, size: 0x8, addend: 0x0, symName: __ZNSt3__16vectorINS_4pairIiiEENS_9allocatorIS2_EEE9push_backB8ne180100EOS2_, symObjAddr: 0xEE8, symBinAddr: 0x10000CB38, symSize: 0x90 }
  - { offset: 0x224F2, size: 0x8, addend: 0x0, symName: __ZNSt3__14pairIiiEC1B8ne180100IRiS3_Li0EEEOT_OT0_, symObjAddr: 0xF78, symBinAddr: 0x10000CBC8, symSize: 0x3C }
  - { offset: 0x2254E, size: 0x8, addend: 0x0, symName: __ZNSt3__16vectorINS_4pairIiNS1_IiiEEEENS_9allocatorIS3_EEE2atEm, symObjAddr: 0xFE0, symBinAddr: 0x10000CC04, symSize: 0x68 }
  - { offset: 0x22583, size: 0x8, addend: 0x0, symName: __ZN5GraphD2Ev, symObjAddr: 0x1048, symBinAddr: 0x10000CC6C, symSize: 0xB4 }
  - { offset: 0x225AD, size: 0x8, addend: 0x0, symName: __ZN5GraphC2ERKS_, symObjAddr: 0x10FC, symBinAddr: 0x10000CD20, symSize: 0x158 }
  - { offset: 0x225E5, size: 0x8, addend: 0x0, symName: __ZN5GraphC1ERKS_, symObjAddr: 0x1294, symBinAddr: 0x10000CEB8, symSize: 0x34 }
  - { offset: 0x2261D, size: 0x8, addend: 0x0, symName: __ZN5GraphaSERKS_, symObjAddr: 0x12C8, symBinAddr: 0x10000CEEC, symSize: 0x200 }
  - { offset: 0x22652, size: 0x8, addend: 0x0, symName: __ZN5GraphC2EOS_, symObjAddr: 0x14C8, symBinAddr: 0x10000D0EC, symSize: 0x6C }
  - { offset: 0x2268A, size: 0x8, addend: 0x0, symName: __ZN5GraphC1EOS_, symObjAddr: 0x1534, symBinAddr: 0x10000D158, symSize: 0x34 }
  - { offset: 0x226C2, size: 0x8, addend: 0x0, symName: __ZN5GraphaSEOS_, symObjAddr: 0x1568, symBinAddr: 0x10000D18C, symSize: 0x148 }
  - { offset: 0x226F7, size: 0x8, addend: 0x0, symName: __ZN5GraphC2EPiS0_S0_iii, symObjAddr: 0x16B0, symBinAddr: 0x10000D2D4, symSize: 0x5C }
  - { offset: 0x22773, size: 0x8, addend: 0x0, symName: __ZNSt3__16vectorINS_4pairIiNS1_IiiEEEENS_9allocatorIS3_EEEC2ERKS6_, symObjAddr: 0x170C, symBinAddr: 0x10000D330, symSize: 0x94 }
  - { offset: 0x227B7, size: 0x8, addend: 0x0, symName: __ZNSt3__116allocator_traitsINS_9allocatorINS_4pairIiNS2_IiiEEEEEEE37select_on_container_copy_constructionB8ne180100IS5_vvEES5_RKS5_, symObjAddr: 0x17A0, symBinAddr: 0x10000D3C4, symSize: 0x10 }
  - { offset: 0x227E5, size: 0x8, addend: 0x0, symName: __ZNKSt3__16vectorINS_4pairIiNS1_IiiEEEENS_9allocatorIS3_EEE7__allocB8ne180100Ev, symObjAddr: 0x17B0, symBinAddr: 0x10000D3D4, symSize: 0x28 }
  - { offset: 0x22813, size: 0x8, addend: 0x0, symName: __ZNSt3__117__compressed_pairIPNS_4pairIiNS1_IiiEEEENS_9allocatorIS3_EEEC1B8ne180100IDnS6_EEOT_OT0_, symObjAddr: 0x17D8, symBinAddr: 0x10000D3FC, symSize: 0x3C }
  - { offset: 0x22869, size: 0x8, addend: 0x0, symName: __ZNSt3__16vectorINS_4pairIiNS1_IiiEEEENS_9allocatorIS3_EEE16__init_with_sizeB8ne180100IPS3_S8_EEvT_T0_m, symObjAddr: 0x1814, symBinAddr: 0x10000D438, symSize: 0xB8 }
  - { offset: 0x228DB, size: 0x8, addend: 0x0, symName: __ZNKSt3__117__compressed_pairIPNS_4pairIiNS1_IiiEEEENS_9allocatorIS3_EEE6secondB8ne180100Ev, symObjAddr: 0x18CC, symBinAddr: 0x10000D4F0, symSize: 0x24 }
  - { offset: 0x228FF, size: 0x8, addend: 0x0, symName: __ZNKSt3__122__compressed_pair_elemINS_9allocatorINS_4pairIiNS2_IiiEEEEEELi1ELb1EE5__getB8ne180100Ev, symObjAddr: 0x18F0, symBinAddr: 0x10000D514, symSize: 0x14 }
  - { offset: 0x22923, size: 0x8, addend: 0x0, symName: __ZNSt3__117__compressed_pairIPNS_4pairIiNS1_IiiEEEENS_9allocatorIS3_EEEC2B8ne180100IDnS6_EEOT_OT0_, symObjAddr: 0x1904, symBinAddr: 0x10000D528, symSize: 0x44 }
  - { offset: 0x2297A, size: 0x8, addend: 0x0, symName: __ZNSt3__122__compressed_pair_elemIPNS_4pairIiNS1_IiiEEEELi0ELb0EEC2B8ne180100IDnvEEOT_, symObjAddr: 0x1948, symBinAddr: 0x10000D56C, symSize: 0x1C }
  - { offset: 0x229BB, size: 0x8, addend: 0x0, symName: __ZNSt3__122__compressed_pair_elemINS_9allocatorINS_4pairIiNS2_IiiEEEEEELi1ELb1EEC2B8ne180100IS5_vEEOT_, symObjAddr: 0x1964, symBinAddr: 0x10000D588, symSize: 0x18 }
  - { offset: 0x229FB, size: 0x8, addend: 0x0, symName: __ZNSt3__16vectorINS_4pairIiNS1_IiiEEEENS_9allocatorIS3_EEE16__destroy_vectorC1B8ne180100ERS6_, symObjAddr: 0x19BC, symBinAddr: 0x10000D5E0, symSize: 0x34 }
  - { offset: 0x22A32, size: 0x8, addend: 0x0, symName: __ZNSt3__16vectorINS_4pairIiNS1_IiiEEEENS_9allocatorIS3_EEE11__vallocateB8ne180100Em, symObjAddr: 0x19F0, symBinAddr: 0x10000D614, symSize: 0xB4 }
  - { offset: 0x22A74, size: 0x8, addend: 0x0, symName: __ZNSt3__16vectorINS_4pairIiNS1_IiiEEEENS_9allocatorIS3_EEE18__construct_at_endIPS3_S8_EEvT_T0_m, symObjAddr: 0x1AA4, symBinAddr: 0x10000D6C8, symSize: 0x8C }
  - { offset: 0x22AE8, size: 0x8, addend: 0x0, symName: __ZNSt3__128__exception_guard_exceptionsINS_6vectorINS_4pairIiNS2_IiiEEEENS_9allocatorIS4_EEE16__destroy_vectorEE10__completeB8ne180100Ev, symObjAddr: 0x1B30, symBinAddr: 0x10000D754, symSize: 0x1C }
  - { offset: 0x22B0C, size: 0x8, addend: 0x0, symName: __ZNSt3__128__exception_guard_exceptionsINS_6vectorINS_4pairIiNS2_IiiEEEENS_9allocatorIS4_EEE16__destroy_vectorEED1B8ne180100Ev, symObjAddr: 0x1B4C, symBinAddr: 0x10000D770, symSize: 0x2C }
  - { offset: 0x22B34, size: 0x8, addend: 0x0, symName: __ZNSt3__128__exception_guard_exceptionsINS_6vectorINS_4pairIiNS2_IiiEEEENS_9allocatorIS4_EEE16__destroy_vectorEEC1B8ne180100ES8_, symObjAddr: 0x1B78, symBinAddr: 0x10000D79C, symSize: 0x34 }
  - { offset: 0x22B6B, size: 0x8, addend: 0x0, symName: __ZNSt3__128__exception_guard_exceptionsINS_6vectorINS_4pairIiNS2_IiiEEEENS_9allocatorIS4_EEE16__destroy_vectorEEC2B8ne180100ES8_, symObjAddr: 0x1BAC, symBinAddr: 0x10000D7D0, symSize: 0x24 }
  - { offset: 0x22BA2, size: 0x8, addend: 0x0, symName: __ZNSt3__16vectorINS_4pairIiNS1_IiiEEEENS_9allocatorIS3_EEE16__destroy_vectorC2B8ne180100ERS6_, symObjAddr: 0x1BD0, symBinAddr: 0x10000D7F4, symSize: 0x20 }
  - { offset: 0x22BD9, size: 0x8, addend: 0x0, symName: __ZNKSt3__16vectorINS_4pairIiNS1_IiiEEEENS_9allocatorIS3_EEE8max_sizeEv, symObjAddr: 0x1BF0, symBinAddr: 0x10000D814, symSize: 0x60 }
  - { offset: 0x22BFF, size: 0x8, addend: 0x0, symName: __ZNKSt3__16vectorINS_4pairIiNS1_IiiEEEENS_9allocatorIS3_EEE20__throw_length_errorB8ne180100Ev, symObjAddr: 0x1C50, symBinAddr: 0x10000D874, symSize: 0x1C }
  - { offset: 0x22C23, size: 0x8, addend: 0x0, symName: __ZNSt3__16vectorINS_4pairIiNS1_IiiEEEENS_9allocatorIS3_EEE7__allocB8ne180100Ev, symObjAddr: 0x1CAC, symBinAddr: 0x10000D8D0, symSize: 0x28 }
  - { offset: 0x22C47, size: 0x8, addend: 0x0, symName: __ZNSt3__16vectorINS_4pairIiNS1_IiiEEEENS_9allocatorIS3_EEE9__end_capB8ne180100Ev, symObjAddr: 0x1CD4, symBinAddr: 0x10000D8F8, symSize: 0x28 }
  - { offset: 0x22C6B, size: 0x8, addend: 0x0, symName: __ZNKSt3__16vectorINS_4pairIiNS1_IiiEEEENS_9allocatorIS3_EEE14__annotate_newB8ne180100Em, symObjAddr: 0x1CFC, symBinAddr: 0x10000D920, symSize: 0x14 }
  - { offset: 0x22C9F, size: 0x8, addend: 0x0, symName: __ZNSt3__116allocator_traitsINS_9allocatorINS_4pairIiNS2_IiiEEEEEEE8max_sizeB8ne180100IS5_vvEEmRKS5_, symObjAddr: 0x1D3C, symBinAddr: 0x10000D934, symSize: 0x28 }
  - { offset: 0x22CCA, size: 0x8, addend: 0x0, symName: __ZNSt3__19allocatorINS_4pairIiNS1_IiiEEEEE8allocateB8ne180100Em, symObjAddr: 0x1F00, symBinAddr: 0x10000D95C, symSize: 0x5C }
  - { offset: 0x22CFC, size: 0x8, addend: 0x0, symName: __ZNSt3__117__compressed_pairIPNS_4pairIiNS1_IiiEEEENS_9allocatorIS3_EEE6secondB8ne180100Ev, symObjAddr: 0x2060, symBinAddr: 0x10000D9B8, symSize: 0x24 }
  - { offset: 0x22D20, size: 0x8, addend: 0x0, symName: __ZNSt3__122__compressed_pair_elemINS_9allocatorINS_4pairIiNS2_IiiEEEEEELi1ELb1EE5__getB8ne180100Ev, symObjAddr: 0x2084, symBinAddr: 0x10000D9DC, symSize: 0x14 }
  - { offset: 0x22D44, size: 0x8, addend: 0x0, symName: __ZNSt3__117__compressed_pairIPNS_4pairIiNS1_IiiEEEENS_9allocatorIS3_EEE5firstB8ne180100Ev, symObjAddr: 0x2098, symBinAddr: 0x10000D9F0, symSize: 0x24 }
  - { offset: 0x22D68, size: 0x8, addend: 0x0, symName: __ZNSt3__122__compressed_pair_elemIPNS_4pairIiNS1_IiiEEEELi0ELb0EE5__getB8ne180100Ev, symObjAddr: 0x20BC, symBinAddr: 0x10000DA14, symSize: 0x14 }
  - { offset: 0x22DA5, size: 0x8, addend: 0x0, symName: __ZNSt3__16vectorINS_4pairIiNS1_IiiEEEENS_9allocatorIS3_EEE21_ConstructTransactionC1B8ne180100ERS6_m, symObjAddr: 0x20D0, symBinAddr: 0x10000DA28, symSize: 0x3C }
  - { offset: 0x22DEB, size: 0x8, addend: 0x0, symName: __ZNSt3__16vectorINS_4pairIiNS1_IiiEEEENS_9allocatorIS3_EEE21_ConstructTransactionD1B8ne180100Ev, symObjAddr: 0x218C, symBinAddr: 0x10000DAE4, symSize: 0x2C }
  - { offset: 0x22E14, size: 0x8, addend: 0x0, symName: __ZNSt3__16vectorINS_4pairIiNS1_IiiEEEENS_9allocatorIS3_EEE21_ConstructTransactionC2B8ne180100ERS6_m, symObjAddr: 0x21B8, symBinAddr: 0x10000DB10, symSize: 0x4C }
  - { offset: 0x22E74, size: 0x8, addend: 0x0, symName: __ZNSt3__119__unwrap_range_implIPNS_4pairIiNS1_IiiEEEES4_E8__unwrapB8ne180100ES4_S4_, symObjAddr: 0x2394, symBinAddr: 0x10000DCEC, symSize: 0x58 }
  - { offset: 0x22EA9, size: 0x8, addend: 0x0, symName: __ZNSt3__14pairIPNS0_IiNS0_IiiEEEES3_EC1B8ne180100IS3_S3_Li0EEEOT_OT0_, symObjAddr: 0x23EC, symBinAddr: 0x10000DD44, symSize: 0x3C }
  - { offset: 0x22F06, size: 0x8, addend: 0x0, symName: __ZNSt3__14pairIPNS0_IiNS0_IiiEEEES3_EC2B8ne180100IS3_S3_Li0EEEOT_OT0_, symObjAddr: 0x2428, symBinAddr: 0x10000DD80, symSize: 0x34 }
  - { offset: 0x22F62, size: 0x8, addend: 0x0, symName: __ZNSt3__129_AllocatorDestroyRangeReverseINS_9allocatorINS_4pairIiNS2_IiiEEEEEEPS4_EC1B8ne180100ERS5_RS6_S9_, symObjAddr: 0x24A8, symBinAddr: 0x10000DE00, symSize: 0x44 }
  - { offset: 0x22FB8, size: 0x8, addend: 0x0, symName: __ZNSt3__116allocator_traitsINS_9allocatorINS_4pairIiNS2_IiiEEEEEEE9constructB8ne180100IS4_JRS4_EvvEEvRS5_PT_DpOT0_, symObjAddr: 0x24EC, symBinAddr: 0x10000DE44, symSize: 0x30 }
  - { offset: 0x2300C, size: 0x8, addend: 0x0, symName: __ZNSt3__128__exception_guard_exceptionsINS_29_AllocatorDestroyRangeReverseINS_9allocatorINS_4pairIiNS3_IiiEEEEEEPS5_EEE10__completeB8ne180100Ev, symObjAddr: 0x2530, symBinAddr: 0x10000DE88, symSize: 0x1C }
  - { offset: 0x23030, size: 0x8, addend: 0x0, symName: __ZNSt3__128__exception_guard_exceptionsINS_29_AllocatorDestroyRangeReverseINS_9allocatorINS_4pairIiNS3_IiiEEEEEEPS5_EEED1B8ne180100Ev, symObjAddr: 0x254C, symBinAddr: 0x10000DEA4, symSize: 0x2C }
  - { offset: 0x23058, size: 0x8, addend: 0x0, symName: __ZNSt3__128__exception_guard_exceptionsINS_29_AllocatorDestroyRangeReverseINS_9allocatorINS_4pairIiNS3_IiiEEEEEEPS5_EEEC1B8ne180100ES8_, symObjAddr: 0x2578, symBinAddr: 0x10000DED0, symSize: 0x34 }
  - { offset: 0x23090, size: 0x8, addend: 0x0, symName: __ZNSt3__128__exception_guard_exceptionsINS_29_AllocatorDestroyRangeReverseINS_9allocatorINS_4pairIiNS3_IiiEEEEEEPS5_EEEC2B8ne180100ES8_, symObjAddr: 0x25AC, symBinAddr: 0x10000DF04, symSize: 0x30 }
  - { offset: 0x230C8, size: 0x8, addend: 0x0, symName: __ZNSt3__129_AllocatorDestroyRangeReverseINS_9allocatorINS_4pairIiNS2_IiiEEEEEEPS4_EC2B8ne180100ERS5_RS6_S9_, symObjAddr: 0x25DC, symBinAddr: 0x10000DF34, symSize: 0x38 }
  - { offset: 0x2311D, size: 0x8, addend: 0x0, symName: __ZNSt3__128__exception_guard_exceptionsINS_29_AllocatorDestroyRangeReverseINS_9allocatorINS_4pairIiNS3_IiiEEEEEEPS5_EEED2B8ne180100Ev, symObjAddr: 0x266C, symBinAddr: 0x10000DFC4, symSize: 0x50 }
  - { offset: 0x23145, size: 0x8, addend: 0x0, symName: __ZNKSt3__129_AllocatorDestroyRangeReverseINS_9allocatorINS_4pairIiNS2_IiiEEEEEEPS4_EclB8ne180100Ev, symObjAddr: 0x26BC, symBinAddr: 0x10000E014, symSize: 0x68 }
  - { offset: 0x23169, size: 0x8, addend: 0x0, symName: __ZNSt3__116reverse_iteratorIPNS_4pairIiNS1_IiiEEEEEC1B8ne180100ES4_, symObjAddr: 0x2794, symBinAddr: 0x10000E0EC, symSize: 0x34 }
  - { offset: 0x231A0, size: 0x8, addend: 0x0, symName: __ZNSt3__116allocator_traitsINS_9allocatorINS_4pairIiNS2_IiiEEEEEEE7destroyB8ne180100IS4_vvEEvRS5_PT_, symObjAddr: 0x2810, symBinAddr: 0x10000E168, symSize: 0x28 }
  - { offset: 0x231DA, size: 0x8, addend: 0x0, symName: __ZNSt3__116reverse_iteratorIPNS_4pairIiNS1_IiiEEEEEppB8ne180100Ev, symObjAddr: 0x285C, symBinAddr: 0x10000E1B4, symSize: 0x20 }
  - { offset: 0x231FE, size: 0x8, addend: 0x0, symName: __ZNKSt3__116reverse_iteratorIPNS_4pairIiNS1_IiiEEEEE4baseB8ne180100Ev, symObjAddr: 0x287C, symBinAddr: 0x10000E1D4, symSize: 0x18 }
  - { offset: 0x23228, size: 0x8, addend: 0x0, symName: __ZNSt3__119__to_address_helperINS_16reverse_iteratorIPNS_4pairIiNS2_IiiEEEEEEvE6__callB8ne180100ERKS6_, symObjAddr: 0x28A4, symBinAddr: 0x10000E1FC, symSize: 0x38 }
  - { offset: 0x2324A, size: 0x8, addend: 0x0, symName: __ZNKSt3__116reverse_iteratorIPNS_4pairIiNS1_IiiEEEEEptB8ne180100Ev, symObjAddr: 0x28DC, symBinAddr: 0x10000E234, symSize: 0x2C }
  - { offset: 0x2326F, size: 0x8, addend: 0x0, symName: __ZNSt3__116reverse_iteratorIPNS_4pairIiNS1_IiiEEEEEC2B8ne180100ES4_, symObjAddr: 0x29C0, symBinAddr: 0x10000E304, symSize: 0x28 }
  - { offset: 0x232A6, size: 0x8, addend: 0x0, symName: __ZNSt3__118__unwrap_iter_implIPNS_4pairIiNS1_IiiEEEELb1EE8__unwrapB8ne180100ES4_, symObjAddr: 0x29E8, symBinAddr: 0x10000E32C, symSize: 0x24 }
  - { offset: 0x232C9, size: 0x8, addend: 0x0, symName: __ZNSt3__118__unwrap_iter_implIPNS_4pairIiNS1_IiiEEEELb1EE8__rewrapB8ne180100ES4_S4_, symObjAddr: 0x2A0C, symBinAddr: 0x10000E350, symSize: 0x58 }
  - { offset: 0x232FA, size: 0x8, addend: 0x0, symName: __ZNSt3__16vectorINS_4pairIiNS1_IiiEEEENS_9allocatorIS3_EEE21_ConstructTransactionD2B8ne180100Ev, symObjAddr: 0x2A64, symBinAddr: 0x10000E3A8, symSize: 0x20 }
  - { offset: 0x23322, size: 0x8, addend: 0x0, symName: __ZNSt3__128__exception_guard_exceptionsINS_6vectorINS_4pairIiNS2_IiiEEEENS_9allocatorIS4_EEE16__destroy_vectorEED2B8ne180100Ev, symObjAddr: 0x2A84, symBinAddr: 0x10000E3C8, symSize: 0x50 }
  - { offset: 0x2334A, size: 0x8, addend: 0x0, symName: __ZNSt3__16vectorINS_4pairIiNS1_IiiEEEENS_9allocatorIS3_EEE16__destroy_vectorclB8ne180100Ev, symObjAddr: 0x2AD4, symBinAddr: 0x10000E418, symSize: 0x90 }
  - { offset: 0x2336E, size: 0x8, addend: 0x0, symName: __ZNSt3__16vectorINS_4pairIiNS1_IiiEEEENS_9allocatorIS3_EEE7__clearB8ne180100Ev, symObjAddr: 0x2B64, symBinAddr: 0x10000E4A8, symSize: 0x28 }
  - { offset: 0x23392, size: 0x8, addend: 0x0, symName: __ZNKSt3__16vectorINS_4pairIiNS1_IiiEEEENS_9allocatorIS3_EEE17__annotate_deleteB8ne180100Ev, symObjAddr: 0x2B8C, symBinAddr: 0x10000E4D0, symSize: 0x10 }
  - { offset: 0x233B7, size: 0x8, addend: 0x0, symName: __ZNSt3__116allocator_traitsINS_9allocatorINS_4pairIiNS2_IiiEEEEEEE10deallocateB8ne180100ERS5_PS4_m, symObjAddr: 0x2B9C, symBinAddr: 0x10000E4E0, symSize: 0x34 }
  - { offset: 0x233F8, size: 0x8, addend: 0x0, symName: __ZNKSt3__16vectorINS_4pairIiNS1_IiiEEEENS_9allocatorIS3_EEE8capacityB8ne180100Ev, symObjAddr: 0x2BD0, symBinAddr: 0x10000E514, symSize: 0x40 }
  - { offset: 0x2341C, size: 0x8, addend: 0x0, symName: __ZNSt3__16vectorINS_4pairIiNS1_IiiEEEENS_9allocatorIS3_EEE22__base_destruct_at_endB8ne180100EPS3_, symObjAddr: 0x2C10, symBinAddr: 0x10000E554, symSize: 0x8C }
  - { offset: 0x2345E, size: 0x8, addend: 0x0, symName: __ZNSt3__19allocatorINS_4pairIiNS1_IiiEEEEE10deallocateB8ne180100EPS3_m, symObjAddr: 0x2C9C, symBinAddr: 0x10000E5E0, symSize: 0x44 }
  - { offset: 0x2349E, size: 0x8, addend: 0x0, symName: __ZNKSt3__16vectorINS_4pairIiNS1_IiiEEEENS_9allocatorIS3_EEE9__end_capB8ne180100Ev, symObjAddr: 0x2DE8, symBinAddr: 0x10000E624, symSize: 0x28 }
  - { offset: 0x234C2, size: 0x8, addend: 0x0, symName: __ZNKSt3__117__compressed_pairIPNS_4pairIiNS1_IiiEEEENS_9allocatorIS3_EEE5firstB8ne180100Ev, symObjAddr: 0x2E10, symBinAddr: 0x10000E64C, symSize: 0x24 }
  - { offset: 0x234E6, size: 0x8, addend: 0x0, symName: __ZNKSt3__122__compressed_pair_elemIPNS_4pairIiNS1_IiiEEEELi0ELb0EE5__getB8ne180100Ev, symObjAddr: 0x2E34, symBinAddr: 0x10000E670, symSize: 0x14 }
  - { offset: 0x2350A, size: 0x8, addend: 0x0, symName: __ZNSt3__16vectorINS_4pairIiNS1_IiiEEEENS_9allocatorIS3_EEED2B8ne180100Ev, symObjAddr: 0x2E48, symBinAddr: 0x10000E684, symSize: 0x40 }
  - { offset: 0x23532, size: 0x8, addend: 0x0, symName: __ZNSt3__16vectorINS_4pairIiiEENS_9allocatorIS2_EEEC2B8ne180100Ev, symObjAddr: 0x2E88, symBinAddr: 0x10000E6C4, symSize: 0x4C }
  - { offset: 0x2355F, size: 0x8, addend: 0x0, symName: __ZNSt3__117__compressed_pairIPNS_4pairIiiEENS_9allocatorIS2_EEEC1B8ne180100IDnNS_18__default_init_tagEEEOT_OT0_, symObjAddr: 0x2ED4, symBinAddr: 0x10000E710, symSize: 0x3C }
  - { offset: 0x235B5, size: 0x8, addend: 0x0, symName: __ZNSt3__117__compressed_pairIPNS_4pairIiiEENS_9allocatorIS2_EEEC2B8ne180100IDnNS_18__default_init_tagEEEOT_OT0_, symObjAddr: 0x2F10, symBinAddr: 0x10000E74C, symSize: 0x40 }
  - { offset: 0x2360C, size: 0x8, addend: 0x0, symName: __ZNSt3__122__compressed_pair_elemIPNS_4pairIiiEELi0ELb0EEC2B8ne180100IDnvEEOT_, symObjAddr: 0x2F50, symBinAddr: 0x10000E78C, symSize: 0x1C }
  - { offset: 0x2364C, size: 0x8, addend: 0x0, symName: __ZNSt3__122__compressed_pair_elemINS_9allocatorINS_4pairIiiEEEELi1ELb1EEC2B8ne180100ENS_18__default_init_tagE, symObjAddr: 0x2F6C, symBinAddr: 0x10000E7A8, symSize: 0x2C }
  - { offset: 0x2367E, size: 0x8, addend: 0x0, symName: __ZNSt3__19allocatorINS_4pairIiiEEEC2B8ne180100Ev, symObjAddr: 0x2F98, symBinAddr: 0x10000E7D4, symSize: 0x2C }
  - { offset: 0x236A7, size: 0x8, addend: 0x0, symName: __ZNSt3__116__non_trivial_ifILb1ENS_9allocatorINS_4pairIiiEEEEEC2B8ne180100Ev, symObjAddr: 0x2FC4, symBinAddr: 0x10000E800, symSize: 0x14 }
  - { offset: 0x236CF, size: 0x8, addend: 0x0, symName: __ZNSt3__16vectorINS_4pairIiiEENS_9allocatorIS2_EEE9__end_capB8ne180100Ev, symObjAddr: 0x2FD8, symBinAddr: 0x10000E814, symSize: 0x28 }
  - { offset: 0x236F3, size: 0x8, addend: 0x0, symName: __ZNSt3__16vectorINS_4pairIiiEENS_9allocatorIS2_EEE22__construct_one_at_endB8ne180100IJS2_EEEvDpOT_, symObjAddr: 0x3000, symBinAddr: 0x10000E83C, symSize: 0x90 }
  - { offset: 0x23740, size: 0x8, addend: 0x0, symName: __ZNSt3__16vectorINS_4pairIiiEENS_9allocatorIS2_EEE21__push_back_slow_pathIS2_EEPS2_OT_, symObjAddr: 0x3090, symBinAddr: 0x10000E8CC, symSize: 0xE8 }
  - { offset: 0x2379C, size: 0x8, addend: 0x0, symName: __ZNSt3__117__compressed_pairIPNS_4pairIiiEENS_9allocatorIS2_EEE5firstB8ne180100Ev, symObjAddr: 0x3178, symBinAddr: 0x10000E9B4, symSize: 0x24 }
  - { offset: 0x237C0, size: 0x8, addend: 0x0, symName: __ZNSt3__122__compressed_pair_elemIPNS_4pairIiiEELi0ELb0EE5__getB8ne180100Ev, symObjAddr: 0x319C, symBinAddr: 0x10000E9D8, symSize: 0x14 }
  - { offset: 0x237FD, size: 0x8, addend: 0x0, symName: __ZNSt3__16vectorINS_4pairIiiEENS_9allocatorIS2_EEE21_ConstructTransactionC1B8ne180100ERS5_m, symObjAddr: 0x31B0, symBinAddr: 0x10000E9EC, symSize: 0x3C }
  - { offset: 0x23844, size: 0x8, addend: 0x0, symName: __ZNSt3__116allocator_traitsINS_9allocatorINS_4pairIiiEEEEE9constructB8ne180100IS3_JS3_EvvEEvRS4_PT_DpOT0_, symObjAddr: 0x31EC, symBinAddr: 0x10000EA28, symSize: 0x30 }
  - { offset: 0x23898, size: 0x8, addend: 0x0, symName: __ZNSt3__16vectorINS_4pairIiiEENS_9allocatorIS2_EEE21_ConstructTransactionD1B8ne180100Ev, symObjAddr: 0x3258, symBinAddr: 0x10000EA58, symSize: 0x2C }
  - { offset: 0x238C1, size: 0x8, addend: 0x0, symName: __ZNSt3__16vectorINS_4pairIiiEENS_9allocatorIS2_EEE21_ConstructTransactionC2B8ne180100ERS5_m, symObjAddr: 0x3284, symBinAddr: 0x10000EA84, symSize: 0x44 }
  - { offset: 0x23908, size: 0x8, addend: 0x0, symName: __ZNSt3__16vectorINS_4pairIiiEENS_9allocatorIS2_EEE21_ConstructTransactionD2B8ne180100Ev, symObjAddr: 0x3350, symBinAddr: 0x10000EB18, symSize: 0x20 }
  - { offset: 0x23930, size: 0x8, addend: 0x0, symName: __ZNKSt3__16vectorINS_4pairIiiEENS_9allocatorIS2_EEE11__recommendB8ne180100Em, symObjAddr: 0x3370, symBinAddr: 0x10000EB38, symSize: 0xB4 }
  - { offset: 0x23983, size: 0x8, addend: 0x0, symName: __ZNKSt3__16vectorINS_4pairIiiEENS_9allocatorIS2_EEE4sizeB8ne180100Ev, symObjAddr: 0x3424, symBinAddr: 0x10000EBEC, symSize: 0x28 }
  - { offset: 0x239A7, size: 0x8, addend: 0x0, symName: __ZNSt3__114__split_bufferINS_4pairIiiEERNS_9allocatorIS2_EEEC1EmmS5_, symObjAddr: 0x344C, symBinAddr: 0x10000EC14, symSize: 0x44 }
  - { offset: 0x239FB, size: 0x8, addend: 0x0, symName: __ZNSt3__114__split_bufferINS_4pairIiiEERNS_9allocatorIS2_EEED1Ev, symObjAddr: 0x35A0, symBinAddr: 0x10000ED68, symSize: 0x2C }
  - { offset: 0x23A25, size: 0x8, addend: 0x0, symName: __ZNKSt3__16vectorINS_4pairIiiEENS_9allocatorIS2_EEE8max_sizeEv, symObjAddr: 0x35CC, symBinAddr: 0x10000ED94, symSize: 0x60 }
  - { offset: 0x23A4B, size: 0x8, addend: 0x0, symName: __ZNKSt3__16vectorINS_4pairIiiEENS_9allocatorIS2_EEE20__throw_length_errorB8ne180100Ev, symObjAddr: 0x362C, symBinAddr: 0x10000EDF4, symSize: 0x1C }
  - { offset: 0x23A7A, size: 0x8, addend: 0x0, symName: __ZNSt3__116allocator_traitsINS_9allocatorINS_4pairIiiEEEEE8max_sizeB8ne180100IS4_vvEEmRKS4_, symObjAddr: 0x36B4, symBinAddr: 0x10000EE10, symSize: 0x28 }
  - { offset: 0x23AA5, size: 0x8, addend: 0x0, symName: __ZNKSt3__16vectorINS_4pairIiiEENS_9allocatorIS2_EEE7__allocB8ne180100Ev, symObjAddr: 0x36DC, symBinAddr: 0x10000EE38, symSize: 0x28 }
  - { offset: 0x23AC9, size: 0x8, addend: 0x0, symName: __ZNKSt3__117__compressed_pairIPNS_4pairIiiEENS_9allocatorIS2_EEE6secondB8ne180100Ev, symObjAddr: 0x3704, symBinAddr: 0x10000EE60, symSize: 0x24 }
  - { offset: 0x23AED, size: 0x8, addend: 0x0, symName: __ZNKSt3__122__compressed_pair_elemINS_9allocatorINS_4pairIiiEEEELi1ELb1EE5__getB8ne180100Ev, symObjAddr: 0x3728, symBinAddr: 0x10000EE84, symSize: 0x14 }
  - { offset: 0x23B11, size: 0x8, addend: 0x0, symName: __ZNSt3__114__split_bufferINS_4pairIiiEERNS_9allocatorIS2_EEEC2EmmS5_, symObjAddr: 0x37F0, symBinAddr: 0x10000EE98, symSize: 0xD4 }
  - { offset: 0x23B82, size: 0x8, addend: 0x0, symName: __ZNSt3__117__compressed_pairIPNS_4pairIiiEERNS_9allocatorIS2_EEEC1B8ne180100IDnS6_EEOT_OT0_, symObjAddr: 0x38C4, symBinAddr: 0x10000EF6C, symSize: 0x3C }
  - { offset: 0x23BD8, size: 0x8, addend: 0x0, symName: __ZNSt3__114__split_bufferINS_4pairIiiEERNS_9allocatorIS2_EEE7__allocB8ne180100Ev, symObjAddr: 0x3940, symBinAddr: 0x10000EFE8, symSize: 0x28 }
  - { offset: 0x23BFC, size: 0x8, addend: 0x0, symName: __ZNSt3__114__split_bufferINS_4pairIiiEERNS_9allocatorIS2_EEE9__end_capB8ne180100Ev, symObjAddr: 0x3968, symBinAddr: 0x10000F010, symSize: 0x28 }
  - { offset: 0x23C20, size: 0x8, addend: 0x0, symName: __ZNSt3__117__compressed_pairIPNS_4pairIiiEERNS_9allocatorIS2_EEEC2B8ne180100IDnS6_EEOT_OT0_, symObjAddr: 0x3990, symBinAddr: 0x10000F038, symSize: 0x48 }
  - { offset: 0x23C77, size: 0x8, addend: 0x0, symName: __ZNSt3__122__compressed_pair_elemIRNS_9allocatorINS_4pairIiiEEEELi1ELb0EEC2B8ne180100IS5_vEEOT_, symObjAddr: 0x39D8, symBinAddr: 0x10000F080, symSize: 0x20 }
  - { offset: 0x23CB7, size: 0x8, addend: 0x0, symName: __ZNSt3__19allocatorINS_4pairIiiEEE8allocateB8ne180100Em, symObjAddr: 0x39F8, symBinAddr: 0x10000F0A0, symSize: 0x58 }
  - { offset: 0x23CE9, size: 0x8, addend: 0x0, symName: __ZNSt3__117__compressed_pairIPNS_4pairIiiEERNS_9allocatorIS2_EEE6secondB8ne180100Ev, symObjAddr: 0x3A50, symBinAddr: 0x10000F0F8, symSize: 0x28 }
  - { offset: 0x23D0D, size: 0x8, addend: 0x0, symName: __ZNSt3__122__compressed_pair_elemIRNS_9allocatorINS_4pairIiiEEEELi1ELb0EE5__getB8ne180100Ev, symObjAddr: 0x3A78, symBinAddr: 0x10000F120, symSize: 0x18 }
  - { offset: 0x23D31, size: 0x8, addend: 0x0, symName: __ZNSt3__117__compressed_pairIPNS_4pairIiiEERNS_9allocatorIS2_EEE5firstB8ne180100Ev, symObjAddr: 0x3A90, symBinAddr: 0x10000F138, symSize: 0x24 }
  - { offset: 0x23D55, size: 0x8, addend: 0x0, symName: __ZNSt3__116reverse_iteratorIPNS_4pairIiiEEEC1B8ne180100ES3_, symObjAddr: 0x3BF0, symBinAddr: 0x10000F288, symSize: 0x34 }
  - { offset: 0x23D8B, size: 0x8, addend: 0x0, symName: __ZNKSt3__116reverse_iteratorIPNS_4pairIiiEEE4baseB8ne180100Ev, symObjAddr: 0x3C24, symBinAddr: 0x10000F2BC, symSize: 0x18 }
  - { offset: 0x23DAF, size: 0x8, addend: 0x0, symName: __ZNKSt3__16vectorINS_4pairIiiEENS_9allocatorIS2_EEE14__annotate_newB8ne180100Em, symObjAddr: 0x3C78, symBinAddr: 0x10000F310, symSize: 0x14 }
  - { offset: 0x23DE2, size: 0x8, addend: 0x0, symName: __ZNSt3__129_AllocatorDestroyRangeReverseINS_9allocatorINS_4pairIiiEEEENS_16reverse_iteratorIPS3_EEEC1B8ne180100ERS4_RS7_SA_, symObjAddr: 0x3CD8, symBinAddr: 0x10000F370, symSize: 0x44 }
  - { offset: 0x23E37, size: 0x8, addend: 0x0, symName: __ZNKSt3__116reverse_iteratorIPNS_4pairIiiEEEdeB8ne180100Ev, symObjAddr: 0x3D88, symBinAddr: 0x10000F420, symSize: 0x28 }
  - { offset: 0x23E69, size: 0x8, addend: 0x0, symName: __ZNSt3__116reverse_iteratorIPNS_4pairIiiEEEppB8ne180100Ev, symObjAddr: 0x3DB0, symBinAddr: 0x10000F448, symSize: 0x20 }
  - { offset: 0x23E8D, size: 0x8, addend: 0x0, symName: __ZNSt3__128__exception_guard_exceptionsINS_29_AllocatorDestroyRangeReverseINS_9allocatorINS_4pairIiiEEEENS_16reverse_iteratorIPS4_EEEEE10__completeB8ne180100Ev, symObjAddr: 0x3DD0, symBinAddr: 0x10000F468, symSize: 0x1C }
  - { offset: 0x23EB1, size: 0x8, addend: 0x0, symName: __ZNSt3__128__exception_guard_exceptionsINS_29_AllocatorDestroyRangeReverseINS_9allocatorINS_4pairIiiEEEENS_16reverse_iteratorIPS4_EEEEED1B8ne180100Ev, symObjAddr: 0x3DEC, symBinAddr: 0x10000F484, symSize: 0x2C }
  - { offset: 0x23ED9, size: 0x8, addend: 0x0, symName: __ZNSt3__128__exception_guard_exceptionsINS_29_AllocatorDestroyRangeReverseINS_9allocatorINS_4pairIiiEEEENS_16reverse_iteratorIPS4_EEEEEC1B8ne180100ES9_, symObjAddr: 0x3E18, symBinAddr: 0x10000F4B0, symSize: 0x34 }
  - { offset: 0x23F11, size: 0x8, addend: 0x0, symName: __ZNSt3__128__exception_guard_exceptionsINS_29_AllocatorDestroyRangeReverseINS_9allocatorINS_4pairIiiEEEENS_16reverse_iteratorIPS4_EEEEEC2B8ne180100ES9_, symObjAddr: 0x3E4C, symBinAddr: 0x10000F4E4, symSize: 0x30 }
  - { offset: 0x23F49, size: 0x8, addend: 0x0, symName: __ZNSt3__129_AllocatorDestroyRangeReverseINS_9allocatorINS_4pairIiiEEEENS_16reverse_iteratorIPS3_EEEC2B8ne180100ERS4_RS7_SA_, symObjAddr: 0x3E7C, symBinAddr: 0x10000F514, symSize: 0x38 }
  - { offset: 0x23FA4, size: 0x8, addend: 0x0, symName: __ZNSt3__119__to_address_helperINS_16reverse_iteratorIPNS_4pairIiiEEEEvE6__callB8ne180100ERKS5_, symObjAddr: 0x3EB4, symBinAddr: 0x10000F54C, symSize: 0x38 }
  - { offset: 0x23FC6, size: 0x8, addend: 0x0, symName: __ZNKSt3__116reverse_iteratorIPNS_4pairIiiEEEptB8ne180100Ev, symObjAddr: 0x3EEC, symBinAddr: 0x10000F584, symSize: 0x2C }
  - { offset: 0x23FEA, size: 0x8, addend: 0x0, symName: __ZNSt3__128__exception_guard_exceptionsINS_29_AllocatorDestroyRangeReverseINS_9allocatorINS_4pairIiiEEEENS_16reverse_iteratorIPS4_EEEEED2B8ne180100Ev, symObjAddr: 0x3FB4, symBinAddr: 0x10000F64C, symSize: 0x50 }
  - { offset: 0x24012, size: 0x8, addend: 0x0, symName: __ZNKSt3__129_AllocatorDestroyRangeReverseINS_9allocatorINS_4pairIiiEEEENS_16reverse_iteratorIPS3_EEEclB8ne180100Ev, symObjAddr: 0x4004, symBinAddr: 0x10000F69C, symSize: 0xB4 }
  - { offset: 0x24037, size: 0x8, addend: 0x0, symName: __ZNSt3__116reverse_iteratorINS0_IPNS_4pairIiiEEEEEC1B8ne180100ES4_, symObjAddr: 0x4128, symBinAddr: 0x10000F7C0, symSize: 0x3C }
  - { offset: 0x2406D, size: 0x8, addend: 0x0, symName: __ZNSt3__116reverse_iteratorINS0_IPNS_4pairIiiEEEEEppB8ne180100Ev, symObjAddr: 0x4210, symBinAddr: 0x10000F880, symSize: 0x30 }
  - { offset: 0x24091, size: 0x8, addend: 0x0, symName: __ZNKSt3__116reverse_iteratorINS0_IPNS_4pairIiiEEEEE4baseB8ne180100Ev, symObjAddr: 0x4240, symBinAddr: 0x10000F8B0, symSize: 0x24 }
  - { offset: 0x240BB, size: 0x8, addend: 0x0, symName: __ZNSt3__119__to_address_helperINS_16reverse_iteratorINS1_IPNS_4pairIiiEEEEEEvE6__callB8ne180100ERKS6_, symObjAddr: 0x4274, symBinAddr: 0x10000F8D4, symSize: 0x38 }
  - { offset: 0x240DD, size: 0x8, addend: 0x0, symName: __ZNKSt3__116reverse_iteratorINS0_IPNS_4pairIiiEEEEEptB8ne180100Ev, symObjAddr: 0x42AC, symBinAddr: 0x10000F90C, symSize: 0x4C }
  - { offset: 0x24101, size: 0x8, addend: 0x0, symName: __ZNSt3__116reverse_iteratorIPNS_4pairIiiEEEpLB8ne180100El, symObjAddr: 0x43A8, symBinAddr: 0x10000FA08, symSize: 0x30 }
  - { offset: 0x24133, size: 0x8, addend: 0x0, symName: __ZNSt3__116reverse_iteratorIPNS_4pairIiiEEEmmB8ne180100Ev, symObjAddr: 0x43D8, symBinAddr: 0x10000FA38, symSize: 0x20 }
  - { offset: 0x24158, size: 0x8, addend: 0x0, symName: __ZNSt3__116reverse_iteratorINS0_IPNS_4pairIiiEEEEEC2B8ne180100ES4_, symObjAddr: 0x43F8, symBinAddr: 0x10000FA58, symSize: 0x2C }
  - { offset: 0x2418F, size: 0x8, addend: 0x0, symName: __ZNSt3__116reverse_iteratorIPNS_4pairIiiEEEC2B8ne180100ES3_, symObjAddr: 0x4424, symBinAddr: 0x10000FA84, symSize: 0x28 }
  - { offset: 0x241C5, size: 0x8, addend: 0x0, symName: __ZNSt3__114__split_bufferINS_4pairIiiEERNS_9allocatorIS2_EEED2Ev, symObjAddr: 0x444C, symBinAddr: 0x10000FAAC, symSize: 0x8C }
  - { offset: 0x241EF, size: 0x8, addend: 0x0, symName: __ZNSt3__114__split_bufferINS_4pairIiiEERNS_9allocatorIS2_EEE5clearB8ne180100Ev, symObjAddr: 0x44D8, symBinAddr: 0x10000FB38, symSize: 0x28 }
  - { offset: 0x24213, size: 0x8, addend: 0x0, symName: __ZNKSt3__114__split_bufferINS_4pairIiiEERNS_9allocatorIS2_EEE8capacityB8ne180100Ev, symObjAddr: 0x4534, symBinAddr: 0x10000FB60, symSize: 0x40 }
  - { offset: 0x24237, size: 0x8, addend: 0x0, symName: __ZNSt3__114__split_bufferINS_4pairIiiEERNS_9allocatorIS2_EEE17__destruct_at_endB8ne180100EPS2_, symObjAddr: 0x4574, symBinAddr: 0x10000FBA0, symSize: 0x2C }
  - { offset: 0x24269, size: 0x8, addend: 0x0, symName: __ZNSt3__114__split_bufferINS_4pairIiiEERNS_9allocatorIS2_EEE17__destruct_at_endB8ne180100EPS2_NS_17integral_constantIbLb0EEE, symObjAddr: 0x45A0, symBinAddr: 0x10000FBCC, symSize: 0x80 }
  - { offset: 0x242A7, size: 0x8, addend: 0x0, symName: __ZNKSt3__114__split_bufferINS_4pairIiiEERNS_9allocatorIS2_EEE9__end_capB8ne180100Ev, symObjAddr: 0x4660, symBinAddr: 0x10000FC4C, symSize: 0x28 }
  - { offset: 0x242CB, size: 0x8, addend: 0x0, symName: __ZNKSt3__117__compressed_pairIPNS_4pairIiiEERNS_9allocatorIS2_EEE5firstB8ne180100Ev, symObjAddr: 0x4688, symBinAddr: 0x10000FC74, symSize: 0x24 }
  - { offset: 0x242F0, size: 0x8, addend: 0x0, symName: __ZNSt3__14pairIiiEC2B8ne180100IRiS3_Li0EEEOT_OT0_, symObjAddr: 0x46AC, symBinAddr: 0x10000FC98, symSize: 0x34 }
  - { offset: 0x2434C, size: 0x8, addend: 0x0, symName: __ZNKSt3__16vectorINS_4pairIiNS1_IiiEEEENS_9allocatorIS3_EEE20__throw_out_of_rangeB8ne180100Ev, symObjAddr: 0x48BC, symBinAddr: 0x10000FCCC, symSize: 0x1C }
  - { offset: 0x24393, size: 0x8, addend: 0x0, symName: __ZNKSt3__114__copy_trivialclB8ne180100IiiLi0EEENS_4pairIPT_PT0_EES4_S4_S6_, symObjAddr: 0x4B2C, symBinAddr: 0x10000FE60, symSize: 0x48 }
  - { offset: 0x243FA, size: 0x8, addend: 0x0, symName: __ZNSt3__119__unwrap_range_implIPiS1_E8__unwrapB8ne180100ES1_S1_, symObjAddr: 0x4C38, symBinAddr: 0x10000FF0C, symSize: 0x58 }
  - { offset: 0x2442F, size: 0x8, addend: 0x0, symName: __ZNSt3__14pairIPiS1_EC1B8ne180100IS1_S1_Li0EEEOT_OT0_, symObjAddr: 0x4C90, symBinAddr: 0x10000FF64, symSize: 0x3C }
  - { offset: 0x2448C, size: 0x8, addend: 0x0, symName: __ZNSt3__14pairIPiS1_EC2B8ne180100IS1_S1_Li0EEEOT_OT0_, symObjAddr: 0x4CCC, symBinAddr: 0x10000FFA0, symSize: 0x34 }
  - { offset: 0x244ED, size: 0x8, addend: 0x0, symName: __ZNSt3__14pairIPiS1_EC1B8ne180100IRS1_S1_Li0EEEOT_OT0_, symObjAddr: 0x4E1C, symBinAddr: 0x1000100F0, symSize: 0x3C }
  - { offset: 0x2454A, size: 0x8, addend: 0x0, symName: __ZNSt3__14pairIPiS1_EC2B8ne180100IRS1_S1_Li0EEEOT_OT0_, symObjAddr: 0x4E58, symBinAddr: 0x10001012C, symSize: 0x34 }
  - { offset: 0x245A7, size: 0x8, addend: 0x0, symName: __ZNSt3__119__unwrap_range_implIPiS1_E8__rewrapB8ne180100ES1_S1_, symObjAddr: 0x4EC4, symBinAddr: 0x100010160, symSize: 0x2C }
  - { offset: 0x245D8, size: 0x8, addend: 0x0, symName: __ZNSt3__111char_traitsIcE6lengthB8ne180100EPKc, symObjAddr: 0x512C, symBinAddr: 0x100010378, symSize: 0x34 }
  - { offset: 0x24618, size: 0x8, addend: 0x0, symName: __ZNKSt3__113basic_ostreamIcNS_11char_traitsIcEEE6sentrycvbB8ne180100Ev, symObjAddr: 0x5160, symBinAddr: 0x1000103AC, symSize: 0x1C }
  - { offset: 0x2463C, size: 0x8, addend: 0x0, symName: __ZNSt3__119ostreambuf_iteratorIcNS_11char_traitsIcEEEC1B8ne180100ERNS_13basic_ostreamIcS2_EE, symObjAddr: 0x53BC, symBinAddr: 0x100010608, symSize: 0x34 }
  - { offset: 0x24672, size: 0x8, addend: 0x0, symName: __ZNKSt3__18ios_base5flagsB8ne180100Ev, symObjAddr: 0x53F0, symBinAddr: 0x10001063C, symSize: 0x18 }
  - { offset: 0x24698, size: 0x8, addend: 0x0, symName: __ZNKSt3__19basic_iosIcNS_11char_traitsIcEEE4fillB8ne180100Ev, symObjAddr: 0x5408, symBinAddr: 0x100010654, symSize: 0x64 }
  - { offset: 0x246BE, size: 0x8, addend: 0x0, symName: __ZNKSt3__119ostreambuf_iteratorIcNS_11char_traitsIcEEE6failedB8ne180100Ev, symObjAddr: 0x546C, symBinAddr: 0x1000106B8, symSize: 0x24 }
  - { offset: 0x246E2, size: 0x8, addend: 0x0, symName: __ZNSt3__19basic_iosIcNS_11char_traitsIcEEE8setstateB8ne180100Ej, symObjAddr: 0x5490, symBinAddr: 0x1000106DC, symSize: 0x2C }
  - { offset: 0x24715, size: 0x8, addend: 0x0, symName: __ZNKSt3__18ios_base5widthB8ne180100Ev, symObjAddr: 0x54BC, symBinAddr: 0x100010708, symSize: 0x18 }
  - { offset: 0x2473B, size: 0x8, addend: 0x0, symName: __ZNSt3__115basic_streambufIcNS_11char_traitsIcEEE5sputnB8ne180100EPKcl, symObjAddr: 0x54D4, symBinAddr: 0x100010720, symSize: 0x3C }
  - { offset: 0x2477B, size: 0x8, addend: 0x0, symName: __ZNSt3__112basic_stringIcNS_11char_traitsIcEENS_9allocatorIcEEEC1B8ne180100Emc, symObjAddr: 0x5510, symBinAddr: 0x10001075C, symSize: 0x3C }
  - { offset: 0x247C1, size: 0x8, addend: 0x0, symName: __ZNSt3__112basic_stringIcNS_11char_traitsIcEENS_9allocatorIcEEE4dataB8ne180100Ev, symObjAddr: 0x554C, symBinAddr: 0x100010798, symSize: 0x28 }
  - { offset: 0x247E5, size: 0x8, addend: 0x0, symName: __ZNSt3__18ios_base5widthB8ne180100El, symObjAddr: 0x5574, symBinAddr: 0x1000107C0, symSize: 0x2C }
  - { offset: 0x24829, size: 0x8, addend: 0x0, symName: __ZNSt3__112basic_stringIcNS_11char_traitsIcEENS_9allocatorIcEEEC2B8ne180100Emc, symObjAddr: 0x55A0, symBinAddr: 0x1000107EC, symSize: 0x4C }
  - { offset: 0x2486F, size: 0x8, addend: 0x0, symName: __ZNSt3__117__compressed_pairINS_12basic_stringIcNS_11char_traitsIcEENS_9allocatorIcEEE5__repES5_EC1B8ne180100INS_18__default_init_tagESA_EEOT_OT0_, symObjAddr: 0x55EC, symBinAddr: 0x100010838, symSize: 0x3C }
  - { offset: 0x248C5, size: 0x8, addend: 0x0, symName: __ZNSt3__117__compressed_pairINS_12basic_stringIcNS_11char_traitsIcEENS_9allocatorIcEEE5__repES5_EC2B8ne180100INS_18__default_init_tagESA_EEOT_OT0_, symObjAddr: 0x5628, symBinAddr: 0x100010874, symSize: 0x3C }
  - { offset: 0x2491C, size: 0x8, addend: 0x0, symName: __ZNSt3__122__compressed_pair_elemINS_12basic_stringIcNS_11char_traitsIcEENS_9allocatorIcEEE5__repELi0ELb0EEC2B8ne180100ENS_18__default_init_tagE, symObjAddr: 0x5664, symBinAddr: 0x1000108B0, symSize: 0x14 }
  - { offset: 0x2494E, size: 0x8, addend: 0x0, symName: __ZNSt3__122__compressed_pair_elemINS_9allocatorIcEELi1ELb1EEC2B8ne180100ENS_18__default_init_tagE, symObjAddr: 0x5678, symBinAddr: 0x1000108C4, symSize: 0x2C }
  - { offset: 0x24980, size: 0x8, addend: 0x0, symName: __ZNSt3__19allocatorIcEC2B8ne180100Ev, symObjAddr: 0x56A4, symBinAddr: 0x1000108F0, symSize: 0x2C }
  - { offset: 0x249A9, size: 0x8, addend: 0x0, symName: __ZNSt3__116__non_trivial_ifILb1ENS_9allocatorIcEEEC2B8ne180100Ev, symObjAddr: 0x56D0, symBinAddr: 0x10001091C, symSize: 0x14 }
  - { offset: 0x249D1, size: 0x8, addend: 0x0, symName: __ZNSt3__112basic_stringIcNS_11char_traitsIcEENS_9allocatorIcEEE13__get_pointerB8ne180100Ev, symObjAddr: 0x56F8, symBinAddr: 0x100010944, symSize: 0x54 }
  - { offset: 0x249F5, size: 0x8, addend: 0x0, symName: __ZNKSt3__112basic_stringIcNS_11char_traitsIcEENS_9allocatorIcEEE9__is_longB8ne180100Ev, symObjAddr: 0x574C, symBinAddr: 0x100010998, symSize: 0x38 }
  - { offset: 0x24A19, size: 0x8, addend: 0x0, symName: __ZNSt3__112basic_stringIcNS_11char_traitsIcEENS_9allocatorIcEEE18__get_long_pointerB8ne180100Ev, symObjAddr: 0x5784, symBinAddr: 0x1000109D0, symSize: 0x28 }
  - { offset: 0x24A3D, size: 0x8, addend: 0x0, symName: __ZNSt3__112basic_stringIcNS_11char_traitsIcEENS_9allocatorIcEEE19__get_short_pointerB8ne180100Ev, symObjAddr: 0x57AC, symBinAddr: 0x1000109F8, symSize: 0x28 }
  - { offset: 0x24A61, size: 0x8, addend: 0x0, symName: __ZNKSt3__117__compressed_pairINS_12basic_stringIcNS_11char_traitsIcEENS_9allocatorIcEEE5__repES5_E5firstB8ne180100Ev, symObjAddr: 0x57D4, symBinAddr: 0x100010A20, symSize: 0x24 }
  - { offset: 0x24A85, size: 0x8, addend: 0x0, symName: __ZNKSt3__122__compressed_pair_elemINS_12basic_stringIcNS_11char_traitsIcEENS_9allocatorIcEEE5__repELi0ELb0EE5__getB8ne180100Ev, symObjAddr: 0x57F8, symBinAddr: 0x100010A44, symSize: 0x14 }
  - { offset: 0x24AA9, size: 0x8, addend: 0x0, symName: __ZNSt3__117__compressed_pairINS_12basic_stringIcNS_11char_traitsIcEENS_9allocatorIcEEE5__repES5_E5firstB8ne180100Ev, symObjAddr: 0x580C, symBinAddr: 0x100010A58, symSize: 0x24 }
  - { offset: 0x24ACD, size: 0x8, addend: 0x0, symName: __ZNSt3__122__compressed_pair_elemINS_12basic_stringIcNS_11char_traitsIcEENS_9allocatorIcEEE5__repELi0ELb0EE5__getB8ne180100Ev, symObjAddr: 0x5830, symBinAddr: 0x100010A7C, symSize: 0x14 }
  - { offset: 0x24AF2, size: 0x8, addend: 0x0, symName: __ZNSt3__114pointer_traitsIPcE10pointer_toB8ne180100ERc, symObjAddr: 0x5844, symBinAddr: 0x100010A90, symSize: 0x14 }
  - { offset: 0x24B14, size: 0x8, addend: 0x0, symName: __ZNSt3__119ostreambuf_iteratorIcNS_11char_traitsIcEEEC2B8ne180100ERNS_13basic_ostreamIcS2_EE, symObjAddr: 0x5858, symBinAddr: 0x100010AA4, symSize: 0x54 }
  - { offset: 0x24B4A, size: 0x8, addend: 0x0, symName: __ZNKSt3__19basic_iosIcNS_11char_traitsIcEEE5rdbufB8ne180100Ev, symObjAddr: 0x58AC, symBinAddr: 0x100010AF8, symSize: 0x24 }
  - { offset: 0x24B70, size: 0x8, addend: 0x0, symName: __ZNKSt3__18ios_base5rdbufB8ne180100Ev, symObjAddr: 0x58D0, symBinAddr: 0x100010B1C, symSize: 0x18 }
  - { offset: 0x24B95, size: 0x8, addend: 0x0, symName: __ZNSt3__111char_traitsIcE11eq_int_typeB8ne180100Eii, symObjAddr: 0x58E8, symBinAddr: 0x100010B34, symSize: 0x28 }
  - { offset: 0x24BC8, size: 0x8, addend: 0x0, symName: __ZNSt3__111char_traitsIcE3eofB8ne180100Ev, symObjAddr: 0x5910, symBinAddr: 0x100010B5C, symSize: 0x8 }
  - { offset: 0x24BDB, size: 0x8, addend: 0x0, symName: __ZNKSt3__19basic_iosIcNS_11char_traitsIcEEE5widenB8ne180100Ec, symObjAddr: 0x5918, symBinAddr: 0x100010B64, symSize: 0x84 }
  - { offset: 0x24C42, size: 0x8, addend: 0x0, symName: __ZNKSt3__15ctypeIcE5widenB8ne180100Ec, symObjAddr: 0x59C8, symBinAddr: 0x100010C14, symSize: 0x38 }
  - { offset: 0x24C75, size: 0x8, addend: 0x0, symName: __ZNSt3__18ios_base8setstateB8ne180100Ej, symObjAddr: 0x5A00, symBinAddr: 0x100010C4C, symSize: 0x34 }
  - { offset: 0x34889, size: 0x8, addend: 0x0, symName: __ZNSt3__16copy_nB8ne180100IPKcmPcLi0EEET1_T_T0_S4_, symObjAddr: 0x3404, symBinAddr: 0x1000137EC, symSize: 0x44 }
  - { offset: 0x35332, size: 0x8, addend: 0x0, symName: __ZNSt3__16chronomiB8ne180100IxNS_5ratioILl1ELl1000000000EEExS3_EENS_11common_typeIJNS0_8durationIT_T0_EENS5_IT1_T2_EEEE4typeERKS8_RKSB_, symObjAddr: 0x4180, symBinAddr: 0x100013FD0, symSize: 0x6C }
  - { offset: 0x357D5, size: 0x8, addend: 0x0, symName: __ZNSt3__16chronomiB8ne180100INS0_12steady_clockENS0_8durationIxNS_5ratioILl1ELl1000000000EEEEES6_EENS_11common_typeIJT0_T1_EE4typeERKNS0_10time_pointIT_S8_EERKNSC_ISD_S9_EE, symObjAddr: 0x1CD4, symBinAddr: 0x100012764, symSize: 0x58 }
  - { offset: 0x3591E, size: 0x8, addend: 0x0, symName: __ZNSt3__16chrono13duration_castB8ne180100INS0_8durationIdNS_5ratioILl1ELl1EEEEExNS3_ILl1ELl1000000000EEELi0EEET_RKNS2_IT0_T1_EE, symObjAddr: 0x42C0, symBinAddr: 0x100014110, symSize: 0x30 }
  - { offset: 0x373C2, size: 0x8, addend: 0x0, symName: __ZNSt3__17advanceB8ne180100IPNS_4pairIixEEllvEEvRT_T0_, symObjAddr: 0x598C, symBinAddr: 0x1000152B0, symSize: 0x38 }
  - { offset: 0x37642, size: 0x8, addend: 0x0, symName: __ZNSt3__17advanceB8ne180100INS_16reverse_iteratorIPNS_4pairIixEEEEllvEEvRT_T0_, symObjAddr: 0x5D90, symBinAddr: 0x1000156A0, symSize: 0x38 }
  - { offset: 0x3827B, size: 0x8, addend: 0x0, symName: __ZNSt3__1lsB8ne180100IcNS_11char_traitsIcEENS_9allocatorIcEEEERNS_13basic_ostreamIT_T0_EES9_RKNS_12basic_stringIS6_S7_T1_EE, symObjAddr: 0x120, symBinAddr: 0x100010D7C, symSize: 0x4C }
  - { offset: 0x38D4D, size: 0x8, addend: 0x0, symName: __ZNSt3__1lsB8ne180100IcNS_11char_traitsIcEEEERNS_13basic_ostreamIT_T0_EES7_RKNS_8__iom_t5E, symObjAddr: 0x9BC, symBinAddr: 0x10001156C, symSize: 0x40 }
  - { offset: 0x38D99, size: 0x8, addend: 0x0, symName: __ZNSt3__15fixedB8ne180100ERNS_8ios_baseE, symObjAddr: 0xA3C, symBinAddr: 0x1000115EC, symSize: 0x30 }
  - { offset: 0x38DC7, size: 0x8, addend: 0x0, symName: __ZNSt3__112setprecisionB8ne180100Ei, symObjAddr: 0xA6C, symBinAddr: 0x10001161C, symSize: 0x2C }
  - { offset: 0x38DF3, size: 0x8, addend: 0x0, symName: __ZNSt3__1eqB8ne180100IcNS_11char_traitsIcEENS_9allocatorIcEEEEbRKNS_12basic_stringIT_T0_T1_EEPKS6_, symObjAddr: 0x197C, symBinAddr: 0x100012504, symSize: 0x5C }
  - { offset: 0x38E4B, size: 0x8, addend: 0x0, symName: __ZNSt3__1plB8ne180100IcNS_11char_traitsIcEENS_9allocatorIcEEEENS_12basic_stringIT_T0_T1_EERKS9_PKS6_, symObjAddr: 0x1AC0, symBinAddr: 0x100012648, symSize: 0x11C }
  - { offset: 0x38EEC, size: 0x8, addend: 0x0, symName: __ZNSt3__1eqB8ne180100IcNS_11char_traitsIcEEEEbNS_17basic_string_viewIT_T0_EENS_13type_identityIS6_E4typeE, symObjAddr: 0x2260, symBinAddr: 0x100012B50, symSize: 0xB0 }
  - { offset: 0x38F3B, size: 0x8, addend: 0x0, symName: __ZNSt3__112__to_addressB8ne180100IKcEEPT_S3_, symObjAddr: 0x26A0, symBinAddr: 0x100012EDC, symSize: 0x14 }
  - { offset: 0x38FA3, size: 0x8, addend: 0x0, symName: __ZNSt3__128__char_traits_length_checkedB8ne180100INS_11char_traitsIcEEEEmPKNT_9char_typeE, symObjAddr: 0x28A8, symBinAddr: 0x100013074, symSize: 0x24 }
  - { offset: 0x38FDA, size: 0x8, addend: 0x0, symName: __ZNSt3__14copyB8ne180100IPKcPcEET0_T_S5_S4_, symObjAddr: 0x3448, symBinAddr: 0x100013830, symSize: 0x40 }
  - { offset: 0x39034, size: 0x8, addend: 0x0, symName: __ZNSt3__16__copyB8ne180100INS_17_ClassicAlgPolicyEPKcS3_PcEENS_4pairIT0_T2_EES6_T1_S7_, symObjAddr: 0x3488, symBinAddr: 0x100013870, symSize: 0x44 }
  - { offset: 0x390A0, size: 0x8, addend: 0x0, symName: __ZNSt3__123__dispatch_copy_or_moveB8ne180100INS_17_ClassicAlgPolicyENS_11__copy_loopIS1_EENS_14__copy_trivialEPKcS6_PcEENS_4pairIT2_T4_EES9_T3_SA_, symObjAddr: 0x34CC, symBinAddr: 0x1000138B4, symSize: 0x44 }
  - { offset: 0x3911E, size: 0x8, addend: 0x0, symName: __ZNSt3__121__unwrap_and_dispatchB8ne180100INS_10__overloadINS_11__copy_loopINS_17_ClassicAlgPolicyEEENS_14__copy_trivialEEEPKcS8_PcLi0EEENS_4pairIT0_T2_EESB_T1_SC_, symObjAddr: 0x3510, symBinAddr: 0x1000138F8, symSize: 0xB4 }
  - { offset: 0x391AC, size: 0x8, addend: 0x0, symName: __ZNSt3__114__unwrap_rangeB8ne180100IPKcS2_EEDaT_T0_, symObjAddr: 0x35C4, symBinAddr: 0x1000139AC, symSize: 0x3C }
  - { offset: 0x39341, size: 0x8, addend: 0x0, symName: __ZNSt3__113__unwrap_iterB8ne180100IPcNS_18__unwrap_iter_implIS1_Lb1EEELi0EEEDTclsrT0_8__unwrapclsr3stdE7declvalIT_EEEES5_, symObjAddr: 0x3648, symBinAddr: 0x100013A30, symSize: 0x24 }
  - { offset: 0x39385, size: 0x8, addend: 0x0, symName: __ZNSt3__19make_pairB8ne180100IPKcPcEENS_4pairINS_18__unwrap_ref_decayIT_E4typeENS5_IT0_E4typeEEEOS6_OS9_, symObjAddr: 0x366C, symBinAddr: 0x100013A54, symSize: 0x38 }
  - { offset: 0x393D4, size: 0x8, addend: 0x0, symName: __ZNSt3__114__rewrap_rangeB8ne180100IPKcS2_S2_EET0_S3_T1_, symObjAddr: 0x36A4, symBinAddr: 0x100013A8C, symSize: 0x2C }
  - { offset: 0x39429, size: 0x8, addend: 0x0, symName: __ZNSt3__113__rewrap_iterB8ne180100IPcS1_NS_18__unwrap_iter_implIS1_Lb1EEEEET_S4_T0_, symObjAddr: 0x36D0, symBinAddr: 0x100013AB8, symSize: 0x3C }
  - { offset: 0x3959A, size: 0x8, addend: 0x0, symName: __ZNSt3__113__unwrap_iterB8ne180100IPKcNS_18__unwrap_iter_implIS2_Lb1EEELi0EEEDTclsrT0_8__unwrapclsr3stdE7declvalIT_EEEES6_, symObjAddr: 0x3764, symBinAddr: 0x100013B4C, symSize: 0x24 }
  - { offset: 0x39631, size: 0x8, addend: 0x0, symName: __ZNSt3__119__copy_trivial_implB8ne180100IKccEENS_4pairIPT_PT0_EES4_S4_S6_, symObjAddr: 0x381C, symBinAddr: 0x100013C04, symSize: 0x78 }
  - { offset: 0x39699, size: 0x8, addend: 0x0, symName: __ZNSt3__119__constexpr_memmoveB8ne180100IcKcLi0EEEPT_S3_PT0_NS_15__element_countE, symObjAddr: 0x3894, symBinAddr: 0x100013C7C, symSize: 0x64 }
  - { offset: 0x39707, size: 0x8, addend: 0x0, symName: __ZNSt3__19make_pairB8ne180100IRPKcPcEENS_4pairINS_18__unwrap_ref_decayIT_E4typeENS6_IT0_E4typeEEEOS7_OSA_, symObjAddr: 0x38F8, symBinAddr: 0x100013CE0, symSize: 0x38 }
  - { offset: 0x397A9, size: 0x8, addend: 0x0, symName: __ZNSt3__113__rewrap_iterB8ne180100IPKcS2_NS_18__unwrap_iter_implIS2_Lb1EEEEET_S5_T0_, symObjAddr: 0x3A60, symBinAddr: 0x100013E48, symSize: 0x3C }
  - { offset: 0x397FE, size: 0x8, addend: 0x0, symName: __ZNSt3__16fill_nB8ne180100IPcmcEET_S2_T0_RKT1_, symObjAddr: 0x3B2C, symBinAddr: 0x100013F14, symSize: 0x44 }
  - { offset: 0x39861, size: 0x8, addend: 0x0, symName: __ZNSt3__18__fill_nB8ne180100IPcmcEET_S2_T0_RKT1_, symObjAddr: 0x3B70, symBinAddr: 0x100013F58, symSize: 0x64 }
  - { offset: 0x398C4, size: 0x8, addend: 0x0, symName: __ZNSt3__121__convert_to_integralB8ne180100Em, symObjAddr: 0x3BD4, symBinAddr: 0x100013FBC, symSize: 0x14 }
  - { offset: 0x398F0, size: 0x8, addend: 0x0, symName: __ZNSt3__112__to_addressB8ne180100INS_4pairIixEEEEPT_S4_, symObjAddr: 0x4BE0, symBinAddr: 0x1000145A0, symSize: 0x14 }
  - { offset: 0x39925, size: 0x8, addend: 0x0, symName: __ZNSt3__114__construct_atB8ne180100INS_4pairIixEEJRKS2_EPS2_EEPT_S7_DpOT0_, symObjAddr: 0x4C64, symBinAddr: 0x100014624, symSize: 0x2C }
  - { offset: 0x39978, size: 0x8, addend: 0x0, symName: __ZNSt3__112construct_atB8ne180100INS_4pairIixEEJRKS2_EPS2_EEPT_S7_DpOT0_, symObjAddr: 0x4C90, symBinAddr: 0x100014650, symSize: 0x24 }
  - { offset: 0x399CB, size: 0x8, addend: 0x0, symName: __ZNSt3__119__allocate_at_leastB8ne180100INS_9allocatorINS_4pairIixEEEEEENS_19__allocation_resultINS_16allocator_traitsIT_E7pointerEEERS7_m, symObjAddr: 0x52B8, symBinAddr: 0x100014BDC, symSize: 0x40 }
  - { offset: 0x39A0E, size: 0x8, addend: 0x0, symName: __ZNSt3__142__uninitialized_allocator_move_if_noexceptB8ne180100INS_9allocatorINS_4pairIixEEEENS_16reverse_iteratorIPS3_EES7_S7_EET2_RT_T0_T1_S8_, symObjAddr: 0x547C, symBinAddr: 0x100014DA0, symSize: 0x12C }
  - { offset: 0x39AAE, size: 0x8, addend: 0x0, symName: __ZNSt3__14swapB8ne180100IPNS_4pairIixEEEENS_9enable_ifIXaasr21is_move_constructibleIT_EE5valuesr18is_move_assignableIS5_EE5valueEvE4typeERS5_S8_, symObjAddr: 0x55F4, symBinAddr: 0x100014F18, symSize: 0x3C }
  - { offset: 0x39AFF, size: 0x8, addend: 0x0, symName: __ZNSt3__122__make_exception_guardB8ne180100INS_29_AllocatorDestroyRangeReverseINS_9allocatorINS_4pairIixEEEENS_16reverse_iteratorIPS4_EEEEEENS_28__exception_guard_exceptionsIT_EESB_, symObjAddr: 0x5644, symBinAddr: 0x100014F68, symSize: 0x4C }
  - { offset: 0x39B35, size: 0x8, addend: 0x0, symName: __ZNSt3__1neB8ne180100IPNS_4pairIixEES3_EEbRKNS_16reverse_iteratorIT_EERKNS4_IT0_EE, symObjAddr: 0x56D4, symBinAddr: 0x100014FF8, symSize: 0x48 }
  - { offset: 0x39B81, size: 0x8, addend: 0x0, symName: __ZNSt3__112__to_addressB8ne180100INS_16reverse_iteratorIPNS_4pairIixEEEEvEEu7__decayIDTclsr19__to_address_helperIT_EE6__callclsr3stdE7declvalIRKS6_EEEEES8_, symObjAddr: 0x574C, symBinAddr: 0x100015070, symSize: 0x24 }
  - { offset: 0x39BB7, size: 0x8, addend: 0x0, symName: __ZNSt3__114__construct_atB8ne180100INS_4pairIixEEJS2_EPS2_EEPT_S5_DpOT0_, symObjAddr: 0x589C, symBinAddr: 0x1000151C0, symSize: 0x2C }
  - { offset: 0x39C0A, size: 0x8, addend: 0x0, symName: __ZNSt3__112construct_atB8ne180100INS_4pairIixEEJS2_EPS2_EEPT_S5_DpOT0_, symObjAddr: 0x58C8, symBinAddr: 0x1000151EC, symSize: 0x24 }
  - { offset: 0x39C86, size: 0x8, addend: 0x0, symName: __ZNSt3__14prevB8ne180100IPNS_4pairIixEELi0EEET_S4_NS_15iterator_traitsIS4_E15difference_typeE, symObjAddr: 0x5950, symBinAddr: 0x100015274, symSize: 0x3C }
  - { offset: 0x39CCF, size: 0x8, addend: 0x0, symName: __ZNSt3__19__advanceB8ne180100IPNS_4pairIixEEEEvRT_NS_15iterator_traitsIS4_E15difference_typeENS_26random_access_iterator_tagE, symObjAddr: 0x59D8, symBinAddr: 0x1000152E8, symSize: 0x28 }
  - { offset: 0x39D18, size: 0x8, addend: 0x0, symName: __ZNSt3__119__allocator_destroyB8ne180100INS_9allocatorINS_4pairIixEEEENS_16reverse_iteratorINS5_IPS3_EEEES8_EEvRT_T0_T1_, symObjAddr: 0x5B04, symBinAddr: 0x100015414, symSize: 0x70 }
  - { offset: 0x39D7D, size: 0x8, addend: 0x0, symName: __ZNSt3__1neB8ne180100INS_16reverse_iteratorIPNS_4pairIixEEEES5_EEbRKNS1_IT_EERKNS1_IT0_EE, symObjAddr: 0x5BB0, symBinAddr: 0x1000154C0, symSize: 0x60 }
  - { offset: 0x39DC9, size: 0x8, addend: 0x0, symName: __ZNSt3__112__to_addressB8ne180100INS_16reverse_iteratorINS1_IPNS_4pairIixEEEEEEvEEu7__decayIDTclsr19__to_address_helperIT_EE6__callclsr3stdE7declvalIRKS7_EEEEES9_, symObjAddr: 0x5C38, symBinAddr: 0x100015548, symSize: 0x24 }
  - { offset: 0x39DFF, size: 0x8, addend: 0x0, symName: __ZNSt3__112__destroy_atB8ne180100INS_4pairIixEELi0EEEvPT_, symObjAddr: 0x5CB0, symBinAddr: 0x1000155C0, symSize: 0x10 }
  - { offset: 0x39E5F, size: 0x8, addend: 0x0, symName: __ZNSt3__14prevB8ne180100INS_16reverse_iteratorIPNS_4pairIixEEEELi0EEET_S6_NS_15iterator_traitsIS6_E15difference_typeE, symObjAddr: 0x5D44, symBinAddr: 0x100015654, symSize: 0x4C }
  - { offset: 0x39EA8, size: 0x8, addend: 0x0, symName: __ZNSt3__19__advanceB8ne180100INS_16reverse_iteratorIPNS_4pairIixEEEEEEvRT_NS_15iterator_traitsIS6_E15difference_typeENS_26random_access_iterator_tagE, symObjAddr: 0x5DC8, symBinAddr: 0x1000156D8, symSize: 0x2C }
  - { offset: 0x3C390, size: 0x8, addend: 0x0, symName: __ZNKSt3__16chrono15__duration_castINS0_8durationIxNS_5ratioILl1ELl1000000000EEEEENS2_IdNS3_ILl1ELl1EEEEES4_Lb1ELb0EEclB8ne180100ERKS5_, symObjAddr: 0x42F0, symBinAddr: 0x100014140, symSize: 0x4C }
  - { offset: 0x3C53F, size: 0x8, addend: 0x0, symName: __ZNSt3__16vectorINS_4pairIixEENS_9allocatorIS2_EEE26__swap_out_circular_bufferERNS_14__split_bufferIS2_RS4_EE, symObjAddr: 0x4E2C, symBinAddr: 0x1000147EC, symSize: 0x110 }
  - { offset: 0x3C69D, size: 0x8, addend: 0x0, symName: __Z10printUsageRKNSt3__112basic_stringIcNS_11char_traitsIcEENS_9allocatorIcEEEE, symObjAddr: 0x0, symBinAddr: 0x100010CA4, symSize: 0xD8 }
  - { offset: 0x3C6C5, size: 0x8, addend: 0x0, symName: __Z17saveSSSPDistancesRKNSt3__112basic_stringIcNS_11char_traitsIcEENS_9allocatorIcEEEEiRKNS_6vectorIxNS3_IxEEEE, symObjAddr: 0x16C, symBinAddr: 0x100010DC8, symSize: 0x254 }
  - { offset: 0x3C976, size: 0x8, addend: 0x0, symName: __ZNSt3__114basic_ofstreamIcNS_11char_traitsIcEEEC1ERKNS_12basic_stringIcS2_NS_9allocatorIcEEEEj, symObjAddr: 0x3C0, symBinAddr: 0x10001101C, symSize: 0x164 }
  - { offset: 0x3C9BE, size: 0x8, addend: 0x0, symName: __ZNKSt3__114basic_ofstreamIcNS_11char_traitsIcEEE7is_openEv, symObjAddr: 0x524, symBinAddr: 0x100011180, symSize: 0x2C }
  - { offset: 0x3C9E4, size: 0x8, addend: 0x0, symName: __ZNKSt3__16vectorIxNS_9allocatorIxEEEixB8ne180100Em, symObjAddr: 0x5FC, symBinAddr: 0x1000111AC, symSize: 0x24 }
  - { offset: 0x3CA1A, size: 0x8, addend: 0x0, symName: __ZNSt3__114numeric_limitsIxE3maxB8ne180100Ev, symObjAddr: 0x620, symBinAddr: 0x1000111D0, symSize: 0x14 }
  - { offset: 0x3CA33, size: 0x8, addend: 0x0, symName: __ZNSt3__114basic_ofstreamIcNS_11char_traitsIcEEED1Ev, symObjAddr: 0x634, symBinAddr: 0x1000111E4, symSize: 0x40 }
  - { offset: 0x3CA5E, size: 0x8, addend: 0x0, symName: __Z13saveP2PResultRKNSt3__112basic_stringIcNS_11char_traitsIcEENS_9allocatorIcEEEERKNS_6vectorINS_4pairIiiEENS3_ISA_EEEERKNS8_INS9_IixEENS3_ISF_EEEEd, symObjAddr: 0x674, symBinAddr: 0x100011224, symSize: 0x348 }
  - { offset: 0x3CB1B, size: 0x8, addend: 0x0, symName: __ZNSt3__113basic_ostreamIcNS_11char_traitsIcEEElsB8ne180100EPFRNS_8ios_baseES5_E, symObjAddr: 0x9FC, symBinAddr: 0x1000115AC, symSize: 0x40 }
  - { offset: 0x3CB4D, size: 0x8, addend: 0x0, symName: __ZNKSt3__16vectorINS_4pairIiiEENS_9allocatorIS2_EEEixB8ne180100Em, symObjAddr: 0xAC0, symBinAddr: 0x100011648, symSize: 0x24 }
  - { offset: 0x3CB82, size: 0x8, addend: 0x0, symName: __ZNKSt3__16vectorINS_4pairIixEENS_9allocatorIS2_EEEixB8ne180100Em, symObjAddr: 0xAE4, symBinAddr: 0x10001166C, symSize: 0x24 }
  - { offset: 0x3CBB8, size: 0x8, addend: 0x0, symName: _main, symObjAddr: 0xB08, symBinAddr: 0x100011690, symSize: 0xE48 }
  - { offset: 0x3CE1F, size: 0x8, addend: 0x0, symName: __ZNSt3__112basic_stringIcNS_11char_traitsIcEENS_9allocatorIcEEEC1B8ne180100Ev, symObjAddr: 0x1950, symBinAddr: 0x1000124D8, symSize: 0x2C }
  - { offset: 0x3CE4C, size: 0x8, addend: 0x0, symName: __ZNSt3__112basic_stringIcNS_11char_traitsIcEENS_9allocatorIcEEEC1B8ne180100ILi0EEEPKc, symObjAddr: 0x19D8, symBinAddr: 0x100012560, symSize: 0x34 }
  - { offset: 0x3CE89, size: 0x8, addend: 0x0, symName: __ZNSt3__112basic_stringIcNS_11char_traitsIcEENS_9allocatorIcEEEaSB8ne180100EPKc, symObjAddr: 0x1A0C, symBinAddr: 0x100012594, symSize: 0x2C }
  - { offset: 0x3CEBC, size: 0x8, addend: 0x0, symName: __ZNKSt3__112basic_stringIcNS_11char_traitsIcEENS_9allocatorIcEEE5emptyB8ne180100Ev, symObjAddr: 0x1A38, symBinAddr: 0x1000125C0, symSize: 0x30 }
  - { offset: 0x3CEE0, size: 0x8, addend: 0x0, symName: __ZNSt3__114basic_ofstreamIcNS_11char_traitsIcEEE5closeEv, symObjAddr: 0x1A68, symBinAddr: 0x1000125F0, symSize: 0x58 }
  - { offset: 0x3CF06, size: 0x8, addend: 0x0, symName: __ZNSt3__16chrono8durationIdNS_5ratioILl1ELl1EEEEC1B8ne180100IxNS2_ILl1ELl1000000000EEELi0EEERKNS1_IT_T0_EE, symObjAddr: 0x1D2C, symBinAddr: 0x1000127BC, symSize: 0x34 }
  - { offset: 0x3CF54, size: 0x8, addend: 0x0, symName: __ZNKSt3__16chrono8durationIdNS_5ratioILl1ELl1EEEE5countB8ne180100Ev, symObjAddr: 0x1D60, symBinAddr: 0x1000127F0, symSize: 0x18 }
  - { offset: 0x3CF78, size: 0x8, addend: 0x0, symName: __ZNSt3__16vectorINS_4pairIixEENS_9allocatorIS2_EEEC1B8ne180100Ev, symObjAddr: 0x1DA4, symBinAddr: 0x100012808, symSize: 0x2C }
  - { offset: 0x3CFA0, size: 0x8, addend: 0x0, symName: __ZNSt3__16vectorINS_4pairIixEENS_9allocatorIS2_EEE9push_backB8ne180100ERKS2_, symObjAddr: 0x1E7C, symBinAddr: 0x100012834, symSize: 0x90 }
  - { offset: 0x3CFE4, size: 0x8, addend: 0x0, symName: __ZNSt3__16vectorINS_4pairIixEENS_9allocatorIS2_EEED1B8ne180100Ev, symObjAddr: 0x1F2C, symBinAddr: 0x1000128C4, symSize: 0x2C }
  - { offset: 0x3D00D, size: 0x8, addend: 0x0, symName: __ZNSt3__123__libcpp_numeric_limitsIxLb1EE3maxB8ne180100Ev, symObjAddr: 0x1F94, symBinAddr: 0x1000128F0, symSize: 0x8 }
  - { offset: 0x3D021, size: 0x8, addend: 0x0, symName: __ZNSt3__114basic_ofstreamIcNS_11char_traitsIcEEED2Ev, symObjAddr: 0x1F9C, symBinAddr: 0x1000128F8, symSize: 0x64 }
  - { offset: 0x3D059, size: 0x8, addend: 0x0, symName: __ZTv0_n24_NSt3__114basic_ofstreamIcNS_11char_traitsIcEEED1Ev, symObjAddr: 0x2000, symBinAddr: 0x10001295C, symSize: 0x28 }
  - { offset: 0x3D06F, size: 0x8, addend: 0x0, symName: __ZNSt3__18ios_base4setfB8ne180100Ejj, symObjAddr: 0x2028, symBinAddr: 0x100012984, symSize: 0x5C }
  - { offset: 0x3D0C2, size: 0x8, addend: 0x0, symName: __ZNSt3__18ios_base6unsetfB8ne180100Ej, symObjAddr: 0x2084, symBinAddr: 0x1000129E0, symSize: 0x28 }
  - { offset: 0x3D0F7, size: 0x8, addend: 0x0, symName: __ZNSt3__18__iom_t5C1B8ne180100Ei, symObjAddr: 0x20AC, symBinAddr: 0x100012A08, symSize: 0x34 }
  - { offset: 0x3D12E, size: 0x8, addend: 0x0, symName: __ZNSt3__18__iom_t5C2B8ne180100Ei, symObjAddr: 0x20E0, symBinAddr: 0x100012A3C, symSize: 0x20 }
  - { offset: 0x3D164, size: 0x8, addend: 0x0, symName: __ZNSt3__112basic_stringIcNS_11char_traitsIcEENS_9allocatorIcEEEC2B8ne180100Ev, symObjAddr: 0x2100, symBinAddr: 0x100012A5C, symSize: 0x48 }
  - { offset: 0x3D196, size: 0x8, addend: 0x0, symName: __ZNSt3__117__compressed_pairINS_12basic_stringIcNS_11char_traitsIcEENS_9allocatorIcEEE5__repES5_EC1B8ne180100INS_16__value_init_tagENS_18__default_init_tagEEEOT_OT0_, symObjAddr: 0x2148, symBinAddr: 0x100012AA4, symSize: 0x3C }
  - { offset: 0x3D1EC, size: 0x8, addend: 0x0, symName: __ZNKSt3__112basic_stringIcNS_11char_traitsIcEENS_9allocatorIcEEE14__annotate_newB8ne180100Em, symObjAddr: 0x2184, symBinAddr: 0x100012AE0, symSize: 0x14 }
  - { offset: 0x3D21F, size: 0x8, addend: 0x0, symName: __ZNSt3__117__compressed_pairINS_12basic_stringIcNS_11char_traitsIcEENS_9allocatorIcEEE5__repES5_EC2B8ne180100INS_16__value_init_tagENS_18__default_init_tagEEEOT_OT0_, symObjAddr: 0x2198, symBinAddr: 0x100012AF4, symSize: 0x3C }
  - { offset: 0x3D276, size: 0x8, addend: 0x0, symName: __ZNSt3__122__compressed_pair_elemINS_12basic_stringIcNS_11char_traitsIcEENS_9allocatorIcEEE5__repELi0ELb0EEC2B8ne180100ENS_16__value_init_tagE, symObjAddr: 0x21D4, symBinAddr: 0x100012B30, symSize: 0x20 }
  - { offset: 0x3D2A8, size: 0x8, addend: 0x0, symName: __ZNKSt3__112basic_stringIcNS_11char_traitsIcEENS_9allocatorIcEEEcvNS_17basic_string_viewIcS2_EEB8ne180100Ev, symObjAddr: 0x2310, symBinAddr: 0x100012C00, symSize: 0x50 }
  - { offset: 0x3D2CC, size: 0x8, addend: 0x0, symName: __ZNSt3__117basic_string_viewIcNS_11char_traitsIcEEEC1B8ne180100EPKc, symObjAddr: 0x2360, symBinAddr: 0x100012C50, symSize: 0x34 }
  - { offset: 0x3D303, size: 0x8, addend: 0x0, symName: __ZNKSt3__117basic_string_viewIcNS_11char_traitsIcEEE4sizeB8ne180100Ev, symObjAddr: 0x2394, symBinAddr: 0x100012C84, symSize: 0x18 }
  - { offset: 0x3D327, size: 0x8, addend: 0x0, symName: __ZNKSt3__117basic_string_viewIcNS_11char_traitsIcEEE7compareES3_, symObjAddr: 0x23AC, symBinAddr: 0x100012C9C, symSize: 0x13C }
  - { offset: 0x3D379, size: 0x8, addend: 0x0, symName: __ZNSt3__111char_traitsIcE7compareB8ne180100EPKcS3_m, symObjAddr: 0x2514, symBinAddr: 0x100012DD8, symSize: 0x34 }
  - { offset: 0x3D3B7, size: 0x8, addend: 0x0, symName: __ZNKSt3__117basic_string_viewIcNS_11char_traitsIcEEE4dataB8ne180100Ev, symObjAddr: 0x2548, symBinAddr: 0x100012E0C, symSize: 0x18 }
  - { offset: 0x3D3DB, size: 0x8, addend: 0x0, symName: __ZNKSt3__112basic_stringIcNS_11char_traitsIcEENS_9allocatorIcEEE4dataB8ne180100Ev, symObjAddr: 0x25E8, symBinAddr: 0x100012E24, symSize: 0x28 }
  - { offset: 0x3D3FF, size: 0x8, addend: 0x0, symName: __ZNKSt3__112basic_stringIcNS_11char_traitsIcEENS_9allocatorIcEEE4sizeB8ne180100Ev, symObjAddr: 0x2610, symBinAddr: 0x100012E4C, symSize: 0x54 }
  - { offset: 0x3D423, size: 0x8, addend: 0x0, symName: __ZNSt3__117basic_string_viewIcNS_11char_traitsIcEEEC1B8ne180100EPKcm, symObjAddr: 0x2664, symBinAddr: 0x100012EA0, symSize: 0x3C }
  - { offset: 0x3D469, size: 0x8, addend: 0x0, symName: __ZNKSt3__112basic_stringIcNS_11char_traitsIcEENS_9allocatorIcEEE13__get_pointerB8ne180100Ev, symObjAddr: 0x26B4, symBinAddr: 0x100012EF0, symSize: 0x54 }
  - { offset: 0x3D48D, size: 0x8, addend: 0x0, symName: __ZNKSt3__112basic_stringIcNS_11char_traitsIcEENS_9allocatorIcEEE18__get_long_pointerB8ne180100Ev, symObjAddr: 0x2740, symBinAddr: 0x100012F44, symSize: 0x28 }
  - { offset: 0x3D4B1, size: 0x8, addend: 0x0, symName: __ZNKSt3__112basic_stringIcNS_11char_traitsIcEENS_9allocatorIcEEE19__get_short_pointerB8ne180100Ev, symObjAddr: 0x2768, symBinAddr: 0x100012F6C, symSize: 0x28 }
  - { offset: 0x3D4D6, size: 0x8, addend: 0x0, symName: __ZNSt3__114pointer_traitsIPKcE10pointer_toB8ne180100ERS1_, symObjAddr: 0x27C8, symBinAddr: 0x100012F94, symSize: 0x14 }
  - { offset: 0x3D4F8, size: 0x8, addend: 0x0, symName: __ZNKSt3__112basic_stringIcNS_11char_traitsIcEENS_9allocatorIcEEE15__get_long_sizeB8ne180100Ev, symObjAddr: 0x27DC, symBinAddr: 0x100012FA8, symSize: 0x28 }
  - { offset: 0x3D51C, size: 0x8, addend: 0x0, symName: __ZNKSt3__112basic_stringIcNS_11char_traitsIcEENS_9allocatorIcEEE16__get_short_sizeB8ne180100Ev, symObjAddr: 0x2804, symBinAddr: 0x100012FD0, symSize: 0x34 }
  - { offset: 0x3D541, size: 0x8, addend: 0x0, symName: __ZNSt3__117basic_string_viewIcNS_11char_traitsIcEEEC2B8ne180100EPKcm, symObjAddr: 0x2838, symBinAddr: 0x100013004, symSize: 0x2C }
  - { offset: 0x3D587, size: 0x8, addend: 0x0, symName: __ZNSt3__117basic_string_viewIcNS_11char_traitsIcEEEC2B8ne180100EPKc, symObjAddr: 0x2864, symBinAddr: 0x100013030, symSize: 0x44 }
  - { offset: 0x3D5BE, size: 0x8, addend: 0x0, symName: __ZNSt3__112basic_stringIcNS_11char_traitsIcEENS_9allocatorIcEEEC2B8ne180100ILi0EEEPKc, symObjAddr: 0x2924, symBinAddr: 0x100013098, symSize: 0x58 }
  - { offset: 0x3D606, size: 0x8, addend: 0x0, symName: __ZNSt3__116allocator_traitsINS_9allocatorIcEEE37select_on_container_copy_constructionB8ne180100IS2_vvEES2_RKS2_, symObjAddr: 0x2A08, symBinAddr: 0x1000130F0, symSize: 0x10 }
  - { offset: 0x3D634, size: 0x8, addend: 0x0, symName: __ZNKSt3__112basic_stringIcNS_11char_traitsIcEENS_9allocatorIcEEE13get_allocatorB8ne180100Ev, symObjAddr: 0x2A18, symBinAddr: 0x100013100, symSize: 0x24 }
  - { offset: 0x3D658, size: 0x8, addend: 0x0, symName: __ZNSt3__112basic_stringIcNS_11char_traitsIcEENS_9allocatorIcEEEC1B8ne180100ENS_24__uninitialized_size_tagEmRKS4_, symObjAddr: 0x2A3C, symBinAddr: 0x100013124, symSize: 0x3C }
  - { offset: 0x3D6AB, size: 0x8, addend: 0x0, symName: __ZNSt3__111char_traitsIcE4copyB8ne180100EPcPKcm, symObjAddr: 0x2AE0, symBinAddr: 0x100013160, symSize: 0x40 }
  - { offset: 0x3D6EA, size: 0x8, addend: 0x0, symName: __ZNSt3__111char_traitsIcE6assignB8ne180100EPcmc, symObjAddr: 0x2B20, symBinAddr: 0x1000131A0, symSize: 0x44 }
  - { offset: 0x3D728, size: 0x8, addend: 0x0, symName: __ZNKSt3__112basic_stringIcNS_11char_traitsIcEENS_9allocatorIcEEE7__allocB8ne180100Ev, symObjAddr: 0x2B64, symBinAddr: 0x1000131E4, symSize: 0x24 }
  - { offset: 0x3D74C, size: 0x8, addend: 0x0, symName: __ZNKSt3__117__compressed_pairINS_12basic_stringIcNS_11char_traitsIcEENS_9allocatorIcEEE5__repES5_E6secondB8ne180100Ev, symObjAddr: 0x2B88, symBinAddr: 0x100013208, symSize: 0x24 }
  - { offset: 0x3D770, size: 0x8, addend: 0x0, symName: __ZNKSt3__122__compressed_pair_elemINS_9allocatorIcEELi1ELb1EE5__getB8ne180100Ev, symObjAddr: 0x2BAC, symBinAddr: 0x10001322C, symSize: 0x14 }
  - { offset: 0x3D794, size: 0x8, addend: 0x0, symName: __ZNSt3__112basic_stringIcNS_11char_traitsIcEENS_9allocatorIcEEEC2B8ne180100ENS_24__uninitialized_size_tagEmRKS4_, symObjAddr: 0x2BC0, symBinAddr: 0x100013240, symSize: 0x11C }
  - { offset: 0x3D812, size: 0x8, addend: 0x0, symName: __ZNSt3__117__compressed_pairINS_12basic_stringIcNS_11char_traitsIcEENS_9allocatorIcEEE5__repES5_EC1B8ne180100INS_18__default_init_tagERKS5_EEOT_OT0_, symObjAddr: 0x2CDC, symBinAddr: 0x10001335C, symSize: 0x3C }
  - { offset: 0x3D868, size: 0x8, addend: 0x0, symName: __ZNKSt3__112basic_stringIcNS_11char_traitsIcEENS_9allocatorIcEEE8max_sizeB8ne180100Ev, symObjAddr: 0x2D18, symBinAddr: 0x100013398, symSize: 0xAC }
  - { offset: 0x3D8B8, size: 0x8, addend: 0x0, symName: __ZNKSt3__112basic_stringIcNS_11char_traitsIcEENS_9allocatorIcEEE20__throw_length_errorB8ne180100Ev, symObjAddr: 0x2DC4, symBinAddr: 0x100013444, symSize: 0x1C }
  - { offset: 0x3D8DD, size: 0x8, addend: 0x0, symName: __ZNSt3__112basic_stringIcNS_11char_traitsIcEENS_9allocatorIcEEE13__fits_in_ssoB8ne180100Em, symObjAddr: 0x2DE0, symBinAddr: 0x100013460, symSize: 0x20 }
  - { offset: 0x3D900, size: 0x8, addend: 0x0, symName: __ZNSt3__112basic_stringIcNS_11char_traitsIcEENS_9allocatorIcEEE16__set_short_sizeB8ne180100Em, symObjAddr: 0x2E24, symBinAddr: 0x100013480, symSize: 0x78 }
  - { offset: 0x3D934, size: 0x8, addend: 0x0, symName: __ZNSt3__112basic_stringIcNS_11char_traitsIcEENS_9allocatorIcEEE11__recommendB8ne180100Em, symObjAddr: 0x2E9C, symBinAddr: 0x1000134F8, symSize: 0x84 }
  - { offset: 0x3D967, size: 0x8, addend: 0x0, symName: __ZNSt3__116allocator_traitsINS_9allocatorIcEEE8allocateB8ne180100ERS2_m, symObjAddr: 0x2F20, symBinAddr: 0x10001357C, symSize: 0x2C }
  - { offset: 0x3D999, size: 0x8, addend: 0x0, symName: __ZNSt3__112basic_stringIcNS_11char_traitsIcEENS_9allocatorIcEEE7__allocB8ne180100Ev, symObjAddr: 0x2F4C, symBinAddr: 0x1000135A8, symSize: 0x24 }
  - { offset: 0x3D9BE, size: 0x8, addend: 0x0, symName: __ZNSt3__112basic_stringIcNS_11char_traitsIcEENS_9allocatorIcEEE16__begin_lifetimeB8ne180100EPcm, symObjAddr: 0x2F70, symBinAddr: 0x1000135CC, symSize: 0x14 }
  - { offset: 0x3D9F0, size: 0x8, addend: 0x0, symName: __ZNSt3__112basic_stringIcNS_11char_traitsIcEENS_9allocatorIcEEE14__set_long_capB8ne180100Em, symObjAddr: 0x2F84, symBinAddr: 0x1000135E0, symSize: 0x70 }
  - { offset: 0x3DA23, size: 0x8, addend: 0x0, symName: __ZNSt3__112basic_stringIcNS_11char_traitsIcEENS_9allocatorIcEEE18__set_long_pointerB8ne180100EPc, symObjAddr: 0x2FF4, symBinAddr: 0x100013650, symSize: 0x38 }
  - { offset: 0x3DA56, size: 0x8, addend: 0x0, symName: __ZNSt3__112basic_stringIcNS_11char_traitsIcEENS_9allocatorIcEEE15__set_long_sizeB8ne180100Em, symObjAddr: 0x302C, symBinAddr: 0x100013688, symSize: 0x38 }
  - { offset: 0x3DA89, size: 0x8, addend: 0x0, symName: __ZNSt3__117__compressed_pairINS_12basic_stringIcNS_11char_traitsIcEENS_9allocatorIcEEE5__repES5_EC2B8ne180100INS_18__default_init_tagERKS5_EEOT_OT0_, symObjAddr: 0x3064, symBinAddr: 0x1000136C0, symSize: 0x40 }
  - { offset: 0x3DAE0, size: 0x8, addend: 0x0, symName: __ZNSt3__122__compressed_pair_elemINS_9allocatorIcEELi1ELb1EEC2B8ne180100IRKS2_vEEOT_, symObjAddr: 0x30A4, symBinAddr: 0x100013700, symSize: 0x18 }
  - { offset: 0x3DB21, size: 0x8, addend: 0x0, symName: __ZNSt3__116allocator_traitsINS_9allocatorIcEEE8max_sizeB8ne180100IS2_vvEEmRKS2_, symObjAddr: 0x30BC, symBinAddr: 0x100013718, symSize: 0x28 }
  - { offset: 0x3DB4D, size: 0x8, addend: 0x0, symName: __ZNSt3__112basic_stringIcNS_11char_traitsIcEENS_9allocatorIcEEE10__align_itB8ne180100ILm8EEEmm, symObjAddr: 0x31F0, symBinAddr: 0x100013740, symSize: 0x1C }
  - { offset: 0x3DB7A, size: 0x8, addend: 0x0, symName: __ZNSt3__19allocatorIcE8allocateB8ne180100Em, symObjAddr: 0x320C, symBinAddr: 0x10001375C, symSize: 0x58 }
  - { offset: 0x3DBAC, size: 0x8, addend: 0x0, symName: __ZNSt3__117__compressed_pairINS_12basic_stringIcNS_11char_traitsIcEENS_9allocatorIcEEE5__repES5_E6secondB8ne180100Ev, symObjAddr: 0x3368, symBinAddr: 0x1000137B4, symSize: 0x24 }
  - { offset: 0x3DBD0, size: 0x8, addend: 0x0, symName: __ZNSt3__122__compressed_pair_elemINS_9allocatorIcEELi1ELb1EE5__getB8ne180100Ev, symObjAddr: 0x338C, symBinAddr: 0x1000137D8, symSize: 0x14 }
  - { offset: 0x3DC17, size: 0x8, addend: 0x0, symName: __ZNKSt3__114__copy_trivialclB8ne180100IKccLi0EEENS_4pairIPT_PT0_EES5_S5_S7_, symObjAddr: 0x3600, symBinAddr: 0x1000139E8, symSize: 0x48 }
  - { offset: 0x3DC97, size: 0x8, addend: 0x0, symName: __ZNSt3__119__unwrap_range_implIPKcS2_E8__unwrapB8ne180100ES2_S2_, symObjAddr: 0x370C, symBinAddr: 0x100013AF4, symSize: 0x58 }
  - { offset: 0x3DCCC, size: 0x8, addend: 0x0, symName: __ZNSt3__14pairIPKcS2_EC1B8ne180100IS2_S2_Li0EEEOT_OT0_, symObjAddr: 0x3788, symBinAddr: 0x100013B70, symSize: 0x3C }
  - { offset: 0x3DD29, size: 0x8, addend: 0x0, symName: __ZNSt3__118__unwrap_iter_implIPKcLb1EE8__unwrapB8ne180100ES2_, symObjAddr: 0x37C4, symBinAddr: 0x100013BAC, symSize: 0x24 }
  - { offset: 0x3DD4C, size: 0x8, addend: 0x0, symName: __ZNSt3__14pairIPKcS2_EC2B8ne180100IS2_S2_Li0EEEOT_OT0_, symObjAddr: 0x37E8, symBinAddr: 0x100013BD0, symSize: 0x34 }
  - { offset: 0x3DDB2, size: 0x8, addend: 0x0, symName: __ZNSt3__14pairIPKcPcEC1B8ne180100IRS2_S3_Li0EEEOT_OT0_, symObjAddr: 0x3930, symBinAddr: 0x100013D18, symSize: 0x3C }
  - { offset: 0x3DE0F, size: 0x8, addend: 0x0, symName: __ZNSt3__14pairIPKcPcEC2B8ne180100IRS2_S3_Li0EEEOT_OT0_, symObjAddr: 0x396C, symBinAddr: 0x100013D54, symSize: 0x34 }
  - { offset: 0x3DE6C, size: 0x8, addend: 0x0, symName: __ZNSt3__118__unwrap_iter_implIPcLb1EE8__unwrapB8ne180100ES1_, symObjAddr: 0x39A0, symBinAddr: 0x100013D88, symSize: 0x24 }
  - { offset: 0x3DE8E, size: 0x8, addend: 0x0, symName: __ZNSt3__14pairIPKcPcEC1B8ne180100IS2_S3_Li0EEEOT_OT0_, symObjAddr: 0x39C4, symBinAddr: 0x100013DAC, symSize: 0x3C }
  - { offset: 0x3DEEB, size: 0x8, addend: 0x0, symName: __ZNSt3__14pairIPKcPcEC2B8ne180100IS2_S3_Li0EEEOT_OT0_, symObjAddr: 0x3A00, symBinAddr: 0x100013DE8, symSize: 0x34 }
  - { offset: 0x3DF48, size: 0x8, addend: 0x0, symName: __ZNSt3__119__unwrap_range_implIPKcS2_E8__rewrapB8ne180100ES2_S2_, symObjAddr: 0x3A34, symBinAddr: 0x100013E1C, symSize: 0x2C }
  - { offset: 0x3DF79, size: 0x8, addend: 0x0, symName: __ZNSt3__118__unwrap_iter_implIPKcLb1EE8__rewrapB8ne180100ES2_S2_, symObjAddr: 0x3A9C, symBinAddr: 0x100013E84, symSize: 0x48 }
  - { offset: 0x3DFAA, size: 0x8, addend: 0x0, symName: __ZNSt3__118__unwrap_iter_implIPcLb1EE8__rewrapB8ne180100ES1_S1_, symObjAddr: 0x3AE4, symBinAddr: 0x100013ECC, symSize: 0x48 }
  - { offset: 0x3DFF8, size: 0x8, addend: 0x0, symName: __ZNKSt3__16chrono10time_pointINS0_12steady_clockENS0_8durationIxNS_5ratioILl1ELl1000000000EEEEEE16time_since_epochB8ne180100Ev, symObjAddr: 0x41EC, symBinAddr: 0x10001403C, symSize: 0x20 }
  - { offset: 0x3E01C, size: 0x8, addend: 0x0, symName: __ZNKSt3__16chrono8durationIxNS_5ratioILl1ELl1000000000EEEE5countB8ne180100Ev, symObjAddr: 0x420C, symBinAddr: 0x10001405C, symSize: 0x18 }
  - { offset: 0x3E045, size: 0x8, addend: 0x0, symName: __ZNSt3__16chrono8durationIxNS_5ratioILl1ELl1000000000EEEEC1B8ne180100IxLi0EEERKT_, symObjAddr: 0x4224, symBinAddr: 0x100014074, symSize: 0x34 }
  - { offset: 0x3E08B, size: 0x8, addend: 0x0, symName: __ZNSt3__16chrono8durationIxNS_5ratioILl1ELl1000000000EEEEC2B8ne180100IxLi0EEERKT_, symObjAddr: 0x4258, symBinAddr: 0x1000140A8, symSize: 0x24 }
  - { offset: 0x3E0D0, size: 0x8, addend: 0x0, symName: __ZNSt3__16chrono8durationIdNS_5ratioILl1ELl1EEEEC2B8ne180100IxNS2_ILl1ELl1000000000EEELi0EEERKNS1_IT_T0_EE, symObjAddr: 0x427C, symBinAddr: 0x1000140CC, symSize: 0x44 }
  - { offset: 0x3E128, size: 0x8, addend: 0x0, symName: __ZNSt3__16chrono8durationIdNS_5ratioILl1ELl1EEEEC1B8ne180100IdLi0EEERKT_, symObjAddr: 0x433C, symBinAddr: 0x10001418C, symSize: 0x34 }
  - { offset: 0x3E16E, size: 0x8, addend: 0x0, symName: __ZNSt3__16chrono8durationIdNS_5ratioILl1ELl1EEEEC2B8ne180100IdLi0EEERKT_, symObjAddr: 0x4370, symBinAddr: 0x1000141C0, symSize: 0x24 }
  - { offset: 0x3E1B3, size: 0x8, addend: 0x0, symName: __ZNSt3__16vectorINS_4pairIixEENS_9allocatorIS2_EEEC2B8ne180100Ev, symObjAddr: 0x4740, symBinAddr: 0x1000141E4, symSize: 0x4C }
  - { offset: 0x3E1E0, size: 0x8, addend: 0x0, symName: __ZNSt3__117__compressed_pairIPNS_4pairIixEENS_9allocatorIS2_EEEC1B8ne180100IDnNS_18__default_init_tagEEEOT_OT0_, symObjAddr: 0x478C, symBinAddr: 0x100014230, symSize: 0x3C }
  - { offset: 0x3E236, size: 0x8, addend: 0x0, symName: __ZNSt3__117__compressed_pairIPNS_4pairIixEENS_9allocatorIS2_EEEC2B8ne180100IDnNS_18__default_init_tagEEEOT_OT0_, symObjAddr: 0x47C8, symBinAddr: 0x10001426C, symSize: 0x40 }
  - { offset: 0x3E28D, size: 0x8, addend: 0x0, symName: __ZNSt3__122__compressed_pair_elemIPNS_4pairIixEELi0ELb0EEC2B8ne180100IDnvEEOT_, symObjAddr: 0x4808, symBinAddr: 0x1000142AC, symSize: 0x1C }
  - { offset: 0x3E2CD, size: 0x8, addend: 0x0, symName: __ZNSt3__122__compressed_pair_elemINS_9allocatorINS_4pairIixEEEELi1ELb1EEC2B8ne180100ENS_18__default_init_tagE, symObjAddr: 0x4824, symBinAddr: 0x1000142C8, symSize: 0x2C }
  - { offset: 0x3E2FF, size: 0x8, addend: 0x0, symName: __ZNSt3__19allocatorINS_4pairIixEEEC2B8ne180100Ev, symObjAddr: 0x4850, symBinAddr: 0x1000142F4, symSize: 0x2C }
  - { offset: 0x3E328, size: 0x8, addend: 0x0, symName: __ZNSt3__116__non_trivial_ifILb1ENS_9allocatorINS_4pairIixEEEEEC2B8ne180100Ev, symObjAddr: 0x487C, symBinAddr: 0x100014320, symSize: 0x14 }
  - { offset: 0x3E350, size: 0x8, addend: 0x0, symName: __ZNSt3__16vectorINS_4pairIixEENS_9allocatorIS2_EEE9__end_capB8ne180100Ev, symObjAddr: 0x4974, symBinAddr: 0x100014334, symSize: 0x28 }
  - { offset: 0x3E374, size: 0x8, addend: 0x0, symName: __ZNSt3__16vectorINS_4pairIixEENS_9allocatorIS2_EEE22__construct_one_at_endB8ne180100IJRKS2_EEEvDpOT_, symObjAddr: 0x499C, symBinAddr: 0x10001435C, symSize: 0x90 }
  - { offset: 0x3E3C1, size: 0x8, addend: 0x0, symName: __ZNSt3__16vectorINS_4pairIixEENS_9allocatorIS2_EEE21__push_back_slow_pathIRKS2_EEPS2_OT_, symObjAddr: 0x4A2C, symBinAddr: 0x1000143EC, symSize: 0xE8 }
  - { offset: 0x3E41D, size: 0x8, addend: 0x0, symName: __ZNSt3__117__compressed_pairIPNS_4pairIixEENS_9allocatorIS2_EEE5firstB8ne180100Ev, symObjAddr: 0x4B14, symBinAddr: 0x1000144D4, symSize: 0x24 }
  - { offset: 0x3E441, size: 0x8, addend: 0x0, symName: __ZNSt3__122__compressed_pair_elemIPNS_4pairIixEELi0ELb0EE5__getB8ne180100Ev, symObjAddr: 0x4B38, symBinAddr: 0x1000144F8, symSize: 0x14 }
  - { offset: 0x3E47E, size: 0x8, addend: 0x0, symName: __ZNSt3__16vectorINS_4pairIixEENS_9allocatorIS2_EEE21_ConstructTransactionC1B8ne180100ERS5_m, symObjAddr: 0x4B4C, symBinAddr: 0x10001450C, symSize: 0x3C }
  - { offset: 0x3E4C5, size: 0x8, addend: 0x0, symName: __ZNSt3__116allocator_traitsINS_9allocatorINS_4pairIixEEEEE9constructB8ne180100IS3_JRKS3_EvvEEvRS4_PT_DpOT0_, symObjAddr: 0x4B88, symBinAddr: 0x100014548, symSize: 0x30 }
  - { offset: 0x3E519, size: 0x8, addend: 0x0, symName: __ZNSt3__16vectorINS_4pairIixEENS_9allocatorIS2_EEE7__allocB8ne180100Ev, symObjAddr: 0x4BB8, symBinAddr: 0x100014578, symSize: 0x28 }
  - { offset: 0x3E53D, size: 0x8, addend: 0x0, symName: __ZNSt3__16vectorINS_4pairIixEENS_9allocatorIS2_EEE21_ConstructTransactionD1B8ne180100Ev, symObjAddr: 0x4BF4, symBinAddr: 0x1000145B4, symSize: 0x2C }
  - { offset: 0x3E566, size: 0x8, addend: 0x0, symName: __ZNSt3__16vectorINS_4pairIixEENS_9allocatorIS2_EEE21_ConstructTransactionC2B8ne180100ERS5_m, symObjAddr: 0x4C20, symBinAddr: 0x1000145E0, symSize: 0x44 }
  - { offset: 0x3E5AC, size: 0x8, addend: 0x0, symName: __ZNSt3__117__compressed_pairIPNS_4pairIixEENS_9allocatorIS2_EEE6secondB8ne180100Ev, symObjAddr: 0x4CB4, symBinAddr: 0x100014674, symSize: 0x24 }
  - { offset: 0x3E5D0, size: 0x8, addend: 0x0, symName: __ZNSt3__122__compressed_pair_elemINS_9allocatorINS_4pairIixEEEELi1ELb1EE5__getB8ne180100Ev, symObjAddr: 0x4CD8, symBinAddr: 0x100014698, symSize: 0x14 }
  - { offset: 0x3E5F5, size: 0x8, addend: 0x0, symName: __ZNSt3__16vectorINS_4pairIixEENS_9allocatorIS2_EEE21_ConstructTransactionD2B8ne180100Ev, symObjAddr: 0x4CEC, symBinAddr: 0x1000146AC, symSize: 0x20 }
  - { offset: 0x3E61D, size: 0x8, addend: 0x0, symName: __ZNKSt3__16vectorINS_4pairIixEENS_9allocatorIS2_EEE11__recommendB8ne180100Em, symObjAddr: 0x4D0C, symBinAddr: 0x1000146CC, symSize: 0xB4 }
  - { offset: 0x3E670, size: 0x8, addend: 0x0, symName: __ZNKSt3__16vectorINS_4pairIixEENS_9allocatorIS2_EEE4sizeB8ne180100Ev, symObjAddr: 0x4DC0, symBinAddr: 0x100014780, symSize: 0x28 }
  - { offset: 0x3E694, size: 0x8, addend: 0x0, symName: __ZNSt3__114__split_bufferINS_4pairIixEERNS_9allocatorIS2_EEEC1EmmS5_, symObjAddr: 0x4DE8, symBinAddr: 0x1000147A8, symSize: 0x44 }
  - { offset: 0x3E6E8, size: 0x8, addend: 0x0, symName: __ZNSt3__114__split_bufferINS_4pairIixEERNS_9allocatorIS2_EEED1Ev, symObjAddr: 0x4F3C, symBinAddr: 0x1000148FC, symSize: 0x2C }
  - { offset: 0x3E712, size: 0x8, addend: 0x0, symName: __ZNKSt3__16vectorINS_4pairIixEENS_9allocatorIS2_EEE8max_sizeEv, symObjAddr: 0x4F68, symBinAddr: 0x100014928, symSize: 0x60 }
  - { offset: 0x3E738, size: 0x8, addend: 0x0, symName: __ZNKSt3__16vectorINS_4pairIixEENS_9allocatorIS2_EEE20__throw_length_errorB8ne180100Ev, symObjAddr: 0x4FC8, symBinAddr: 0x100014988, symSize: 0x1C }
  - { offset: 0x3E75C, size: 0x8, addend: 0x0, symName: __ZNKSt3__16vectorINS_4pairIixEENS_9allocatorIS2_EEE8capacityB8ne180100Ev, symObjAddr: 0x4FE4, symBinAddr: 0x1000149A4, symSize: 0x40 }
  - { offset: 0x3E78B, size: 0x8, addend: 0x0, symName: __ZNSt3__116allocator_traitsINS_9allocatorINS_4pairIixEEEEE8max_sizeB8ne180100IS4_vvEEmRKS4_, symObjAddr: 0x5050, symBinAddr: 0x1000149E4, symSize: 0x28 }
  - { offset: 0x3E7B6, size: 0x8, addend: 0x0, symName: __ZNKSt3__16vectorINS_4pairIixEENS_9allocatorIS2_EEE7__allocB8ne180100Ev, symObjAddr: 0x5078, symBinAddr: 0x100014A0C, symSize: 0x28 }
  - { offset: 0x3E7DA, size: 0x8, addend: 0x0, symName: __ZNKSt3__117__compressed_pairIPNS_4pairIixEENS_9allocatorIS2_EEE6secondB8ne180100Ev, symObjAddr: 0x50B4, symBinAddr: 0x100014A34, symSize: 0x24 }
  - { offset: 0x3E7FE, size: 0x8, addend: 0x0, symName: __ZNKSt3__122__compressed_pair_elemINS_9allocatorINS_4pairIixEEEELi1ELb1EE5__getB8ne180100Ev, symObjAddr: 0x50D8, symBinAddr: 0x100014A58, symSize: 0x14 }
  - { offset: 0x3E822, size: 0x8, addend: 0x0, symName: __ZNKSt3__16vectorINS_4pairIixEENS_9allocatorIS2_EEE9__end_capB8ne180100Ev, symObjAddr: 0x50F4, symBinAddr: 0x100014A6C, symSize: 0x28 }
  - { offset: 0x3E846, size: 0x8, addend: 0x0, symName: __ZNKSt3__117__compressed_pairIPNS_4pairIixEENS_9allocatorIS2_EEE5firstB8ne180100Ev, symObjAddr: 0x511C, symBinAddr: 0x100014A94, symSize: 0x24 }
  - { offset: 0x3E86A, size: 0x8, addend: 0x0, symName: __ZNKSt3__122__compressed_pair_elemIPNS_4pairIixEELi0ELb0EE5__getB8ne180100Ev, symObjAddr: 0x5140, symBinAddr: 0x100014AB8, symSize: 0x14 }
  - { offset: 0x3E88E, size: 0x8, addend: 0x0, symName: __ZNSt3__114__split_bufferINS_4pairIixEERNS_9allocatorIS2_EEEC2EmmS5_, symObjAddr: 0x51A8, symBinAddr: 0x100014ACC, symSize: 0xD4 }
  - { offset: 0x3E8FF, size: 0x8, addend: 0x0, symName: __ZNSt3__117__compressed_pairIPNS_4pairIixEERNS_9allocatorIS2_EEEC1B8ne180100IDnS6_EEOT_OT0_, symObjAddr: 0x527C, symBinAddr: 0x100014BA0, symSize: 0x3C }
  - { offset: 0x3E955, size: 0x8, addend: 0x0, symName: __ZNSt3__114__split_bufferINS_4pairIixEERNS_9allocatorIS2_EEE7__allocB8ne180100Ev, symObjAddr: 0x52F8, symBinAddr: 0x100014C1C, symSize: 0x28 }
  - { offset: 0x3E979, size: 0x8, addend: 0x0, symName: __ZNSt3__114__split_bufferINS_4pairIixEERNS_9allocatorIS2_EEE9__end_capB8ne180100Ev, symObjAddr: 0x5320, symBinAddr: 0x100014C44, symSize: 0x28 }
  - { offset: 0x3E99D, size: 0x8, addend: 0x0, symName: __ZNSt3__117__compressed_pairIPNS_4pairIixEERNS_9allocatorIS2_EEEC2B8ne180100IDnS6_EEOT_OT0_, symObjAddr: 0x5348, symBinAddr: 0x100014C6C, symSize: 0x48 }
  - { offset: 0x3E9F4, size: 0x8, addend: 0x0, symName: __ZNSt3__122__compressed_pair_elemIRNS_9allocatorINS_4pairIixEEEELi1ELb0EEC2B8ne180100IS5_vEEOT_, symObjAddr: 0x5390, symBinAddr: 0x100014CB4, symSize: 0x20 }
  - { offset: 0x3EA34, size: 0x8, addend: 0x0, symName: __ZNSt3__19allocatorINS_4pairIixEEE8allocateB8ne180100Em, symObjAddr: 0x53B0, symBinAddr: 0x100014CD4, symSize: 0x58 }
  - { offset: 0x3EA66, size: 0x8, addend: 0x0, symName: __ZNSt3__117__compressed_pairIPNS_4pairIixEERNS_9allocatorIS2_EEE6secondB8ne180100Ev, symObjAddr: 0x5408, symBinAddr: 0x100014D2C, symSize: 0x28 }
  - { offset: 0x3EA8A, size: 0x8, addend: 0x0, symName: __ZNSt3__122__compressed_pair_elemIRNS_9allocatorINS_4pairIixEEEELi1ELb0EE5__getB8ne180100Ev, symObjAddr: 0x5430, symBinAddr: 0x100014D54, symSize: 0x18 }
  - { offset: 0x3EAAE, size: 0x8, addend: 0x0, symName: __ZNSt3__117__compressed_pairIPNS_4pairIixEERNS_9allocatorIS2_EEE5firstB8ne180100Ev, symObjAddr: 0x5448, symBinAddr: 0x100014D6C, symSize: 0x24 }
  - { offset: 0x3EAD2, size: 0x8, addend: 0x0, symName: __ZNKSt3__16vectorINS_4pairIixEENS_9allocatorIS2_EEE17__annotate_deleteB8ne180100Ev, symObjAddr: 0x546C, symBinAddr: 0x100014D90, symSize: 0x10 }
  - { offset: 0x3EAF6, size: 0x8, addend: 0x0, symName: __ZNSt3__116reverse_iteratorIPNS_4pairIixEEEC1B8ne180100ES3_, symObjAddr: 0x55A8, symBinAddr: 0x100014ECC, symSize: 0x34 }
  - { offset: 0x3EB2C, size: 0x8, addend: 0x0, symName: __ZNKSt3__116reverse_iteratorIPNS_4pairIixEEE4baseB8ne180100Ev, symObjAddr: 0x55DC, symBinAddr: 0x100014F00, symSize: 0x18 }
  - { offset: 0x3EB50, size: 0x8, addend: 0x0, symName: __ZNKSt3__16vectorINS_4pairIixEENS_9allocatorIS2_EEE14__annotate_newB8ne180100Em, symObjAddr: 0x5630, symBinAddr: 0x100014F54, symSize: 0x14 }
  - { offset: 0x3EB83, size: 0x8, addend: 0x0, symName: __ZNSt3__129_AllocatorDestroyRangeReverseINS_9allocatorINS_4pairIixEEEENS_16reverse_iteratorIPS3_EEEC1B8ne180100ERS4_RS7_SA_, symObjAddr: 0x5690, symBinAddr: 0x100014FB4, symSize: 0x44 }
  - { offset: 0x3EBD9, size: 0x8, addend: 0x0, symName: __ZNSt3__116allocator_traitsINS_9allocatorINS_4pairIixEEEEE9constructB8ne180100IS3_JS3_EvvEEvRS4_PT_DpOT0_, symObjAddr: 0x571C, symBinAddr: 0x100015040, symSize: 0x30 }
  - { offset: 0x3EC2D, size: 0x8, addend: 0x0, symName: __ZNKSt3__116reverse_iteratorIPNS_4pairIixEEEdeB8ne180100Ev, symObjAddr: 0x5770, symBinAddr: 0x100015094, symSize: 0x28 }
  - { offset: 0x3EC5F, size: 0x8, addend: 0x0, symName: __ZNSt3__116reverse_iteratorIPNS_4pairIixEEEppB8ne180100Ev, symObjAddr: 0x5798, symBinAddr: 0x1000150BC, symSize: 0x20 }
  - { offset: 0x3EC83, size: 0x8, addend: 0x0, symName: __ZNSt3__128__exception_guard_exceptionsINS_29_AllocatorDestroyRangeReverseINS_9allocatorINS_4pairIixEEEENS_16reverse_iteratorIPS4_EEEEE10__completeB8ne180100Ev, symObjAddr: 0x57B8, symBinAddr: 0x1000150DC, symSize: 0x1C }
  - { offset: 0x3ECA7, size: 0x8, addend: 0x0, symName: __ZNSt3__128__exception_guard_exceptionsINS_29_AllocatorDestroyRangeReverseINS_9allocatorINS_4pairIixEEEENS_16reverse_iteratorIPS4_EEEEED1B8ne180100Ev, symObjAddr: 0x57D4, symBinAddr: 0x1000150F8, symSize: 0x2C }
  - { offset: 0x3ECCF, size: 0x8, addend: 0x0, symName: __ZNSt3__128__exception_guard_exceptionsINS_29_AllocatorDestroyRangeReverseINS_9allocatorINS_4pairIixEEEENS_16reverse_iteratorIPS4_EEEEEC1B8ne180100ES9_, symObjAddr: 0x5800, symBinAddr: 0x100015124, symSize: 0x34 }
  - { offset: 0x3ED07, size: 0x8, addend: 0x0, symName: __ZNSt3__128__exception_guard_exceptionsINS_29_AllocatorDestroyRangeReverseINS_9allocatorINS_4pairIixEEEENS_16reverse_iteratorIPS4_EEEEEC2B8ne180100ES9_, symObjAddr: 0x5834, symBinAddr: 0x100015158, symSize: 0x30 }
  - { offset: 0x3ED3F, size: 0x8, addend: 0x0, symName: __ZNSt3__129_AllocatorDestroyRangeReverseINS_9allocatorINS_4pairIixEEEENS_16reverse_iteratorIPS3_EEEC2B8ne180100ERS4_RS7_SA_, symObjAddr: 0x5864, symBinAddr: 0x100015188, symSize: 0x38 }
  - { offset: 0x3ED9A, size: 0x8, addend: 0x0, symName: __ZNSt3__119__to_address_helperINS_16reverse_iteratorIPNS_4pairIixEEEEvE6__callB8ne180100ERKS5_, symObjAddr: 0x58EC, symBinAddr: 0x100015210, symSize: 0x38 }
  - { offset: 0x3EDBC, size: 0x8, addend: 0x0, symName: __ZNKSt3__116reverse_iteratorIPNS_4pairIixEEEptB8ne180100Ev, symObjAddr: 0x5924, symBinAddr: 0x100015248, symSize: 0x2C }
  - { offset: 0x3EDE0, size: 0x8, addend: 0x0, symName: __ZNSt3__128__exception_guard_exceptionsINS_29_AllocatorDestroyRangeReverseINS_9allocatorINS_4pairIixEEEENS_16reverse_iteratorIPS4_EEEEED2B8ne180100Ev, symObjAddr: 0x5A00, symBinAddr: 0x100015310, symSize: 0x50 }
  - { offset: 0x3EE08, size: 0x8, addend: 0x0, symName: __ZNKSt3__129_AllocatorDestroyRangeReverseINS_9allocatorINS_4pairIixEEEENS_16reverse_iteratorIPS3_EEEclB8ne180100Ev, symObjAddr: 0x5A50, symBinAddr: 0x100015360, symSize: 0xB4 }
  - { offset: 0x3EE2D, size: 0x8, addend: 0x0, symName: __ZNSt3__116reverse_iteratorINS0_IPNS_4pairIixEEEEEC1B8ne180100ES4_, symObjAddr: 0x5B74, symBinAddr: 0x100015484, symSize: 0x3C }
  - { offset: 0x3EE64, size: 0x8, addend: 0x0, symName: __ZNSt3__116allocator_traitsINS_9allocatorINS_4pairIixEEEEE7destroyB8ne180100IS3_vvEEvRS4_PT_, symObjAddr: 0x5C10, symBinAddr: 0x100015520, symSize: 0x28 }
  - { offset: 0x3EE9E, size: 0x8, addend: 0x0, symName: __ZNSt3__116reverse_iteratorINS0_IPNS_4pairIixEEEEEppB8ne180100Ev, symObjAddr: 0x5C5C, symBinAddr: 0x10001556C, symSize: 0x30 }
  - { offset: 0x3EEC2, size: 0x8, addend: 0x0, symName: __ZNKSt3__116reverse_iteratorINS0_IPNS_4pairIixEEEEE4baseB8ne180100Ev, symObjAddr: 0x5C8C, symBinAddr: 0x10001559C, symSize: 0x24 }
  - { offset: 0x3EEEC, size: 0x8, addend: 0x0, symName: __ZNSt3__119__to_address_helperINS_16reverse_iteratorINS1_IPNS_4pairIixEEEEEEvE6__callB8ne180100ERKS6_, symObjAddr: 0x5CC0, symBinAddr: 0x1000155D0, symSize: 0x38 }
  - { offset: 0x3EF0E, size: 0x8, addend: 0x0, symName: __ZNKSt3__116reverse_iteratorINS0_IPNS_4pairIixEEEEEptB8ne180100Ev, symObjAddr: 0x5CF8, symBinAddr: 0x100015608, symSize: 0x4C }
  - { offset: 0x3EF32, size: 0x8, addend: 0x0, symName: __ZNSt3__116reverse_iteratorIPNS_4pairIixEEEpLB8ne180100El, symObjAddr: 0x5DF4, symBinAddr: 0x100015704, symSize: 0x30 }
  - { offset: 0x3EF64, size: 0x8, addend: 0x0, symName: __ZNSt3__116reverse_iteratorIPNS_4pairIixEEEmmB8ne180100Ev, symObjAddr: 0x5E24, symBinAddr: 0x100015734, symSize: 0x20 }
  - { offset: 0x3EF89, size: 0x8, addend: 0x0, symName: __ZNSt3__116reverse_iteratorINS0_IPNS_4pairIixEEEEEC2B8ne180100ES4_, symObjAddr: 0x5E44, symBinAddr: 0x100015754, symSize: 0x2C }
  - { offset: 0x3EFC0, size: 0x8, addend: 0x0, symName: __ZNSt3__116reverse_iteratorIPNS_4pairIixEEEC2B8ne180100ES3_, symObjAddr: 0x5E70, symBinAddr: 0x100015780, symSize: 0x28 }
  - { offset: 0x3EFF6, size: 0x8, addend: 0x0, symName: __ZNSt3__114__split_bufferINS_4pairIixEERNS_9allocatorIS2_EEED2Ev, symObjAddr: 0x5E98, symBinAddr: 0x1000157A8, symSize: 0x8C }
  - { offset: 0x3F020, size: 0x8, addend: 0x0, symName: __ZNSt3__114__split_bufferINS_4pairIixEERNS_9allocatorIS2_EEE5clearB8ne180100Ev, symObjAddr: 0x5F24, symBinAddr: 0x100015834, symSize: 0x28 }
  - { offset: 0x3F045, size: 0x8, addend: 0x0, symName: __ZNSt3__116allocator_traitsINS_9allocatorINS_4pairIixEEEEE10deallocateB8ne180100ERS4_PS3_m, symObjAddr: 0x5F4C, symBinAddr: 0x10001585C, symSize: 0x34 }
  - { offset: 0x3F086, size: 0x8, addend: 0x0, symName: __ZNKSt3__114__split_bufferINS_4pairIixEERNS_9allocatorIS2_EEE8capacityB8ne180100Ev, symObjAddr: 0x5F80, symBinAddr: 0x100015890, symSize: 0x40 }
  - { offset: 0x3F0AA, size: 0x8, addend: 0x0, symName: __ZNSt3__114__split_bufferINS_4pairIixEERNS_9allocatorIS2_EEE17__destruct_at_endB8ne180100EPS2_, symObjAddr: 0x5FC0, symBinAddr: 0x1000158D0, symSize: 0x2C }
  - { offset: 0x3F0DC, size: 0x8, addend: 0x0, symName: __ZNSt3__114__split_bufferINS_4pairIixEERNS_9allocatorIS2_EEE17__destruct_at_endB8ne180100EPS2_NS_17integral_constantIbLb0EEE, symObjAddr: 0x5FEC, symBinAddr: 0x1000158FC, symSize: 0x80 }
  - { offset: 0x3F11A, size: 0x8, addend: 0x0, symName: __ZNSt3__19allocatorINS_4pairIixEEE10deallocateB8ne180100EPS2_m, symObjAddr: 0x606C, symBinAddr: 0x10001597C, symSize: 0x40 }
  - { offset: 0x3F15A, size: 0x8, addend: 0x0, symName: __ZNKSt3__114__split_bufferINS_4pairIixEERNS_9allocatorIS2_EEE9__end_capB8ne180100Ev, symObjAddr: 0x60AC, symBinAddr: 0x1000159BC, symSize: 0x28 }
  - { offset: 0x3F17E, size: 0x8, addend: 0x0, symName: __ZNKSt3__117__compressed_pairIPNS_4pairIixEERNS_9allocatorIS2_EEE5firstB8ne180100Ev, symObjAddr: 0x60D4, symBinAddr: 0x1000159E4, symSize: 0x24 }
  - { offset: 0x3F1A2, size: 0x8, addend: 0x0, symName: __ZNSt3__16vectorINS_4pairIixEENS_9allocatorIS2_EEED2B8ne180100Ev, symObjAddr: 0x60F8, symBinAddr: 0x100015A08, symSize: 0x44 }
  - { offset: 0x3F1CA, size: 0x8, addend: 0x0, symName: __ZNSt3__16vectorINS_4pairIixEENS_9allocatorIS2_EEE16__destroy_vectorC1B8ne180100ERS5_, symObjAddr: 0x613C, symBinAddr: 0x100015A4C, symSize: 0x34 }
  - { offset: 0x3F201, size: 0x8, addend: 0x0, symName: __ZNSt3__16vectorINS_4pairIixEENS_9allocatorIS2_EEE16__destroy_vectorclB8ne180100Ev, symObjAddr: 0x6170, symBinAddr: 0x100015A80, symSize: 0x90 }
  - { offset: 0x3F226, size: 0x8, addend: 0x0, symName: __ZNSt3__16vectorINS_4pairIixEENS_9allocatorIS2_EEE16__destroy_vectorC2B8ne180100ERS5_, symObjAddr: 0x6200, symBinAddr: 0x100015B10, symSize: 0x20 }
  - { offset: 0x3F25D, size: 0x8, addend: 0x0, symName: __ZNSt3__16vectorINS_4pairIixEENS_9allocatorIS2_EEE7__clearB8ne180100Ev, symObjAddr: 0x6220, symBinAddr: 0x100015B30, symSize: 0x28 }
  - { offset: 0x3F281, size: 0x8, addend: 0x0, symName: __ZNSt3__16vectorINS_4pairIixEENS_9allocatorIS2_EEE22__base_destruct_at_endB8ne180100EPS2_, symObjAddr: 0x6248, symBinAddr: 0x100015B58, symSize: 0x8C }
  - { offset: 0x3F2E1, size: 0x8, addend: 0x0, symName: __ZNSt3__19basic_iosIcNS_11char_traitsIcEEEC2B8ne180100Ev, symObjAddr: 0x6ED4, symBinAddr: 0x100015BE4, symSize: 0x3C }
  - { offset: 0x3F309, size: 0x8, addend: 0x0, symName: __ZNSt3__113basic_ostreamIcNS_11char_traitsIcEEEC2B8ne180100EPNS_15basic_streambufIcS2_EE, symObjAddr: 0x6F10, symBinAddr: 0x100015C20, symSize: 0x60 }
  - { offset: 0x3F34B, size: 0x8, addend: 0x0, symName: __ZNSt3__113basic_filebufIcNS_11char_traitsIcEEE4openERKNS_12basic_stringIcS2_NS_9allocatorIcEEEEj, symObjAddr: 0x6F70, symBinAddr: 0x100015C80, symSize: 0x44 }
  - { offset: 0x3F390, size: 0x8, addend: 0x0, symName: __ZNSt3__18ios_baseC2B8ne180100Ev, symObjAddr: 0x6FB4, symBinAddr: 0x100015CC4, symSize: 0x24 }
  - { offset: 0x3F3B8, size: 0x8, addend: 0x0, symName: __ZNSt3__19basic_iosIcNS_11char_traitsIcEEE4initB8ne180100EPNS_15basic_streambufIcS2_EE, symObjAddr: 0x6FD8, symBinAddr: 0x100015CE8, symSize: 0x44 }
  - { offset: 0x3F3ED, size: 0x8, addend: 0x0, symName: __ZNKSt3__112basic_stringIcNS_11char_traitsIcEENS_9allocatorIcEEE5c_strB8ne180100Ev, symObjAddr: 0x701C, symBinAddr: 0x100015D2C, symSize: 0x24 }
  - { offset: 0x3F411, size: 0x8, addend: 0x0, symName: __ZNKSt3__113basic_filebufIcNS_11char_traitsIcEEE7is_openEv, symObjAddr: 0x7040, symBinAddr: 0x100015D50, symSize: 0x24 }
  - { offset: 0x3F437, size: 0x8, addend: 0x0, symName: __ZNSt3__18ios_base9precisionB8ne180100El, symObjAddr: 0x7064, symBinAddr: 0x100015D74, symSize: 0x2C }
  - { offset: 0x4FA45, size: 0x8, addend: 0x0, symName: __ZNSt3__17advanceB8ne180100INS_16reverse_iteratorIPNS_4pairIiNS2_IiiEEEEEEllvEEvRT_T0_, symObjAddr: 0x4698, symBinAddr: 0x1000190C4, symSize: 0x38 }
  - { offset: 0x4FDE2, size: 0x8, addend: 0x0, symName: __ZNSt3__17advanceB8ne180100IPNS_5tupleIJiiiEEEllvEEvRT_T0_, symObjAddr: 0x7568, symBinAddr: 0x10001AC8C, symSize: 0x38 }
  - { offset: 0x50062, size: 0x8, addend: 0x0, symName: __ZNSt3__17advanceB8ne180100INS_16reverse_iteratorIPNS_5tupleIJiiiEEEEEllvEEvRT_T0_, symObjAddr: 0x7928, symBinAddr: 0x10001B04C, symSize: 0x38 }
  - { offset: 0x527C0, size: 0x8, addend: 0x0, symName: __ZNSt3__17getlineB8ne180100IcNS_11char_traitsIcEENS_9allocatorIcEEEERNS_13basic_istreamIT_T0_EES9_RNS_12basic_stringIS6_S7_T1_EE, symObjAddr: 0x190, symBinAddr: 0x100015F04, symSize: 0x5C }
  - { offset: 0x52818, size: 0x8, addend: 0x0, symName: __ZNSt3__1neB8ne180100IPNS_5tupleIJiiiEEEEEbRKNS_11__wrap_iterIT_EES8_, symObjAddr: 0xC78, symBinAddr: 0x100016988, symSize: 0x34 }
  - { offset: 0x5285B, size: 0x8, addend: 0x0, symName: __ZNSt3__13getB8ne180100ILm0EJiiiEEERKNS_13tuple_elementIXT_ENS_5tupleIJDpT0_EEEE4typeERKS5_, symObjAddr: 0xCC4, symBinAddr: 0x1000169D4, symSize: 0x24 }
  - { offset: 0x528A8, size: 0x8, addend: 0x0, symName: __ZNSt3__13getB8ne180100ILm1EJiiiEEERKNS_13tuple_elementIXT_ENS_5tupleIJDpT0_EEEE4typeERKS5_, symObjAddr: 0xCE8, symBinAddr: 0x1000169F8, symSize: 0x28 }
  - { offset: 0x528F5, size: 0x8, addend: 0x0, symName: __ZNSt3__13getB8ne180100ILm2EJiiiEEERKNS_13tuple_elementIXT_ENS_5tupleIJDpT0_EEEE4typeERKS5_, symObjAddr: 0xD10, symBinAddr: 0x100016A20, symSize: 0x28 }
  - { offset: 0x539D3, size: 0x8, addend: 0x0, symName: __ZNSt3__1rsB8ne180100IcNS_11char_traitsIcEEEERNS_13basic_istreamIT_T0_EES7_RS4_, symObjAddr: 0x12F4, symBinAddr: 0x100016E50, symSize: 0x18C }
  - { offset: 0x53A55, size: 0x8, addend: 0x0, symName: __ZNSt3__1rsB8ne180100IcNS_11char_traitsIcEENS_9allocatorIcEEEERNS_13basic_istreamIT_T0_EES9_RNS_12basic_stringIS6_S7_T1_EE, symObjAddr: 0x1480, symBinAddr: 0x100016FDC, symSize: 0x308 }
  - { offset: 0x53B22, size: 0x8, addend: 0x0, symName: __ZNSt3__13maxB8ne180100IiEERKT_S3_S3_, symObjAddr: 0x1894, symBinAddr: 0x100017394, symSize: 0x2C }
  - { offset: 0x53B7B, size: 0x8, addend: 0x0, symName: __ZNSt3__123__str_find_first_not_ofB8ne180100IcmNS_11char_traitsIcEELm18446744073709551615EEET0_PKT_S3_S6_S3_S3_, symObjAddr: 0x25E4, symBinAddr: 0x100017E38, symSize: 0xDC }
  - { offset: 0x53C4D, size: 0x8, addend: 0x0, symName: __ZNSt3__118__constexpr_memchrB8ne180100IKccEEPT_S3_T0_m, symObjAddr: 0x27E0, symBinAddr: 0x100017F84, symSize: 0x40 }
  - { offset: 0x53CC3, size: 0x8, addend: 0x0, symName: __ZNSt3__122__str_find_last_not_ofB8ne180100IcmNS_11char_traitsIcEELm18446744073709551615EEET0_PKT_S3_S6_S3_S3_, symObjAddr: 0x29DC, symBinAddr: 0x100017FC4, symSize: 0xDC }
  - { offset: 0x53D78, size: 0x8, addend: 0x0, symName: __ZNSt3__1eqB8ne180100IPNS_5tupleIJiiiEEEEEbRKNS_11__wrap_iterIT_EES8_, symObjAddr: 0x2F88, symBinAddr: 0x100018360, symSize: 0x48 }
  - { offset: 0x53DBB, size: 0x8, addend: 0x0, symName: __ZNSt3__114__construct_atB8ne180100INS_4pairIiNS1_IiiEEEEJS3_EPS3_EEPT_S6_DpOT0_, symObjAddr: 0x331C, symBinAddr: 0x1000185A4, symSize: 0x2C }
  - { offset: 0x53E0E, size: 0x8, addend: 0x0, symName: __ZNSt3__112construct_atB8ne180100INS_4pairIiNS1_IiiEEEEJS3_EPS3_EEPT_S6_DpOT0_, symObjAddr: 0x3348, symBinAddr: 0x1000185D0, symSize: 0x2C }
  - { offset: 0x53ED7, size: 0x8, addend: 0x0, symName: __ZNSt3__142__uninitialized_allocator_move_if_noexceptB8ne180100INS_9allocatorINS_4pairIiNS2_IiiEEEEEENS_16reverse_iteratorIPS4_EES8_S8_EET2_RT_T0_T1_S9_, symObjAddr: 0x3DFC, symBinAddr: 0x100018A68, symSize: 0x12C }
  - { offset: 0x53F77, size: 0x8, addend: 0x0, symName: __ZNSt3__14swapB8ne180100IPNS_4pairIiNS1_IiiEEEEEENS_9enable_ifIXaasr21is_move_constructibleIT_EE5valuesr18is_move_assignableIS6_EE5valueEvE4typeERS6_S9_, symObjAddr: 0x3F74, symBinAddr: 0x100018B94, symSize: 0x3C }
  - { offset: 0x53FC8, size: 0x8, addend: 0x0, symName: __ZNSt3__122__make_exception_guardB8ne180100INS_29_AllocatorDestroyRangeReverseINS_9allocatorINS_4pairIiNS3_IiiEEEEEENS_16reverse_iteratorIPS5_EEEEEENS_28__exception_guard_exceptionsIT_EESC_, symObjAddr: 0x3FC4, symBinAddr: 0x100018BD0, symSize: 0x4C }
  - { offset: 0x53FFE, size: 0x8, addend: 0x0, symName: __ZNSt3__119__allocator_destroyB8ne180100INS_9allocatorINS_4pairIiNS2_IiiEEEEEENS_16reverse_iteratorINS6_IPS4_EEEES9_EEvRT_T0_T1_, symObjAddr: 0x440C, symBinAddr: 0x100018E70, symSize: 0x70 }
  - { offset: 0x54063, size: 0x8, addend: 0x0, symName: __ZNSt3__1neB8ne180100INS_16reverse_iteratorIPNS_4pairIiNS2_IiiEEEEEES6_EEbRKNS1_IT_EERKNS1_IT0_EE, symObjAddr: 0x44B8, symBinAddr: 0x100018F1C, symSize: 0x60 }
  - { offset: 0x540AF, size: 0x8, addend: 0x0, symName: __ZNSt3__112__to_addressB8ne180100INS_16reverse_iteratorINS1_IPNS_4pairIiNS2_IiiEEEEEEEEvEEu7__decayIDTclsr19__to_address_helperIT_EE6__callclsr3stdE7declvalIRKS8_EEEEESA_, symObjAddr: 0x4540, symBinAddr: 0x100018F7C, symSize: 0x24 }
  - { offset: 0x5410E, size: 0x8, addend: 0x0, symName: __ZNSt3__14prevB8ne180100INS_16reverse_iteratorIPNS_4pairIiNS2_IiiEEEEEELi0EEET_S7_NS_15iterator_traitsIS7_E15difference_typeE, symObjAddr: 0x464C, symBinAddr: 0x100019078, symSize: 0x4C }
  - { offset: 0x54157, size: 0x8, addend: 0x0, symName: __ZNSt3__19__advanceB8ne180100INS_16reverse_iteratorIPNS_4pairIiNS2_IiiEEEEEEEEvRT_NS_15iterator_traitsIS7_E15difference_typeENS_26random_access_iterator_tagE, symObjAddr: 0x46D0, symBinAddr: 0x1000190FC, symSize: 0x2C }
  - { offset: 0x541A0, size: 0x8, addend: 0x0, symName: __ZNSt3__112__to_addressB8ne180100INS_5tupleIJiiiEEEEEPT_S4_, symObjAddr: 0x5B34, symBinAddr: 0x1000196D0, symSize: 0x14 }
  - { offset: 0x541D5, size: 0x8, addend: 0x0, symName: __ZNSt3__112__destroy_atB8ne180100INS_5tupleIJiiiEEELi0EEEvPT_, symObjAddr: 0x5B48, symBinAddr: 0x1000196E4, symSize: 0x10 }
  - { offset: 0x5420C, size: 0x8, addend: 0x0, symName: __ZNSt3__114__construct_atB8ne180100INS_5tupleIJiiiEEEJRiS3_S3_EPS2_EEPT_S6_DpOT0_, symObjAddr: 0x6810, symBinAddr: 0x100019F34, symSize: 0x3C }
  - { offset: 0x54285, size: 0x8, addend: 0x0, symName: __ZNSt3__112construct_atB8ne180100INS_5tupleIJiiiEEEJRiS3_S3_EPS2_EEPT_S6_DpOT0_, symObjAddr: 0x684C, symBinAddr: 0x100019F70, symSize: 0x44 }
  - { offset: 0x54338, size: 0x8, addend: 0x0, symName: __ZNSt3__119__allocate_at_leastB8ne180100INS_9allocatorINS_5tupleIJiiiEEEEEEENS_19__allocation_resultINS_16allocator_traitsIT_E7pointerEEERS7_m, symObjAddr: 0x6E98, symBinAddr: 0x10001A5BC, symSize: 0x40 }
  - { offset: 0x5437B, size: 0x8, addend: 0x0, symName: __ZNSt3__142__uninitialized_allocator_move_if_noexceptB8ne180100INS_9allocatorINS_5tupleIJiiiEEEEENS_16reverse_iteratorIPS3_EES7_S7_EET2_RT_T0_T1_S8_, symObjAddr: 0x7050, symBinAddr: 0x10001A774, symSize: 0x12C }
  - { offset: 0x5441B, size: 0x8, addend: 0x0, symName: __ZNSt3__14swapB8ne180100IPNS_5tupleIJiiiEEEEENS_9enable_ifIXaasr21is_move_constructibleIT_EE5valuesr18is_move_assignableIS5_EE5valueEvE4typeERS5_S8_, symObjAddr: 0x71C8, symBinAddr: 0x10001A8EC, symSize: 0x3C }
  - { offset: 0x5446C, size: 0x8, addend: 0x0, symName: __ZNSt3__122__make_exception_guardB8ne180100INS_29_AllocatorDestroyRangeReverseINS_9allocatorINS_5tupleIJiiiEEEEENS_16reverse_iteratorIPS4_EEEEEENS_28__exception_guard_exceptionsIT_EESB_, symObjAddr: 0x7218, symBinAddr: 0x10001A93C, symSize: 0x4C }
  - { offset: 0x544A2, size: 0x8, addend: 0x0, symName: __ZNSt3__1neB8ne180100IPNS_5tupleIJiiiEEES3_EEbRKNS_16reverse_iteratorIT_EERKNS4_IT0_EE, symObjAddr: 0x72A8, symBinAddr: 0x10001A9CC, symSize: 0x48 }
  - { offset: 0x544EE, size: 0x8, addend: 0x0, symName: __ZNSt3__112__to_addressB8ne180100INS_16reverse_iteratorIPNS_5tupleIJiiiEEEEEvEEu7__decayIDTclsr19__to_address_helperIT_EE6__callclsr3stdE7declvalIRKS6_EEEEES8_, symObjAddr: 0x7320, symBinAddr: 0x10001AA44, symSize: 0x24 }
  - { offset: 0x54524, size: 0x8, addend: 0x0, symName: __ZNSt3__114__construct_atB8ne180100INS_5tupleIJiiiEEEJS2_EPS2_EEPT_S5_DpOT0_, symObjAddr: 0x7470, symBinAddr: 0x10001AB94, symSize: 0x2C }
  - { offset: 0x54577, size: 0x8, addend: 0x0, symName: __ZNSt3__112construct_atB8ne180100INS_5tupleIJiiiEEEJS2_EPS2_EEPT_S5_DpOT0_, symObjAddr: 0x749C, symBinAddr: 0x10001ABC0, symSize: 0x2C }
  - { offset: 0x545F3, size: 0x8, addend: 0x0, symName: __ZNSt3__14prevB8ne180100IPNS_5tupleIJiiiEEELi0EEET_S4_NS_15iterator_traitsIS4_E15difference_typeE, symObjAddr: 0x752C, symBinAddr: 0x10001AC50, symSize: 0x3C }
  - { offset: 0x5463C, size: 0x8, addend: 0x0, symName: __ZNSt3__19__advanceB8ne180100IPNS_5tupleIJiiiEEEEEvRT_NS_15iterator_traitsIS4_E15difference_typeENS_26random_access_iterator_tagE, symObjAddr: 0x75A0, symBinAddr: 0x10001ACC4, symSize: 0x30 }
  - { offset: 0x54685, size: 0x8, addend: 0x0, symName: __ZNSt3__119__allocator_destroyB8ne180100INS_9allocatorINS_5tupleIJiiiEEEEENS_16reverse_iteratorINS5_IPS3_EEEES8_EEvRT_T0_T1_, symObjAddr: 0x76D4, symBinAddr: 0x10001ADF8, symSize: 0x70 }
  - { offset: 0x546EA, size: 0x8, addend: 0x0, symName: __ZNSt3__1neB8ne180100INS_16reverse_iteratorIPNS_5tupleIJiiiEEEEES5_EEbRKNS1_IT_EERKNS1_IT0_EE, symObjAddr: 0x7780, symBinAddr: 0x10001AEA4, symSize: 0x60 }
  - { offset: 0x54736, size: 0x8, addend: 0x0, symName: __ZNSt3__112__to_addressB8ne180100INS_16reverse_iteratorINS1_IPNS_5tupleIJiiiEEEEEEEvEEu7__decayIDTclsr19__to_address_helperIT_EE6__callclsr3stdE7declvalIRKS7_EEEEES9_, symObjAddr: 0x77E0, symBinAddr: 0x10001AF04, symSize: 0x24 }
  - { offset: 0x54795, size: 0x8, addend: 0x0, symName: __ZNSt3__14prevB8ne180100INS_16reverse_iteratorIPNS_5tupleIJiiiEEEEELi0EEET_S6_NS_15iterator_traitsIS6_E15difference_typeE, symObjAddr: 0x78DC, symBinAddr: 0x10001B000, symSize: 0x4C }
  - { offset: 0x547DE, size: 0x8, addend: 0x0, symName: __ZNSt3__19__advanceB8ne180100INS_16reverse_iteratorIPNS_5tupleIJiiiEEEEEEEvRT_NS_15iterator_traitsIS6_E15difference_typeENS_26random_access_iterator_tagE, symObjAddr: 0x7960, symBinAddr: 0x10001B084, symSize: 0x2C }
  - { offset: 0x54827, size: 0x8, addend: 0x0, symName: __ZNSt3__13maxB8ne180100IiNS_6__lessIvvEEEERKT_S5_S5_T0_, symObjAddr: 0x7C1C, symBinAddr: 0x10001B340, symSize: 0x54 }
  - { offset: 0x54881, size: 0x8, addend: 0x0, symName: __ZNSt3__114__construct_atB8ne180100IiJiEPiEEPT_S3_DpOT0_, symObjAddr: 0x8294, symBinAddr: 0x10001B76C, symSize: 0x2C }
  - { offset: 0x548D4, size: 0x8, addend: 0x0, symName: __ZNSt3__112construct_atB8ne180100IiJiEPiEEPT_S3_DpOT0_, symObjAddr: 0x82C0, symBinAddr: 0x10001B798, symSize: 0x24 }
  - { offset: 0x54927, size: 0x8, addend: 0x0, symName: __ZNSt3__142__uninitialized_allocator_move_if_noexceptB8ne180100INS_9allocatorIiEENS_16reverse_iteratorIPiEES5_ivEET1_RT_T0_S9_S6_, symObjAddr: 0x89E8, symBinAddr: 0x10001BC1C, symSize: 0x78 }
  - { offset: 0x549A5, size: 0x8, addend: 0x0, symName: __ZNSt3__14swapB8ne180100IPiEENS_9enable_ifIXaasr21is_move_constructibleIT_EE5valuesr18is_move_assignableIS3_EE5valueEvE4typeERS3_S6_, symObjAddr: 0x8AAC, symBinAddr: 0x10001BC94, symSize: 0x3C }
  - { offset: 0x549F6, size: 0x8, addend: 0x0, symName: __ZNSt3__14moveB8ne180100INS_16reverse_iteratorIPiEES3_EET0_T_S5_S4_, symObjAddr: 0x8AFC, symBinAddr: 0x10001BCD0, symSize: 0x78 }
  - { offset: 0x54A50, size: 0x8, addend: 0x0, symName: __ZNSt3__16__moveB8ne180100INS_17_ClassicAlgPolicyENS_16reverse_iteratorIPiEES4_S4_EENS_4pairIT0_T2_EES6_T1_S7_, symObjAddr: 0x8B74, symBinAddr: 0x10001BD48, symSize: 0x64 }
  - { offset: 0x54ABC, size: 0x8, addend: 0x0, symName: __ZNSt3__123__dispatch_copy_or_moveB8ne180100INS_17_ClassicAlgPolicyENS_11__move_loopIS1_EENS_14__move_trivialENS_16reverse_iteratorIPiEES7_S7_EENS_4pairIT2_T4_EES9_T3_SA_, symObjAddr: 0x8BD8, symBinAddr: 0x10001BDAC, symSize: 0x64 }
  - { offset: 0x54B3A, size: 0x8, addend: 0x0, symName: __ZNSt3__121__unwrap_and_dispatchB8ne180100INS_10__overloadINS_11__move_loopINS_17_ClassicAlgPolicyEEENS_14__move_trivialEEENS_16reverse_iteratorIPiEES9_S9_Li0EEENS_4pairIT0_T2_EESB_T1_SC_, symObjAddr: 0x8C3C, symBinAddr: 0x10001BE10, symSize: 0x12C }
  - { offset: 0x54BCA, size: 0x8, addend: 0x0, symName: __ZNSt3__114__unwrap_rangeB8ne180100INS_16reverse_iteratorIPiEES3_EEDaT_T0_, symObjAddr: 0x8D68, symBinAddr: 0x10001BF3C, symSize: 0x4C }
  - { offset: 0x54D3C, size: 0x8, addend: 0x0, symName: __ZNSt3__113__unwrap_iterB8ne180100INS_16reverse_iteratorIPiEENS_18__unwrap_iter_implIS3_Lb0EEELi0EEEDTclsrT0_8__unwrapclsr3stdE7declvalIT_EEEES7_, symObjAddr: 0x8E54, symBinAddr: 0x10001C028, symSize: 0x44 }
  - { offset: 0x54D80, size: 0x8, addend: 0x0, symName: __ZNSt3__19make_pairB8ne180100INS_16reverse_iteratorIPiEES3_EENS_4pairINS_18__unwrap_ref_decayIT_E4typeENS5_IT0_E4typeEEEOS6_OS9_, symObjAddr: 0x8E98, symBinAddr: 0x10001C06C, symSize: 0x38 }
  - { offset: 0x54DCF, size: 0x8, addend: 0x0, symName: __ZNSt3__114__rewrap_rangeB8ne180100INS_16reverse_iteratorIPiEES3_S3_EET0_S4_T1_, symObjAddr: 0x8ED0, symBinAddr: 0x10001C0A4, symSize: 0x5C }
  - { offset: 0x54E24, size: 0x8, addend: 0x0, symName: __ZNSt3__113__rewrap_iterB8ne180100INS_16reverse_iteratorIPiEES3_NS_18__unwrap_iter_implIS3_Lb0EEEEET_S6_T0_, symObjAddr: 0x8F2C, symBinAddr: 0x10001C100, symSize: 0x74 }
  - { offset: 0x54F73, size: 0x8, addend: 0x0, symName: __ZNSt3__17getlineB8ne180100IcNS_11char_traitsIcEENS_9allocatorIcEEEERNS_13basic_istreamIT_T0_EES9_RNS_12basic_stringIS6_S7_T1_EES6_, symObjAddr: 0xAFF0, symBinAddr: 0x10001C554, symSize: 0x238 }
  - { offset: 0x56516, size: 0x8, addend: 0x0, symName: __ZNSt3__16vectorINS_4pairIiNS1_IiiEEEENS_9allocatorIS3_EEE26__swap_out_circular_bufferERNS_14__split_bufferIS3_RS5_EE, symObjAddr: 0x34EC, symBinAddr: 0x1000186F4, symSize: 0x110 }
  - { offset: 0x565A7, size: 0x8, addend: 0x0, symName: __ZNSt3__16vectorINS_5tupleIJiiiEEENS_9allocatorIS2_EEE26__swap_out_circular_bufferERNS_14__split_bufferIS2_RS4_EE, symObjAddr: 0x6B3C, symBinAddr: 0x10001A260, symSize: 0x110 }
  - { offset: 0x5672D, size: 0x8, addend: 0x0, symName: __ZNSt3__16vectorIiNS_9allocatorIiEEE26__swap_out_circular_bufferERNS_14__split_bufferIiRS2_EE, symObjAddr: 0x8434, symBinAddr: 0x10001B8B4, symSize: 0x110 }
  - { offset: 0x568B2, size: 0x8, addend: 0x0, symName: __Z15getNextDataLineRNSt3__114basic_ifstreamIcNS_11char_traitsIcEEEE, symObjAddr: 0x0, symBinAddr: 0x100015DA0, symSize: 0x164 }
  - { offset: 0x568EC, size: 0x8, addend: 0x0, symName: __ZNKSt3__19basic_iosIcNS_11char_traitsIcEEEcvbB8ne180100Ev, symObjAddr: 0x1EC, symBinAddr: 0x100015F60, symSize: 0x2C }
  - { offset: 0x56910, size: 0x8, addend: 0x0, symName: __ZNKSt3__112basic_stringIcNS_11char_traitsIcEENS_9allocatorIcEEE17find_first_not_ofB8ne180100EPKcm, symObjAddr: 0x218, symBinAddr: 0x100015F8C, symSize: 0x74 }
  - { offset: 0x56954, size: 0x8, addend: 0x0, symName: __ZNKSt3__112basic_stringIcNS_11char_traitsIcEENS_9allocatorIcEEE16find_last_not_ofB8ne180100EPKcm, symObjAddr: 0x28C, symBinAddr: 0x100016000, symSize: 0x74 }
  - { offset: 0x56998, size: 0x8, addend: 0x0, symName: __ZNSt3__112basic_stringIcNS_11char_traitsIcEENS_9allocatorIcEEEixB8ne180100Em, symObjAddr: 0x330, symBinAddr: 0x100016074, symSize: 0x48 }
  - { offset: 0x569CB, size: 0x8, addend: 0x0, symName: __ZNSt3__112basic_stringIcNS_11char_traitsIcEENS_9allocatorIcEEEC1B8ne180100EOS5_, symObjAddr: 0x378, symBinAddr: 0x1000160BC, symSize: 0x34 }
  - { offset: 0x56AE0, size: 0x8, addend: 0x0, symName: __ZN6Parser10parseGraphERKNSt3__112basic_stringIcNS0_11char_traitsIcEENS0_9allocatorIcEEEE, symObjAddr: 0x3E0, symBinAddr: 0x1000160F0, symSize: 0x1B0 }
  - { offset: 0x56BAF, size: 0x8, addend: 0x0, symName: __ZN6Parser13loadGraphDataERKNSt3__112basic_stringIcNS0_11char_traitsIcEENS0_9allocatorIcEEEE, symObjAddr: 0x590, symBinAddr: 0x1000162A0, symSize: 0x65C }
  - { offset: 0x56C86, size: 0x8, addend: 0x0, symName: __ZNSt3__16vectorINS_4pairIiNS1_IiiEEEENS_9allocatorIS3_EEEC1B8ne180100Ev, symObjAddr: 0xBEC, symBinAddr: 0x1000168FC, symSize: 0x2C }
  - { offset: 0x56CAE, size: 0x8, addend: 0x0, symName: __ZNSt3__16vectorINS_5tupleIJiiiEEENS_9allocatorIS2_EEE5beginB8ne180100Ev, symObjAddr: 0xC18, symBinAddr: 0x100016928, symSize: 0x30 }
  - { offset: 0x56CD4, size: 0x8, addend: 0x0, symName: __ZNSt3__16vectorINS_5tupleIJiiiEEENS_9allocatorIS2_EEE3endB8ne180100Ev, symObjAddr: 0xC48, symBinAddr: 0x100016958, symSize: 0x30 }
  - { offset: 0x56CFA, size: 0x8, addend: 0x0, symName: __ZNKSt3__111__wrap_iterIPNS_5tupleIJiiiEEEEdeB8ne180100Ev, symObjAddr: 0xCAC, symBinAddr: 0x1000169BC, symSize: 0x18 }
  - { offset: 0x56D1E, size: 0x8, addend: 0x0, symName: __ZNSt3__16vectorINS_4pairIiNS1_IiiEEEENS_9allocatorIS3_EEE9push_backB8ne180100EOS3_, symObjAddr: 0xD38, symBinAddr: 0x100016A48, symSize: 0x90 }
  - { offset: 0x56D62, size: 0x8, addend: 0x0, symName: __ZNSt3__14pairIiNS0_IiiEEEC1B8ne180100ILb1ELi0EEERKiRKS1_, symObjAddr: 0xE04, symBinAddr: 0x100016AD8, symSize: 0x3C }
  - { offset: 0x56DB6, size: 0x8, addend: 0x0, symName: __ZNSt3__111__wrap_iterIPNS_5tupleIJiiiEEEEppB8ne180100Ev, symObjAddr: 0xE40, symBinAddr: 0x100016B14, symSize: 0x20 }
  - { offset: 0x56DDF, size: 0x8, addend: 0x0, symName: __ZN6Parser9GraphDataD1Ev, symObjAddr: 0xEC0, symBinAddr: 0x100016B34, symSize: 0x2C }
  - { offset: 0x57061, size: 0x8, addend: 0x0, symName: __ZNSt3__114basic_ifstreamIcNS_11char_traitsIcEEEC1ERKNS_12basic_stringIcS2_NS_9allocatorIcEEEEj, symObjAddr: 0xEEC, symBinAddr: 0x100016B60, symSize: 0x164 }
  - { offset: 0x570A9, size: 0x8, addend: 0x0, symName: __ZNKSt3__114basic_ifstreamIcNS_11char_traitsIcEEE7is_openEv, symObjAddr: 0x1050, symBinAddr: 0x100016CC4, symSize: 0x2C }
  - { offset: 0x570CF, size: 0x8, addend: 0x0, symName: __ZN6Parser9GraphDataC1Ev, symObjAddr: 0x1194, symBinAddr: 0x100016CF0, symSize: 0x2C }
  - { offset: 0x570F9, size: 0x8, addend: 0x0, symName: __ZNSt3__112basic_stringIcNS_11char_traitsIcEENS_9allocatorIcEEEaSB8ne180100EOS5_, symObjAddr: 0x11C0, symBinAddr: 0x100016D1C, symSize: 0x34 }
  - { offset: 0x5719F, size: 0x8, addend: 0x0, symName: __ZNSt3__118basic_stringstreamIcNS_11char_traitsIcEENS_9allocatorIcEEEC1B8ne180100ERKNS_12basic_stringIcS2_S4_EEj, symObjAddr: 0x11F4, symBinAddr: 0x100016D50, symSize: 0x100 }
  - { offset: 0x571E5, size: 0x8, addend: 0x0, symName: __ZNSt3__16vectorINS_5tupleIJiiiEEENS_9allocatorIS2_EEE12emplace_backIJRiS7_S7_EEERS2_DpOT_, symObjAddr: 0x17E4, symBinAddr: 0x1000172E4, symSize: 0xB0 }
  - { offset: 0x57262, size: 0x8, addend: 0x0, symName: __ZNSt3__118basic_stringstreamIcNS_11char_traitsIcEENS_9allocatorIcEEED1Ev, symObjAddr: 0x18C0, symBinAddr: 0x1000173C0, symSize: 0x40 }
  - { offset: 0x5728D, size: 0x8, addend: 0x0, symName: __ZNKSt3__16vectorINS_5tupleIJiiiEEENS_9allocatorIS2_EEE4sizeB8ne180100Ev, symObjAddr: 0x1900, symBinAddr: 0x100017400, symSize: 0x28 }
  - { offset: 0x572B7, size: 0x8, addend: 0x0, symName: __ZNSt3__114basic_ifstreamIcNS_11char_traitsIcEEED1Ev, symObjAddr: 0x1928, symBinAddr: 0x100017428, symSize: 0x40 }
  - { offset: 0x572E2, size: 0x8, addend: 0x0, symName: __ZN6Parser9parseSSSPERKNSt3__112basic_stringIcNS0_11char_traitsIcEENS0_9allocatorIcEEEE, symObjAddr: 0x1968, symBinAddr: 0x100017468, symSize: 0x468 }
  - { offset: 0x573C9, size: 0x8, addend: 0x0, symName: __ZNSt3__16vectorIiNS_9allocatorIiEEEC1B8ne180100Ev, symObjAddr: 0x1DD0, symBinAddr: 0x1000178D0, symSize: 0x2C }
  - { offset: 0x573F1, size: 0x8, addend: 0x0, symName: __ZNSt3__16vectorIiNS_9allocatorIiEEE9push_backB8ne180100EOi, symObjAddr: 0x1DFC, symBinAddr: 0x1000178FC, symSize: 0x90 }
  - { offset: 0x57435, size: 0x8, addend: 0x0, symName: __ZNKSt3__16vectorIiNS_9allocatorIiEEE4sizeB8ne180100Ev, symObjAddr: 0x1E8C, symBinAddr: 0x10001798C, symSize: 0x28 }
  - { offset: 0x57459, size: 0x8, addend: 0x0, symName: __ZN6Parser8parseP2PERKNSt3__112basic_stringIcNS0_11char_traitsIcEENS0_9allocatorIcEEEE, symObjAddr: 0x1EE0, symBinAddr: 0x1000179B4, symSize: 0x484 }
  - { offset: 0x5755A, size: 0x8, addend: 0x0, symName: __ZNSt3__111char_traitsIcE4findB8ne180100EPKcmRS2_, symObjAddr: 0x2770, symBinAddr: 0x100017F14, symSize: 0x70 }
  - { offset: 0x57598, size: 0x8, addend: 0x0, symName: __ZNSt3__112basic_stringIcNS_11char_traitsIcEENS_9allocatorIcEEEC2B8ne180100EOS5_, symObjAddr: 0x2BC8, symBinAddr: 0x1000180A0, symSize: 0xB8 }
  - { offset: 0x575FF, size: 0x8, addend: 0x0, symName: __ZZNSt3__112basic_stringIcNS_11char_traitsIcEENS_9allocatorIcEEEC1B8ne180100EOS5_ENKUlRS5_E_clES7_, symObjAddr: 0x2C80, symBinAddr: 0x100018158, symSize: 0x40 }
  - { offset: 0x57636, size: 0x8, addend: 0x0, symName: __ZNKSt3__112basic_stringIcNS_11char_traitsIcEENS_9allocatorIcEEE17__annotate_deleteB8ne180100Ev, symObjAddr: 0x2CC0, symBinAddr: 0x100018198, symSize: 0x10 }
  - { offset: 0x5765A, size: 0x8, addend: 0x0, symName: __ZNSt3__16vectorINS_4pairIiNS1_IiiEEEENS_9allocatorIS3_EEEC2B8ne180100Ev, symObjAddr: 0x2DB4, symBinAddr: 0x1000181A8, symSize: 0x4C }
  - { offset: 0x57687, size: 0x8, addend: 0x0, symName: __ZNSt3__117__compressed_pairIPNS_4pairIiNS1_IiiEEEENS_9allocatorIS3_EEEC1B8ne180100IDnNS_18__default_init_tagEEEOT_OT0_, symObjAddr: 0x2E00, symBinAddr: 0x1000181F4, symSize: 0x3C }
  - { offset: 0x576DD, size: 0x8, addend: 0x0, symName: __ZNSt3__117__compressed_pairIPNS_4pairIiNS1_IiiEEEENS_9allocatorIS3_EEEC2B8ne180100IDnNS_18__default_init_tagEEEOT_OT0_, symObjAddr: 0x2E3C, symBinAddr: 0x100018230, symSize: 0x40 }
  - { offset: 0x57733, size: 0x8, addend: 0x0, symName: __ZNSt3__122__compressed_pair_elemINS_9allocatorINS_4pairIiNS2_IiiEEEEEELi1ELb1EEC2B8ne180100ENS_18__default_init_tagE, symObjAddr: 0x2E98, symBinAddr: 0x100018270, symSize: 0x2C }
  - { offset: 0x57765, size: 0x8, addend: 0x0, symName: __ZNSt3__19allocatorINS_4pairIiNS1_IiiEEEEEC2B8ne180100Ev, symObjAddr: 0x2EC4, symBinAddr: 0x10001829C, symSize: 0x2C }
  - { offset: 0x5778E, size: 0x8, addend: 0x0, symName: __ZNSt3__116__non_trivial_ifILb1ENS_9allocatorINS_4pairIiNS2_IiiEEEEEEEC2B8ne180100Ev, symObjAddr: 0x2EF0, symBinAddr: 0x1000182C8, symSize: 0x14 }
  - { offset: 0x577B6, size: 0x8, addend: 0x0, symName: __ZNSt3__16vectorINS_5tupleIJiiiEEENS_9allocatorIS2_EEE11__make_iterB8ne180100EPS2_, symObjAddr: 0x2F04, symBinAddr: 0x1000182DC, symSize: 0x30 }
  - { offset: 0x577E9, size: 0x8, addend: 0x0, symName: __ZNSt3__111__wrap_iterIPNS_5tupleIJiiiEEEEC1B8ne180100ES3_, symObjAddr: 0x2F34, symBinAddr: 0x10001830C, symSize: 0x34 }
  - { offset: 0x57820, size: 0x8, addend: 0x0, symName: __ZNSt3__111__wrap_iterIPNS_5tupleIJiiiEEEEC2B8ne180100ES3_, symObjAddr: 0x2F68, symBinAddr: 0x100018340, symSize: 0x20 }
  - { offset: 0x57856, size: 0x8, addend: 0x0, symName: __ZNKSt3__111__wrap_iterIPNS_5tupleIJiiiEEEE4baseB8ne180100Ev, symObjAddr: 0x2FD0, symBinAddr: 0x1000183A8, symSize: 0x18 }
  - { offset: 0x5787A, size: 0x8, addend: 0x0, symName: __ZNKSt3__112__tuple_leafILm0EiLb0EE3getB8ne180100Ev, symObjAddr: 0x2FE8, symBinAddr: 0x1000183C0, symSize: 0x14 }
  - { offset: 0x5789E, size: 0x8, addend: 0x0, symName: __ZNKSt3__112__tuple_leafILm1EiLb0EE3getB8ne180100Ev, symObjAddr: 0x2FFC, symBinAddr: 0x1000183D4, symSize: 0x14 }
  - { offset: 0x578C2, size: 0x8, addend: 0x0, symName: __ZNKSt3__112__tuple_leafILm2EiLb0EE3getB8ne180100Ev, symObjAddr: 0x3010, symBinAddr: 0x1000183E8, symSize: 0x14 }
  - { offset: 0x578E6, size: 0x8, addend: 0x0, symName: __ZNSt3__16vectorINS_4pairIiNS1_IiiEEEENS_9allocatorIS3_EEE22__construct_one_at_endB8ne180100IJS3_EEEvDpOT_, symObjAddr: 0x304C, symBinAddr: 0x1000183FC, symSize: 0x90 }
  - { offset: 0x57933, size: 0x8, addend: 0x0, symName: __ZNSt3__16vectorINS_4pairIiNS1_IiiEEEENS_9allocatorIS3_EEE21__push_back_slow_pathIS3_EEPS3_OT_, symObjAddr: 0x30DC, symBinAddr: 0x10001848C, symSize: 0xE8 }
  - { offset: 0x579A9, size: 0x8, addend: 0x0, symName: __ZNSt3__116allocator_traitsINS_9allocatorINS_4pairIiNS2_IiiEEEEEEE9constructB8ne180100IS4_JS4_EvvEEvRS5_PT_DpOT0_, symObjAddr: 0x3238, symBinAddr: 0x100018574, symSize: 0x30 }
  - { offset: 0x579FD, size: 0x8, addend: 0x0, symName: __ZNKSt3__16vectorINS_4pairIiNS1_IiiEEEENS_9allocatorIS3_EEE11__recommendB8ne180100Em, symObjAddr: 0x33CC, symBinAddr: 0x1000185FC, symSize: 0xB4 }
  - { offset: 0x57A50, size: 0x8, addend: 0x0, symName: __ZNSt3__114__split_bufferINS_4pairIiNS1_IiiEEEERNS_9allocatorIS3_EEEC1EmmS6_, symObjAddr: 0x34A8, symBinAddr: 0x1000186B0, symSize: 0x44 }
  - { offset: 0x57AA4, size: 0x8, addend: 0x0, symName: __ZNSt3__114__split_bufferINS_4pairIiNS1_IiiEEEERNS_9allocatorIS3_EEED1Ev, symObjAddr: 0x35FC, symBinAddr: 0x100018804, symSize: 0x2C }
  - { offset: 0x57AEC, size: 0x8, addend: 0x0, symName: __ZNSt3__114__split_bufferINS_4pairIiNS1_IiiEEEERNS_9allocatorIS3_EEEC2EmmS6_, symObjAddr: 0x3A14, symBinAddr: 0x100018830, symSize: 0xE0 }
  - { offset: 0x57B5D, size: 0x8, addend: 0x0, symName: __ZNSt3__117__compressed_pairIPNS_4pairIiNS1_IiiEEEERNS_9allocatorIS3_EEEC1B8ne180100IDnS7_EEOT_OT0_, symObjAddr: 0x3AF4, symBinAddr: 0x100018910, symSize: 0x3C }
  - { offset: 0x57BB3, size: 0x8, addend: 0x0, symName: __ZNSt3__114__split_bufferINS_4pairIiNS1_IiiEEEERNS_9allocatorIS3_EEE7__allocB8ne180100Ev, symObjAddr: 0x3B70, symBinAddr: 0x10001894C, symSize: 0x28 }
  - { offset: 0x57BD7, size: 0x8, addend: 0x0, symName: __ZNSt3__114__split_bufferINS_4pairIiNS1_IiiEEEERNS_9allocatorIS3_EEE9__end_capB8ne180100Ev, symObjAddr: 0x3B98, symBinAddr: 0x100018974, symSize: 0x28 }
  - { offset: 0x57BFB, size: 0x8, addend: 0x0, symName: __ZNSt3__117__compressed_pairIPNS_4pairIiNS1_IiiEEEERNS_9allocatorIS3_EEEC2B8ne180100IDnS7_EEOT_OT0_, symObjAddr: 0x3BC0, symBinAddr: 0x10001899C, symSize: 0x48 }
  - { offset: 0x57C52, size: 0x8, addend: 0x0, symName: __ZNSt3__122__compressed_pair_elemIRNS_9allocatorINS_4pairIiNS2_IiiEEEEEELi1ELb0EEC2B8ne180100IS6_vEEOT_, symObjAddr: 0x3C08, symBinAddr: 0x1000189E4, symSize: 0x20 }
  - { offset: 0x57C92, size: 0x8, addend: 0x0, symName: __ZNSt3__117__compressed_pairIPNS_4pairIiNS1_IiiEEEERNS_9allocatorIS3_EEE6secondB8ne180100Ev, symObjAddr: 0x3D88, symBinAddr: 0x100018A04, symSize: 0x28 }
  - { offset: 0x57CB6, size: 0x8, addend: 0x0, symName: __ZNSt3__122__compressed_pair_elemIRNS_9allocatorINS_4pairIiNS2_IiiEEEEEELi1ELb0EE5__getB8ne180100Ev, symObjAddr: 0x3DB0, symBinAddr: 0x100018A2C, symSize: 0x18 }
  - { offset: 0x57CDA, size: 0x8, addend: 0x0, symName: __ZNSt3__117__compressed_pairIPNS_4pairIiNS1_IiiEEEERNS_9allocatorIS3_EEE5firstB8ne180100Ev, symObjAddr: 0x3DC8, symBinAddr: 0x100018A44, symSize: 0x24 }
  - { offset: 0x57CFE, size: 0x8, addend: 0x0, symName: __ZNSt3__129_AllocatorDestroyRangeReverseINS_9allocatorINS_4pairIiNS2_IiiEEEEEENS_16reverse_iteratorIPS4_EEEC1B8ne180100ERS5_RS8_SB_, symObjAddr: 0x4010, symBinAddr: 0x100018C1C, symSize: 0x44 }
  - { offset: 0x57D53, size: 0x8, addend: 0x0, symName: __ZNKSt3__116reverse_iteratorIPNS_4pairIiNS1_IiiEEEEEdeB8ne180100Ev, symObjAddr: 0x40C0, symBinAddr: 0x100018C60, symSize: 0x28 }
  - { offset: 0x57D85, size: 0x8, addend: 0x0, symName: __ZNSt3__128__exception_guard_exceptionsINS_29_AllocatorDestroyRangeReverseINS_9allocatorINS_4pairIiNS3_IiiEEEEEENS_16reverse_iteratorIPS5_EEEEE10__completeB8ne180100Ev, symObjAddr: 0x4108, symBinAddr: 0x100018C88, symSize: 0x1C }
  - { offset: 0x57DA9, size: 0x8, addend: 0x0, symName: __ZNSt3__128__exception_guard_exceptionsINS_29_AllocatorDestroyRangeReverseINS_9allocatorINS_4pairIiNS3_IiiEEEEEENS_16reverse_iteratorIPS5_EEEEED1B8ne180100Ev, symObjAddr: 0x4124, symBinAddr: 0x100018CA4, symSize: 0x2C }
  - { offset: 0x57DD1, size: 0x8, addend: 0x0, symName: __ZNSt3__128__exception_guard_exceptionsINS_29_AllocatorDestroyRangeReverseINS_9allocatorINS_4pairIiNS3_IiiEEEEEENS_16reverse_iteratorIPS5_EEEEEC1B8ne180100ESA_, symObjAddr: 0x4150, symBinAddr: 0x100018CD0, symSize: 0x34 }
  - { offset: 0x57E09, size: 0x8, addend: 0x0, symName: __ZNSt3__128__exception_guard_exceptionsINS_29_AllocatorDestroyRangeReverseINS_9allocatorINS_4pairIiNS3_IiiEEEEEENS_16reverse_iteratorIPS5_EEEEEC2B8ne180100ESA_, symObjAddr: 0x4184, symBinAddr: 0x100018D04, symSize: 0x30 }
  - { offset: 0x57E41, size: 0x8, addend: 0x0, symName: __ZNSt3__129_AllocatorDestroyRangeReverseINS_9allocatorINS_4pairIiNS2_IiiEEEEEENS_16reverse_iteratorIPS4_EEEC2B8ne180100ERS5_RS8_SB_, symObjAddr: 0x41B4, symBinAddr: 0x100018D34, symSize: 0x38 }
  - { offset: 0x57E96, size: 0x8, addend: 0x0, symName: __ZNSt3__128__exception_guard_exceptionsINS_29_AllocatorDestroyRangeReverseINS_9allocatorINS_4pairIiNS3_IiiEEEEEENS_16reverse_iteratorIPS5_EEEEED2B8ne180100Ev, symObjAddr: 0x4308, symBinAddr: 0x100018D6C, symSize: 0x50 }
  - { offset: 0x57EBE, size: 0x8, addend: 0x0, symName: __ZNKSt3__129_AllocatorDestroyRangeReverseINS_9allocatorINS_4pairIiNS2_IiiEEEEEENS_16reverse_iteratorIPS4_EEEclB8ne180100Ev, symObjAddr: 0x4358, symBinAddr: 0x100018DBC, symSize: 0xB4 }
  - { offset: 0x57EE3, size: 0x8, addend: 0x0, symName: __ZNSt3__116reverse_iteratorINS0_IPNS_4pairIiNS1_IiiEEEEEEEC1B8ne180100ES5_, symObjAddr: 0x447C, symBinAddr: 0x100018EE0, symSize: 0x3C }
  - { offset: 0x57F19, size: 0x8, addend: 0x0, symName: __ZNSt3__116reverse_iteratorINS0_IPNS_4pairIiNS1_IiiEEEEEEEppB8ne180100Ev, symObjAddr: 0x4564, symBinAddr: 0x100018FA0, symSize: 0x30 }
  - { offset: 0x57F3D, size: 0x8, addend: 0x0, symName: __ZNKSt3__116reverse_iteratorINS0_IPNS_4pairIiNS1_IiiEEEEEEE4baseB8ne180100Ev, symObjAddr: 0x4594, symBinAddr: 0x100018FD0, symSize: 0x24 }
  - { offset: 0x57F67, size: 0x8, addend: 0x0, symName: __ZNSt3__119__to_address_helperINS_16reverse_iteratorINS1_IPNS_4pairIiNS2_IiiEEEEEEEEvE6__callB8ne180100ERKS7_, symObjAddr: 0x45C8, symBinAddr: 0x100018FF4, symSize: 0x38 }
  - { offset: 0x57F89, size: 0x8, addend: 0x0, symName: __ZNKSt3__116reverse_iteratorINS0_IPNS_4pairIiNS1_IiiEEEEEEEptB8ne180100Ev, symObjAddr: 0x4600, symBinAddr: 0x10001902C, symSize: 0x4C }
  - { offset: 0x57FAD, size: 0x8, addend: 0x0, symName: __ZNSt3__116reverse_iteratorIPNS_4pairIiNS1_IiiEEEEEpLB8ne180100El, symObjAddr: 0x46FC, symBinAddr: 0x100019128, symSize: 0x30 }
  - { offset: 0x57FDF, size: 0x8, addend: 0x0, symName: __ZNSt3__116reverse_iteratorIPNS_4pairIiNS1_IiiEEEEEmmB8ne180100Ev, symObjAddr: 0x472C, symBinAddr: 0x100019158, symSize: 0x20 }
  - { offset: 0x58004, size: 0x8, addend: 0x0, symName: __ZNSt3__116reverse_iteratorINS0_IPNS_4pairIiNS1_IiiEEEEEEEC2B8ne180100ES5_, symObjAddr: 0x474C, symBinAddr: 0x100019178, symSize: 0x2C }
  - { offset: 0x5803A, size: 0x8, addend: 0x0, symName: __ZNSt3__114__split_bufferINS_4pairIiNS1_IiiEEEERNS_9allocatorIS3_EEED2Ev, symObjAddr: 0x47A0, symBinAddr: 0x1000191A4, symSize: 0x8C }
  - { offset: 0x58064, size: 0x8, addend: 0x0, symName: __ZNSt3__114__split_bufferINS_4pairIiNS1_IiiEEEERNS_9allocatorIS3_EEE5clearB8ne180100Ev, symObjAddr: 0x482C, symBinAddr: 0x100019230, symSize: 0x28 }
  - { offset: 0x58088, size: 0x8, addend: 0x0, symName: __ZNKSt3__114__split_bufferINS_4pairIiNS1_IiiEEEERNS_9allocatorIS3_EEE8capacityB8ne180100Ev, symObjAddr: 0x4888, symBinAddr: 0x100019258, symSize: 0x40 }
  - { offset: 0x580AC, size: 0x8, addend: 0x0, symName: __ZNSt3__114__split_bufferINS_4pairIiNS1_IiiEEEERNS_9allocatorIS3_EEE17__destruct_at_endB8ne180100EPS3_, symObjAddr: 0x48C8, symBinAddr: 0x100019298, symSize: 0x2C }
  - { offset: 0x580DE, size: 0x8, addend: 0x0, symName: __ZNSt3__114__split_bufferINS_4pairIiNS1_IiiEEEERNS_9allocatorIS3_EEE17__destruct_at_endB8ne180100EPS3_NS_17integral_constantIbLb0EEE, symObjAddr: 0x48F4, symBinAddr: 0x1000192C4, symSize: 0x80 }
  - { offset: 0x5811C, size: 0x8, addend: 0x0, symName: __ZNKSt3__114__split_bufferINS_4pairIiNS1_IiiEEEERNS_9allocatorIS3_EEE9__end_capB8ne180100Ev, symObjAddr: 0x4AC0, symBinAddr: 0x100019344, symSize: 0x28 }
  - { offset: 0x58140, size: 0x8, addend: 0x0, symName: __ZNKSt3__117__compressed_pairIPNS_4pairIiNS1_IiiEEEERNS_9allocatorIS3_EEE5firstB8ne180100Ev, symObjAddr: 0x4AE8, symBinAddr: 0x10001936C, symSize: 0x24 }
  - { offset: 0x58165, size: 0x8, addend: 0x0, symName: __ZNSt3__14pairIiNS0_IiiEEEC2B8ne180100ILb1ELi0EEERKiRKS1_, symObjAddr: 0x4B40, symBinAddr: 0x100019390, symSize: 0x34 }
  - { offset: 0x581BE, size: 0x8, addend: 0x0, symName: __ZN6Parser9GraphDataD2Ev, symObjAddr: 0x5828, symBinAddr: 0x1000193C4, symSize: 0x30 }
  - { offset: 0x581E8, size: 0x8, addend: 0x0, symName: __ZNSt3__16vectorINS_5tupleIJiiiEEENS_9allocatorIS2_EEED1B8ne180100Ev, symObjAddr: 0x5858, symBinAddr: 0x1000193F4, symSize: 0x2C }
  - { offset: 0x58210, size: 0x8, addend: 0x0, symName: __ZNSt3__16vectorINS_5tupleIJiiiEEENS_9allocatorIS2_EEED2B8ne180100Ev, symObjAddr: 0x5884, symBinAddr: 0x100019420, symSize: 0x44 }
  - { offset: 0x58238, size: 0x8, addend: 0x0, symName: __ZNSt3__16vectorINS_5tupleIJiiiEEENS_9allocatorIS2_EEE16__destroy_vectorC1B8ne180100ERS5_, symObjAddr: 0x58C8, symBinAddr: 0x100019464, symSize: 0x34 }
  - { offset: 0x5826F, size: 0x8, addend: 0x0, symName: __ZNSt3__16vectorINS_5tupleIJiiiEEENS_9allocatorIS2_EEE16__destroy_vectorclB8ne180100Ev, symObjAddr: 0x58FC, symBinAddr: 0x100019498, symSize: 0x90 }
  - { offset: 0x58294, size: 0x8, addend: 0x0, symName: __ZNSt3__16vectorINS_5tupleIJiiiEEENS_9allocatorIS2_EEE16__destroy_vectorC2B8ne180100ERS5_, symObjAddr: 0x598C, symBinAddr: 0x100019528, symSize: 0x20 }
  - { offset: 0x582CB, size: 0x8, addend: 0x0, symName: __ZNSt3__16vectorINS_5tupleIJiiiEEENS_9allocatorIS2_EEE7__clearB8ne180100Ev, symObjAddr: 0x59AC, symBinAddr: 0x100019548, symSize: 0x28 }
  - { offset: 0x582EF, size: 0x8, addend: 0x0, symName: __ZNKSt3__16vectorINS_5tupleIJiiiEEENS_9allocatorIS2_EEE17__annotate_deleteB8ne180100Ev, symObjAddr: 0x59D4, symBinAddr: 0x100019570, symSize: 0x10 }
  - { offset: 0x58314, size: 0x8, addend: 0x0, symName: __ZNSt3__116allocator_traitsINS_9allocatorINS_5tupleIJiiiEEEEEE10deallocateB8ne180100ERS4_PS3_m, symObjAddr: 0x59E4, symBinAddr: 0x100019580, symSize: 0x34 }
  - { offset: 0x58355, size: 0x8, addend: 0x0, symName: __ZNSt3__16vectorINS_5tupleIJiiiEEENS_9allocatorIS2_EEE7__allocB8ne180100Ev, symObjAddr: 0x5A18, symBinAddr: 0x1000195B4, symSize: 0x28 }
  - { offset: 0x58379, size: 0x8, addend: 0x0, symName: __ZNKSt3__16vectorINS_5tupleIJiiiEEENS_9allocatorIS2_EEE8capacityB8ne180100Ev, symObjAddr: 0x5A40, symBinAddr: 0x1000195DC, symSize: 0x40 }
  - { offset: 0x5839D, size: 0x8, addend: 0x0, symName: __ZNSt3__16vectorINS_5tupleIJiiiEEENS_9allocatorIS2_EEE22__base_destruct_at_endB8ne180100EPS2_, symObjAddr: 0x5A80, symBinAddr: 0x10001961C, symSize: 0x8C }
  - { offset: 0x583E0, size: 0x8, addend: 0x0, symName: __ZNSt3__116allocator_traitsINS_9allocatorINS_5tupleIJiiiEEEEEE7destroyB8ne180100IS3_vvEEvRS4_PT_, symObjAddr: 0x5B0C, symBinAddr: 0x1000196A8, symSize: 0x28 }
  - { offset: 0x5841A, size: 0x8, addend: 0x0, symName: __ZNSt3__19allocatorINS_5tupleIJiiiEEEE10deallocateB8ne180100EPS2_m, symObjAddr: 0x5B58, symBinAddr: 0x1000196F4, symSize: 0x44 }
  - { offset: 0x5845A, size: 0x8, addend: 0x0, symName: __ZNSt3__117__compressed_pairIPNS_5tupleIJiiiEEENS_9allocatorIS2_EEE6secondB8ne180100Ev, symObjAddr: 0x5B9C, symBinAddr: 0x100019738, symSize: 0x24 }
  - { offset: 0x5847E, size: 0x8, addend: 0x0, symName: __ZNSt3__122__compressed_pair_elemINS_9allocatorINS_5tupleIJiiiEEEEELi1ELb1EE5__getB8ne180100Ev, symObjAddr: 0x5BC0, symBinAddr: 0x10001975C, symSize: 0x14 }
  - { offset: 0x584A2, size: 0x8, addend: 0x0, symName: __ZNKSt3__16vectorINS_5tupleIJiiiEEENS_9allocatorIS2_EEE9__end_capB8ne180100Ev, symObjAddr: 0x5BD4, symBinAddr: 0x100019770, symSize: 0x28 }
  - { offset: 0x584C6, size: 0x8, addend: 0x0, symName: __ZNKSt3__117__compressed_pairIPNS_5tupleIJiiiEEENS_9allocatorIS2_EEE5firstB8ne180100Ev, symObjAddr: 0x5BFC, symBinAddr: 0x100019798, symSize: 0x24 }
  - { offset: 0x584EA, size: 0x8, addend: 0x0, symName: __ZNKSt3__122__compressed_pair_elemIPNS_5tupleIJiiiEEELi0ELb0EE5__getB8ne180100Ev, symObjAddr: 0x5C20, symBinAddr: 0x1000197BC, symSize: 0x14 }
  - { offset: 0x5850E, size: 0x8, addend: 0x0, symName: __ZN6Parser9GraphDataC2Ev, symObjAddr: 0x5C34, symBinAddr: 0x1000197D0, symSize: 0x40 }
  - { offset: 0x58538, size: 0x8, addend: 0x0, symName: __ZNSt3__16vectorINS_5tupleIJiiiEEENS_9allocatorIS2_EEEC1B8ne180100Ev, symObjAddr: 0x5C74, symBinAddr: 0x100019810, symSize: 0x2C }
  - { offset: 0x58560, size: 0x8, addend: 0x0, symName: __ZNSt3__16vectorINS_5tupleIJiiiEEENS_9allocatorIS2_EEEC2B8ne180100Ev, symObjAddr: 0x5CA0, symBinAddr: 0x10001983C, symSize: 0x4C }
  - { offset: 0x58588, size: 0x8, addend: 0x0, symName: __ZNSt3__117__compressed_pairIPNS_5tupleIJiiiEEENS_9allocatorIS2_EEEC1B8ne180100IDnNS_18__default_init_tagEEEOT_OT0_, symObjAddr: 0x5CEC, symBinAddr: 0x100019888, symSize: 0x3C }
  - { offset: 0x585DE, size: 0x8, addend: 0x0, symName: __ZNSt3__117__compressed_pairIPNS_5tupleIJiiiEEENS_9allocatorIS2_EEEC2B8ne180100IDnNS_18__default_init_tagEEEOT_OT0_, symObjAddr: 0x5D28, symBinAddr: 0x1000198C4, symSize: 0x40 }
  - { offset: 0x58635, size: 0x8, addend: 0x0, symName: __ZNSt3__122__compressed_pair_elemIPNS_5tupleIJiiiEEELi0ELb0EEC2B8ne180100IDnvEEOT_, symObjAddr: 0x5D68, symBinAddr: 0x100019904, symSize: 0x1C }
  - { offset: 0x58675, size: 0x8, addend: 0x0, symName: __ZNSt3__122__compressed_pair_elemINS_9allocatorINS_5tupleIJiiiEEEEELi1ELb1EEC2B8ne180100ENS_18__default_init_tagE, symObjAddr: 0x5D84, symBinAddr: 0x100019920, symSize: 0x2C }
  - { offset: 0x586A7, size: 0x8, addend: 0x0, symName: __ZNSt3__19allocatorINS_5tupleIJiiiEEEEC2B8ne180100Ev, symObjAddr: 0x5DB0, symBinAddr: 0x10001994C, symSize: 0x2C }
  - { offset: 0x586D0, size: 0x8, addend: 0x0, symName: __ZNSt3__116__non_trivial_ifILb1ENS_9allocatorINS_5tupleIJiiiEEEEEEC2B8ne180100Ev, symObjAddr: 0x5DDC, symBinAddr: 0x100019978, symSize: 0x14 }
  - { offset: 0x586F8, size: 0x8, addend: 0x0, symName: __ZNSt3__112basic_stringIcNS_11char_traitsIcEENS_9allocatorIcEEE13__move_assignB8ne180100ERS5_NS_17integral_constantIbLb1EEE, symObjAddr: 0x5DF0, symBinAddr: 0x10001998C, symSize: 0x17C }
  - { offset: 0x58758, size: 0x8, addend: 0x0, symName: __ZNSt3__116allocator_traitsINS_9allocatorIcEEE10deallocateB8ne180100ERS2_Pcm, symObjAddr: 0x5F6C, symBinAddr: 0x100019B08, symSize: 0x34 }
  - { offset: 0x58799, size: 0x8, addend: 0x0, symName: __ZNKSt3__112basic_stringIcNS_11char_traitsIcEENS_9allocatorIcEEE14__get_long_capB8ne180100Ev, symObjAddr: 0x5FC4, symBinAddr: 0x100019B3C, symSize: 0x30 }
  - { offset: 0x587BD, size: 0x8, addend: 0x0, symName: __ZNSt3__112basic_stringIcNS_11char_traitsIcEENS_9allocatorIcEEE19__move_assign_allocB8ne180100ERS5_, symObjAddr: 0x5FF4, symBinAddr: 0x100019B6C, symSize: 0x2C }
  - { offset: 0x587F1, size: 0x8, addend: 0x0, symName: __ZNSt3__111char_traitsIcE6assignB8ne180100ERcRKc, symObjAddr: 0x6098, symBinAddr: 0x100019B98, symSize: 0x24 }
  - { offset: 0x58821, size: 0x8, addend: 0x0, symName: __ZNKSt3__112basic_stringIcNS_11char_traitsIcEENS_9allocatorIcEEE17__annotate_shrinkB8ne180100Em, symObjAddr: 0x60BC, symBinAddr: 0x100019BBC, symSize: 0x14 }
  - { offset: 0x58854, size: 0x8, addend: 0x0, symName: __ZNSt3__19allocatorIcE10deallocateB8ne180100EPcm, symObjAddr: 0x60D0, symBinAddr: 0x100019BD0, symSize: 0x40 }
  - { offset: 0x58894, size: 0x8, addend: 0x0, symName: __ZNSt3__112basic_stringIcNS_11char_traitsIcEENS_9allocatorIcEEE19__move_assign_allocB8ne180100ERS5_NS_17integral_constantIbLb1EEE, symObjAddr: 0x6148, symBinAddr: 0x100019C10, symSize: 0x38 }
  - { offset: 0x588D3, size: 0x8, addend: 0x0, symName: __ZNSt3__16vectorINS_5tupleIJiiiEEENS_9allocatorIS2_EEE9__end_capB8ne180100Ev, symObjAddr: 0x6524, symBinAddr: 0x100019C48, symSize: 0x28 }
  - { offset: 0x588F7, size: 0x8, addend: 0x0, symName: __ZNSt3__16vectorINS_5tupleIJiiiEEENS_9allocatorIS2_EEE22__construct_one_at_endB8ne180100IJRiS7_S7_EEEvDpOT_, symObjAddr: 0x654C, symBinAddr: 0x100019C70, symSize: 0xA0 }
  - { offset: 0x5896C, size: 0x8, addend: 0x0, symName: __ZNSt3__16vectorINS_5tupleIJiiiEEENS_9allocatorIS2_EEE24__emplace_back_slow_pathIJRiS7_S7_EEEPS2_DpOT_, symObjAddr: 0x65EC, symBinAddr: 0x100019D10, symSize: 0xF8 }
  - { offset: 0x589F2, size: 0x8, addend: 0x0, symName: __ZNSt3__117__compressed_pairIPNS_5tupleIJiiiEEENS_9allocatorIS2_EEE5firstB8ne180100Ev, symObjAddr: 0x66E4, symBinAddr: 0x100019E08, symSize: 0x24 }
  - { offset: 0x58A16, size: 0x8, addend: 0x0, symName: __ZNSt3__122__compressed_pair_elemIPNS_5tupleIJiiiEEELi0ELb0EE5__getB8ne180100Ev, symObjAddr: 0x6708, symBinAddr: 0x100019E2C, symSize: 0x14 }
  - { offset: 0x58A53, size: 0x8, addend: 0x0, symName: __ZNSt3__16vectorINS_5tupleIJiiiEEENS_9allocatorIS2_EEE21_ConstructTransactionC1B8ne180100ERS5_m, symObjAddr: 0x671C, symBinAddr: 0x100019E40, symSize: 0x3C }
  - { offset: 0x58A9A, size: 0x8, addend: 0x0, symName: __ZNSt3__116allocator_traitsINS_9allocatorINS_5tupleIJiiiEEEEEE9constructB8ne180100IS3_JRiS7_S7_EvvEEvRS4_PT_DpOT0_, symObjAddr: 0x6758, symBinAddr: 0x100019E7C, symSize: 0x40 }
  - { offset: 0x58B16, size: 0x8, addend: 0x0, symName: __ZNSt3__16vectorINS_5tupleIJiiiEEENS_9allocatorIS2_EEE21_ConstructTransactionD1B8ne180100Ev, symObjAddr: 0x6798, symBinAddr: 0x100019EBC, symSize: 0x2C }
  - { offset: 0x58B3F, size: 0x8, addend: 0x0, symName: __ZNSt3__16vectorINS_5tupleIJiiiEEENS_9allocatorIS2_EEE21_ConstructTransactionC2B8ne180100ERS5_m, symObjAddr: 0x67C4, symBinAddr: 0x100019EE8, symSize: 0x4C }
  - { offset: 0x58B85, size: 0x8, addend: 0x0, symName: __ZNSt3__15tupleIJiiiEEC1B8ne180100IJRiS3_S3_ELi0EEEDpOT_, symObjAddr: 0x6890, symBinAddr: 0x100019FB4, symSize: 0x44 }
  - { offset: 0x58BF5, size: 0x8, addend: 0x0, symName: __ZNSt3__15tupleIJiiiEEC2B8ne180100IJRiS3_S3_ELi0EEEDpOT_, symObjAddr: 0x68D4, symBinAddr: 0x100019FF8, symSize: 0x44 }
  - { offset: 0x58C65, size: 0x8, addend: 0x0, symName: __ZNSt3__112__tuple_implINS_15__tuple_indicesIJLm0ELm1ELm2EEEEJiiiEEC1B8ne180100IJLm0ELm1ELm2EEJiiiEJEJEJRiS5_S5_EEENS1_IJXspT_EEEENS_13__tuple_typesIJDpT0_EEENS1_IJXspT1_EEEENS7_IJDpT2_EEEDpOT3_, symObjAddr: 0x6918, symBinAddr: 0x10001A03C, symSize: 0x44 }
  - { offset: 0x58D36, size: 0x8, addend: 0x0, symName: __ZNSt3__112__tuple_implINS_15__tuple_indicesIJLm0ELm1ELm2EEEEJiiiEEC2B8ne180100IJLm0ELm1ELm2EEJiiiEJEJEJRiS5_S5_EEENS1_IJXspT_EEEENS_13__tuple_typesIJDpT0_EEENS1_IJXspT1_EEEENS7_IJDpT2_EEEDpOT3_, symObjAddr: 0x695C, symBinAddr: 0x10001A080, symSize: 0x5C }
  - { offset: 0x58E08, size: 0x8, addend: 0x0, symName: __ZNSt3__112__tuple_leafILm0EiLb0EEC2B8ne180100IRivEEOT_, symObjAddr: 0x69B8, symBinAddr: 0x10001A0DC, symSize: 0x24 }
  - { offset: 0x58E4A, size: 0x8, addend: 0x0, symName: __ZNSt3__112__tuple_leafILm1EiLb0EEC2B8ne180100IRivEEOT_, symObjAddr: 0x69DC, symBinAddr: 0x10001A100, symSize: 0x24 }
  - { offset: 0x58E8C, size: 0x8, addend: 0x0, symName: __ZNSt3__112__tuple_leafILm2EiLb0EEC2B8ne180100IRivEEOT_, symObjAddr: 0x6A00, symBinAddr: 0x10001A124, symSize: 0x24 }
  - { offset: 0x58ECE, size: 0x8, addend: 0x0, symName: __ZNSt3__16vectorINS_5tupleIJiiiEEENS_9allocatorIS2_EEE21_ConstructTransactionD2B8ne180100Ev, symObjAddr: 0x6A24, symBinAddr: 0x10001A148, symSize: 0x20 }
  - { offset: 0x58EF6, size: 0x8, addend: 0x0, symName: __ZNKSt3__16vectorINS_5tupleIJiiiEEENS_9allocatorIS2_EEE11__recommendB8ne180100Em, symObjAddr: 0x6A44, symBinAddr: 0x10001A168, symSize: 0xB4 }
  - { offset: 0x58F49, size: 0x8, addend: 0x0, symName: __ZNSt3__114__split_bufferINS_5tupleIJiiiEEERNS_9allocatorIS2_EEEC1EmmS5_, symObjAddr: 0x6AF8, symBinAddr: 0x10001A21C, symSize: 0x44 }
  - { offset: 0x58F9D, size: 0x8, addend: 0x0, symName: __ZNSt3__114__split_bufferINS_5tupleIJiiiEEERNS_9allocatorIS2_EEED1Ev, symObjAddr: 0x6C4C, symBinAddr: 0x10001A370, symSize: 0x2C }
  - { offset: 0x58FC7, size: 0x8, addend: 0x0, symName: __ZNKSt3__16vectorINS_5tupleIJiiiEEENS_9allocatorIS2_EEE8max_sizeEv, symObjAddr: 0x6C78, symBinAddr: 0x10001A39C, symSize: 0x60 }
  - { offset: 0x58FED, size: 0x8, addend: 0x0, symName: __ZNKSt3__16vectorINS_5tupleIJiiiEEENS_9allocatorIS2_EEE20__throw_length_errorB8ne180100Ev, symObjAddr: 0x6CD8, symBinAddr: 0x10001A3FC, symSize: 0x1C }
  - { offset: 0x5901C, size: 0x8, addend: 0x0, symName: __ZNSt3__116allocator_traitsINS_9allocatorINS_5tupleIJiiiEEEEEE8max_sizeB8ne180100IS4_vvEEmRKS4_, symObjAddr: 0x6CF4, symBinAddr: 0x10001A418, symSize: 0x28 }
  - { offset: 0x59047, size: 0x8, addend: 0x0, symName: __ZNKSt3__16vectorINS_5tupleIJiiiEEENS_9allocatorIS2_EEE7__allocB8ne180100Ev, symObjAddr: 0x6D1C, symBinAddr: 0x10001A440, symSize: 0x28 }
  - { offset: 0x5906B, size: 0x8, addend: 0x0, symName: __ZNKSt3__117__compressed_pairIPNS_5tupleIJiiiEEENS_9allocatorIS2_EEE6secondB8ne180100Ev, symObjAddr: 0x6D44, symBinAddr: 0x10001A468, symSize: 0x24 }
  - { offset: 0x5908F, size: 0x8, addend: 0x0, symName: __ZNKSt3__122__compressed_pair_elemINS_9allocatorINS_5tupleIJiiiEEEEELi1ELb1EE5__getB8ne180100Ev, symObjAddr: 0x6D68, symBinAddr: 0x10001A48C, symSize: 0x14 }
  - { offset: 0x590B3, size: 0x8, addend: 0x0, symName: __ZNSt3__114__split_bufferINS_5tupleIJiiiEEERNS_9allocatorIS2_EEEC2EmmS5_, symObjAddr: 0x6D7C, symBinAddr: 0x10001A4A0, symSize: 0xE0 }
  - { offset: 0x59124, size: 0x8, addend: 0x0, symName: __ZNSt3__117__compressed_pairIPNS_5tupleIJiiiEEERNS_9allocatorIS2_EEEC1B8ne180100IDnS6_EEOT_OT0_, symObjAddr: 0x6E5C, symBinAddr: 0x10001A580, symSize: 0x3C }
  - { offset: 0x5917A, size: 0x8, addend: 0x0, symName: __ZNSt3__114__split_bufferINS_5tupleIJiiiEEERNS_9allocatorIS2_EEE7__allocB8ne180100Ev, symObjAddr: 0x6ED8, symBinAddr: 0x10001A5FC, symSize: 0x28 }
  - { offset: 0x5919E, size: 0x8, addend: 0x0, symName: __ZNSt3__114__split_bufferINS_5tupleIJiiiEEERNS_9allocatorIS2_EEE9__end_capB8ne180100Ev, symObjAddr: 0x6F00, symBinAddr: 0x10001A624, symSize: 0x28 }
  - { offset: 0x591C2, size: 0x8, addend: 0x0, symName: __ZNSt3__117__compressed_pairIPNS_5tupleIJiiiEEERNS_9allocatorIS2_EEEC2B8ne180100IDnS6_EEOT_OT0_, symObjAddr: 0x6F28, symBinAddr: 0x10001A64C, symSize: 0x48 }
  - { offset: 0x59219, size: 0x8, addend: 0x0, symName: __ZNSt3__122__compressed_pair_elemIRNS_9allocatorINS_5tupleIJiiiEEEEELi1ELb0EEC2B8ne180100IS5_vEEOT_, symObjAddr: 0x6F70, symBinAddr: 0x10001A694, symSize: 0x20 }
  - { offset: 0x59259, size: 0x8, addend: 0x0, symName: __ZNSt3__19allocatorINS_5tupleIJiiiEEEE8allocateB8ne180100Em, symObjAddr: 0x6F90, symBinAddr: 0x10001A6B4, symSize: 0x5C }
  - { offset: 0x5928B, size: 0x8, addend: 0x0, symName: __ZNSt3__117__compressed_pairIPNS_5tupleIJiiiEEERNS_9allocatorIS2_EEE6secondB8ne180100Ev, symObjAddr: 0x6FEC, symBinAddr: 0x10001A710, symSize: 0x28 }
  - { offset: 0x592AF, size: 0x8, addend: 0x0, symName: __ZNSt3__122__compressed_pair_elemIRNS_9allocatorINS_5tupleIJiiiEEEEELi1ELb0EE5__getB8ne180100Ev, symObjAddr: 0x7014, symBinAddr: 0x10001A738, symSize: 0x18 }
  - { offset: 0x592D3, size: 0x8, addend: 0x0, symName: __ZNSt3__117__compressed_pairIPNS_5tupleIJiiiEEERNS_9allocatorIS2_EEE5firstB8ne180100Ev, symObjAddr: 0x702C, symBinAddr: 0x10001A750, symSize: 0x24 }
  - { offset: 0x592F7, size: 0x8, addend: 0x0, symName: __ZNSt3__116reverse_iteratorIPNS_5tupleIJiiiEEEEC1B8ne180100ES3_, symObjAddr: 0x717C, symBinAddr: 0x10001A8A0, symSize: 0x34 }
  - { offset: 0x5932D, size: 0x8, addend: 0x0, symName: __ZNKSt3__116reverse_iteratorIPNS_5tupleIJiiiEEEE4baseB8ne180100Ev, symObjAddr: 0x71B0, symBinAddr: 0x10001A8D4, symSize: 0x18 }
  - { offset: 0x59351, size: 0x8, addend: 0x0, symName: __ZNKSt3__16vectorINS_5tupleIJiiiEEENS_9allocatorIS2_EEE14__annotate_newB8ne180100Em, symObjAddr: 0x7204, symBinAddr: 0x10001A928, symSize: 0x14 }
  - { offset: 0x59384, size: 0x8, addend: 0x0, symName: __ZNSt3__129_AllocatorDestroyRangeReverseINS_9allocatorINS_5tupleIJiiiEEEEENS_16reverse_iteratorIPS3_EEEC1B8ne180100ERS4_RS7_SA_, symObjAddr: 0x7264, symBinAddr: 0x10001A988, symSize: 0x44 }
  - { offset: 0x593DA, size: 0x8, addend: 0x0, symName: __ZNSt3__116allocator_traitsINS_9allocatorINS_5tupleIJiiiEEEEEE9constructB8ne180100IS3_JS3_EvvEEvRS4_PT_DpOT0_, symObjAddr: 0x72F0, symBinAddr: 0x10001AA14, symSize: 0x30 }
  - { offset: 0x5942E, size: 0x8, addend: 0x0, symName: __ZNKSt3__116reverse_iteratorIPNS_5tupleIJiiiEEEEdeB8ne180100Ev, symObjAddr: 0x7344, symBinAddr: 0x10001AA68, symSize: 0x28 }
  - { offset: 0x59460, size: 0x8, addend: 0x0, symName: __ZNSt3__116reverse_iteratorIPNS_5tupleIJiiiEEEEppB8ne180100Ev, symObjAddr: 0x736C, symBinAddr: 0x10001AA90, symSize: 0x20 }
  - { offset: 0x59484, size: 0x8, addend: 0x0, symName: __ZNSt3__128__exception_guard_exceptionsINS_29_AllocatorDestroyRangeReverseINS_9allocatorINS_5tupleIJiiiEEEEENS_16reverse_iteratorIPS4_EEEEE10__completeB8ne180100Ev, symObjAddr: 0x738C, symBinAddr: 0x10001AAB0, symSize: 0x1C }
  - { offset: 0x594A8, size: 0x8, addend: 0x0, symName: __ZNSt3__128__exception_guard_exceptionsINS_29_AllocatorDestroyRangeReverseINS_9allocatorINS_5tupleIJiiiEEEEENS_16reverse_iteratorIPS4_EEEEED1B8ne180100Ev, symObjAddr: 0x73A8, symBinAddr: 0x10001AACC, symSize: 0x2C }
  - { offset: 0x594D0, size: 0x8, addend: 0x0, symName: __ZNSt3__128__exception_guard_exceptionsINS_29_AllocatorDestroyRangeReverseINS_9allocatorINS_5tupleIJiiiEEEEENS_16reverse_iteratorIPS4_EEEEEC1B8ne180100ES9_, symObjAddr: 0x73D4, symBinAddr: 0x10001AAF8, symSize: 0x34 }
  - { offset: 0x59508, size: 0x8, addend: 0x0, symName: __ZNSt3__128__exception_guard_exceptionsINS_29_AllocatorDestroyRangeReverseINS_9allocatorINS_5tupleIJiiiEEEEENS_16reverse_iteratorIPS4_EEEEEC2B8ne180100ES9_, symObjAddr: 0x7408, symBinAddr: 0x10001AB2C, symSize: 0x30 }
  - { offset: 0x59540, size: 0x8, addend: 0x0, symName: __ZNSt3__129_AllocatorDestroyRangeReverseINS_9allocatorINS_5tupleIJiiiEEEEENS_16reverse_iteratorIPS3_EEEC2B8ne180100ERS4_RS7_SA_, symObjAddr: 0x7438, symBinAddr: 0x10001AB5C, symSize: 0x38 }
  - { offset: 0x5959B, size: 0x8, addend: 0x0, symName: __ZNSt3__119__to_address_helperINS_16reverse_iteratorIPNS_5tupleIJiiiEEEEEvE6__callB8ne180100ERKS5_, symObjAddr: 0x74C8, symBinAddr: 0x10001ABEC, symSize: 0x38 }
  - { offset: 0x595BD, size: 0x8, addend: 0x0, symName: __ZNKSt3__116reverse_iteratorIPNS_5tupleIJiiiEEEEptB8ne180100Ev, symObjAddr: 0x7500, symBinAddr: 0x10001AC24, symSize: 0x2C }
  - { offset: 0x595E1, size: 0x8, addend: 0x0, symName: __ZNSt3__128__exception_guard_exceptionsINS_29_AllocatorDestroyRangeReverseINS_9allocatorINS_5tupleIJiiiEEEEENS_16reverse_iteratorIPS4_EEEEED2B8ne180100Ev, symObjAddr: 0x75D0, symBinAddr: 0x10001ACF4, symSize: 0x50 }
  - { offset: 0x59609, size: 0x8, addend: 0x0, symName: __ZNKSt3__129_AllocatorDestroyRangeReverseINS_9allocatorINS_5tupleIJiiiEEEEENS_16reverse_iteratorIPS3_EEEclB8ne180100Ev, symObjAddr: 0x7620, symBinAddr: 0x10001AD44, symSize: 0xB4 }
  - { offset: 0x5962E, size: 0x8, addend: 0x0, symName: __ZNSt3__116reverse_iteratorINS0_IPNS_5tupleIJiiiEEEEEEC1B8ne180100ES4_, symObjAddr: 0x7744, symBinAddr: 0x10001AE68, symSize: 0x3C }
  - { offset: 0x59664, size: 0x8, addend: 0x0, symName: __ZNSt3__116reverse_iteratorINS0_IPNS_5tupleIJiiiEEEEEEppB8ne180100Ev, symObjAddr: 0x7804, symBinAddr: 0x10001AF28, symSize: 0x30 }
  - { offset: 0x59688, size: 0x8, addend: 0x0, symName: __ZNKSt3__116reverse_iteratorINS0_IPNS_5tupleIJiiiEEEEEE4baseB8ne180100Ev, symObjAddr: 0x7834, symBinAddr: 0x10001AF58, symSize: 0x24 }
  - { offset: 0x596B2, size: 0x8, addend: 0x0, symName: __ZNSt3__119__to_address_helperINS_16reverse_iteratorINS1_IPNS_5tupleIJiiiEEEEEEEvE6__callB8ne180100ERKS6_, symObjAddr: 0x7858, symBinAddr: 0x10001AF7C, symSize: 0x38 }
  - { offset: 0x596D4, size: 0x8, addend: 0x0, symName: __ZNKSt3__116reverse_iteratorINS0_IPNS_5tupleIJiiiEEEEEEptB8ne180100Ev, symObjAddr: 0x7890, symBinAddr: 0x10001AFB4, symSize: 0x4C }
  - { offset: 0x596F8, size: 0x8, addend: 0x0, symName: __ZNSt3__116reverse_iteratorIPNS_5tupleIJiiiEEEEpLB8ne180100El, symObjAddr: 0x798C, symBinAddr: 0x10001B0B0, symSize: 0x30 }
  - { offset: 0x5972A, size: 0x8, addend: 0x0, symName: __ZNSt3__116reverse_iteratorIPNS_5tupleIJiiiEEEEmmB8ne180100Ev, symObjAddr: 0x79BC, symBinAddr: 0x10001B0E0, symSize: 0x20 }
  - { offset: 0x5974F, size: 0x8, addend: 0x0, symName: __ZNSt3__116reverse_iteratorINS0_IPNS_5tupleIJiiiEEEEEEC2B8ne180100ES4_, symObjAddr: 0x79DC, symBinAddr: 0x10001B100, symSize: 0x2C }
  - { offset: 0x59786, size: 0x8, addend: 0x0, symName: __ZNSt3__116reverse_iteratorIPNS_5tupleIJiiiEEEEC2B8ne180100ES3_, symObjAddr: 0x7A08, symBinAddr: 0x10001B12C, symSize: 0x28 }
  - { offset: 0x597BC, size: 0x8, addend: 0x0, symName: __ZNSt3__114__split_bufferINS_5tupleIJiiiEEERNS_9allocatorIS2_EEED2Ev, symObjAddr: 0x7A30, symBinAddr: 0x10001B154, symSize: 0x8C }
  - { offset: 0x597E6, size: 0x8, addend: 0x0, symName: __ZNSt3__114__split_bufferINS_5tupleIJiiiEEERNS_9allocatorIS2_EEE5clearB8ne180100Ev, symObjAddr: 0x7ABC, symBinAddr: 0x10001B1E0, symSize: 0x28 }
  - { offset: 0x5980A, size: 0x8, addend: 0x0, symName: __ZNKSt3__114__split_bufferINS_5tupleIJiiiEEERNS_9allocatorIS2_EEE8capacityB8ne180100Ev, symObjAddr: 0x7AE4, symBinAddr: 0x10001B208, symSize: 0x40 }
  - { offset: 0x5982E, size: 0x8, addend: 0x0, symName: __ZNSt3__114__split_bufferINS_5tupleIJiiiEEERNS_9allocatorIS2_EEE17__destruct_at_endB8ne180100EPS2_, symObjAddr: 0x7B24, symBinAddr: 0x10001B248, symSize: 0x2C }
  - { offset: 0x59860, size: 0x8, addend: 0x0, symName: __ZNSt3__114__split_bufferINS_5tupleIJiiiEEERNS_9allocatorIS2_EEE17__destruct_at_endB8ne180100EPS2_NS_17integral_constantIbLb0EEE, symObjAddr: 0x7B50, symBinAddr: 0x10001B274, symSize: 0x80 }
  - { offset: 0x5989E, size: 0x8, addend: 0x0, symName: __ZNKSt3__114__split_bufferINS_5tupleIJiiiEEERNS_9allocatorIS2_EEE9__end_capB8ne180100Ev, symObjAddr: 0x7BD0, symBinAddr: 0x10001B2F4, symSize: 0x28 }
  - { offset: 0x598C2, size: 0x8, addend: 0x0, symName: __ZNKSt3__117__compressed_pairIPNS_5tupleIJiiiEEERNS_9allocatorIS2_EEE5firstB8ne180100Ev, symObjAddr: 0x7BF8, symBinAddr: 0x10001B31C, symSize: 0x24 }
  - { offset: 0x598E6, size: 0x8, addend: 0x0, symName: __ZNKSt3__16__lessIvvEclB8ne180100IiiEEbRKT_RKT0_, symObjAddr: 0x7C70, symBinAddr: 0x10001B394, symSize: 0x34 }
  - { offset: 0x59939, size: 0x8, addend: 0x0, symName: __ZNSt3__118basic_stringstreamIcNS_11char_traitsIcEENS_9allocatorIcEEED2Ev, symObjAddr: 0x7CA4, symBinAddr: 0x10001B3C8, symSize: 0x6C }
  - { offset: 0x59971, size: 0x8, addend: 0x0, symName: __ZThn16_NSt3__118basic_stringstreamIcNS_11char_traitsIcEENS_9allocatorIcEEED1Ev, symObjAddr: 0x7D10, symBinAddr: 0x10001B434, symSize: 0x1C }
  - { offset: 0x59988, size: 0x8, addend: 0x0, symName: __ZTv0_n24_NSt3__118basic_stringstreamIcNS_11char_traitsIcEENS_9allocatorIcEEED1Ev, symObjAddr: 0x7D2C, symBinAddr: 0x10001B450, symSize: 0x28 }
  - { offset: 0x599A4, size: 0x8, addend: 0x0, symName: __ZNSt3__115basic_stringbufIcNS_11char_traitsIcEENS_9allocatorIcEEED1Ev, symObjAddr: 0x7D54, symBinAddr: 0x10001B478, symSize: 0x2C }
  - { offset: 0x599D0, size: 0x8, addend: 0x0, symName: __ZNSt3__115basic_stringbufIcNS_11char_traitsIcEENS_9allocatorIcEEED2Ev, symObjAddr: 0x7D80, symBinAddr: 0x10001B4A4, symSize: 0x48 }
  - { offset: 0x599FC, size: 0x8, addend: 0x0, symName: __ZNSt3__114basic_ifstreamIcNS_11char_traitsIcEEED2Ev, symObjAddr: 0x7DC8, symBinAddr: 0x10001B4EC, symSize: 0x64 }
  - { offset: 0x59A34, size: 0x8, addend: 0x0, symName: __ZTv0_n24_NSt3__114basic_ifstreamIcNS_11char_traitsIcEEED1Ev, symObjAddr: 0x7E2C, symBinAddr: 0x10001B550, symSize: 0x28 }
  - { offset: 0x59A4A, size: 0x8, addend: 0x0, symName: __ZNSt3__16vectorIiNS_9allocatorIiEEEC2B8ne180100Ev, symObjAddr: 0x7E54, symBinAddr: 0x10001B578, symSize: 0x4C }
  - { offset: 0x59A77, size: 0x8, addend: 0x0, symName: __ZNSt3__16vectorIiNS_9allocatorIiEEE22__construct_one_at_endB8ne180100IJiEEEvDpOT_, symObjAddr: 0x7FCC, symBinAddr: 0x10001B5C4, symSize: 0x90 }
  - { offset: 0x59AC4, size: 0x8, addend: 0x0, symName: __ZNSt3__16vectorIiNS_9allocatorIiEEE21__push_back_slow_pathIiEEPiOT_, symObjAddr: 0x805C, symBinAddr: 0x10001B654, symSize: 0xE8 }
  - { offset: 0x59B3A, size: 0x8, addend: 0x0, symName: __ZNSt3__116allocator_traitsINS_9allocatorIiEEE9constructB8ne180100IiJiEvvEEvRS2_PT_DpOT0_, symObjAddr: 0x81B8, symBinAddr: 0x10001B73C, symSize: 0x30 }
  - { offset: 0x59B8E, size: 0x8, addend: 0x0, symName: __ZNKSt3__16vectorIiNS_9allocatorIiEEE11__recommendB8ne180100Em, symObjAddr: 0x833C, symBinAddr: 0x10001B7BC, symSize: 0xB4 }
  - { offset: 0x59BE1, size: 0x8, addend: 0x0, symName: __ZNSt3__114__split_bufferIiRNS_9allocatorIiEEEC1EmmS3_, symObjAddr: 0x83F0, symBinAddr: 0x10001B870, symSize: 0x44 }
  - { offset: 0x59C35, size: 0x8, addend: 0x0, symName: __ZNSt3__114__split_bufferIiRNS_9allocatorIiEEED1Ev, symObjAddr: 0x8544, symBinAddr: 0x10001B9C4, symSize: 0x2C }
  - { offset: 0x59C69, size: 0x8, addend: 0x0, symName: __ZNSt3__114__split_bufferIiRNS_9allocatorIiEEEC2EmmS3_, symObjAddr: 0x8714, symBinAddr: 0x10001B9F0, symSize: 0xD4 }
  - { offset: 0x59CDA, size: 0x8, addend: 0x0, symName: __ZNSt3__117__compressed_pairIPiRNS_9allocatorIiEEEC1B8ne180100IDnS4_EEOT_OT0_, symObjAddr: 0x87E8, symBinAddr: 0x10001BAC4, symSize: 0x3C }
  - { offset: 0x59D30, size: 0x8, addend: 0x0, symName: __ZNSt3__114__split_bufferIiRNS_9allocatorIiEEE7__allocB8ne180100Ev, symObjAddr: 0x8864, symBinAddr: 0x10001BB00, symSize: 0x28 }
  - { offset: 0x59D54, size: 0x8, addend: 0x0, symName: __ZNSt3__114__split_bufferIiRNS_9allocatorIiEEE9__end_capB8ne180100Ev, symObjAddr: 0x888C, symBinAddr: 0x10001BB28, symSize: 0x28 }
  - { offset: 0x59D78, size: 0x8, addend: 0x0, symName: __ZNSt3__117__compressed_pairIPiRNS_9allocatorIiEEEC2B8ne180100IDnS4_EEOT_OT0_, symObjAddr: 0x88B4, symBinAddr: 0x10001BB50, symSize: 0x48 }
  - { offset: 0x59DCF, size: 0x8, addend: 0x0, symName: __ZNSt3__122__compressed_pair_elemIRNS_9allocatorIiEELi1ELb0EEC2B8ne180100IS3_vEEOT_, symObjAddr: 0x88FC, symBinAddr: 0x10001BB98, symSize: 0x20 }
  - { offset: 0x59E0F, size: 0x8, addend: 0x0, symName: __ZNSt3__117__compressed_pairIPiRNS_9allocatorIiEEE6secondB8ne180100Ev, symObjAddr: 0x8974, symBinAddr: 0x10001BBB8, symSize: 0x28 }
  - { offset: 0x59E33, size: 0x8, addend: 0x0, symName: __ZNSt3__122__compressed_pair_elemIRNS_9allocatorIiEELi1ELb0EE5__getB8ne180100Ev, symObjAddr: 0x899C, symBinAddr: 0x10001BBE0, symSize: 0x18 }
  - { offset: 0x59E57, size: 0x8, addend: 0x0, symName: __ZNSt3__117__compressed_pairIPiRNS_9allocatorIiEEE5firstB8ne180100Ev, symObjAddr: 0x89B4, symBinAddr: 0x10001BBF8, symSize: 0x24 }
  - { offset: 0x59E9E, size: 0x8, addend: 0x0, symName: __ZNKSt3__111__move_loopINS_17_ClassicAlgPolicyEEclB8ne180100INS_16reverse_iteratorIPiEES6_S6_EENS_4pairIT_T1_EES8_T0_S9_, symObjAddr: 0x8DB4, symBinAddr: 0x10001BF88, symSize: 0xA0 }
  - { offset: 0x59F08, size: 0x8, addend: 0x0, symName: __ZNSt3__119__unwrap_range_implINS_16reverse_iteratorIPiEES3_E8__unwrapB8ne180100ES3_S3_, symObjAddr: 0x8FA0, symBinAddr: 0x10001C174, symSize: 0x84 }
  - { offset: 0x59F3D, size: 0x8, addend: 0x0, symName: __ZNSt3__14pairINS_16reverse_iteratorIPiEES3_EC1B8ne180100IS3_S3_Li0EEEOT_OT0_, symObjAddr: 0x9024, symBinAddr: 0x10001C1F8, symSize: 0x3C }
  - { offset: 0x59F9A, size: 0x8, addend: 0x0, symName: __ZNSt3__14pairINS_16reverse_iteratorIPiEES3_EC2B8ne180100IS3_S3_Li0EEEOT_OT0_, symObjAddr: 0x9060, symBinAddr: 0x10001C234, symSize: 0x34 }
  - { offset: 0x59FFC, size: 0x8, addend: 0x0, symName: __ZNSt3__18_IterOpsINS_17_ClassicAlgPolicyEE11__iter_moveB8ne180100IRNS_16reverse_iteratorIPiEELi0EEEDTclsr3stdE4movedeclsr3stdE7declvalIRT_EEEEOS8_, symObjAddr: 0x90DC, symBinAddr: 0x10001C268, symSize: 0x28 }
  - { offset: 0x5A02D, size: 0x8, addend: 0x0, symName: __ZNKSt3__116reverse_iteratorIPiEdeB8ne180100Ev, symObjAddr: 0x9104, symBinAddr: 0x10001C290, symSize: 0x28 }
  - { offset: 0x5A060, size: 0x8, addend: 0x0, symName: __ZNSt3__18_IterOpsINS_17_ClassicAlgPolicyEE25__validate_iter_referenceB8ne180100IRNS_16reverse_iteratorIPiEEEEvv, symObjAddr: 0x914C, symBinAddr: 0x10001C2B8, symSize: 0x4 }
  - { offset: 0x5A07E, size: 0x8, addend: 0x0, symName: __ZNSt3__118__unwrap_iter_implINS_16reverse_iteratorIPiEELb0EE8__unwrapB8ne180100ES3_, symObjAddr: 0x9150, symBinAddr: 0x10001C2BC, symSize: 0x24 }
  - { offset: 0x5A0A1, size: 0x8, addend: 0x0, symName: __ZNSt3__119__unwrap_range_implINS_16reverse_iteratorIPiEES3_E8__rewrapB8ne180100ES3_S3_, symObjAddr: 0x9174, symBinAddr: 0x10001C2E0, symSize: 0x5C }
  - { offset: 0x5A0D2, size: 0x8, addend: 0x0, symName: __ZNSt3__118__unwrap_iter_implINS_16reverse_iteratorIPiEELb0EE8__rewrapB8ne180100ES3_S3_, symObjAddr: 0x91D0, symBinAddr: 0x10001C33C, symSize: 0x2C }
  - { offset: 0x5A0FE, size: 0x8, addend: 0x0, symName: __ZNSt3__114__split_bufferIiRNS_9allocatorIiEEED2Ev, symObjAddr: 0x9224, symBinAddr: 0x10001C368, symSize: 0x8C }
  - { offset: 0x5A128, size: 0x8, addend: 0x0, symName: __ZNSt3__114__split_bufferIiRNS_9allocatorIiEEE5clearB8ne180100Ev, symObjAddr: 0x92B0, symBinAddr: 0x10001C3F4, symSize: 0x28 }
  - { offset: 0x5A14C, size: 0x8, addend: 0x0, symName: __ZNKSt3__114__split_bufferIiRNS_9allocatorIiEEE8capacityB8ne180100Ev, symObjAddr: 0x930C, symBinAddr: 0x10001C41C, symSize: 0x40 }
  - { offset: 0x5A170, size: 0x8, addend: 0x0, symName: __ZNSt3__114__split_bufferIiRNS_9allocatorIiEEE17__destruct_at_endB8ne180100EPi, symObjAddr: 0x934C, symBinAddr: 0x10001C45C, symSize: 0x2C }
  - { offset: 0x5A1A2, size: 0x8, addend: 0x0, symName: __ZNSt3__114__split_bufferIiRNS_9allocatorIiEEE17__destruct_at_endB8ne180100EPiNS_17integral_constantIbLb0EEE, symObjAddr: 0x9378, symBinAddr: 0x10001C488, symSize: 0x80 }
  - { offset: 0x5A1E0, size: 0x8, addend: 0x0, symName: __ZNKSt3__114__split_bufferIiRNS_9allocatorIiEEE9__end_capB8ne180100Ev, symObjAddr: 0x9470, symBinAddr: 0x10001C508, symSize: 0x28 }
  - { offset: 0x5A204, size: 0x8, addend: 0x0, symName: __ZNKSt3__117__compressed_pairIPiRNS_9allocatorIiEEE5firstB8ne180100Ev, symObjAddr: 0x9498, symBinAddr: 0x10001C530, symSize: 0x24 }
  - { offset: 0x5A25F, size: 0x8, addend: 0x0, symName: __ZNKSt3__113basic_istreamIcNS_11char_traitsIcEEE6sentrycvbB8ne180100Ev, symObjAddr: 0xB2AC, symBinAddr: 0x10001C78C, symSize: 0x1C }
  - { offset: 0x5A283, size: 0x8, addend: 0x0, symName: __ZNSt3__112basic_stringIcNS_11char_traitsIcEENS_9allocatorIcEEE5clearB8ne180100Ev, symObjAddr: 0xB2C8, symBinAddr: 0x10001C7A8, symSize: 0x94 }
  - { offset: 0x5A2B8, size: 0x8, addend: 0x0, symName: __ZNSt3__115basic_streambufIcNS_11char_traitsIcEEE6sbumpcB8ne180100Ev, symObjAddr: 0xB380, symBinAddr: 0x10001C83C, symSize: 0x78 }
  - { offset: 0x5A2DD, size: 0x8, addend: 0x0, symName: __ZNSt3__111char_traitsIcE12to_char_typeB8ne180100Ei, symObjAddr: 0xB428, symBinAddr: 0x10001C8B4, symSize: 0x18 }
  - { offset: 0x5A301, size: 0x8, addend: 0x0, symName: __ZNSt3__111char_traitsIcE2eqEcc, symObjAddr: 0xB440, symBinAddr: 0x10001C8CC, symSize: 0x28 }
  - { offset: 0x5A331, size: 0x8, addend: 0x0, symName: __ZNSt3__18ios_base18__setstate_nothrowB8ne180100Ej, symObjAddr: 0xB514, symBinAddr: 0x10001C8F4, symSize: 0x64 }
  - { offset: 0x5A364, size: 0x8, addend: 0x0, symName: __ZNKSt3__19basic_iosIcNS_11char_traitsIcEEE10exceptionsB8ne180100Ev, symObjAddr: 0xB578, symBinAddr: 0x10001C958, symSize: 0x24 }
  - { offset: 0x5A389, size: 0x8, addend: 0x0, symName: __ZNSt3__111char_traitsIcE11to_int_typeB8ne180100Ec, symObjAddr: 0xB618, symBinAddr: 0x10001C97C, symSize: 0x14 }
  - { offset: 0x5A3AC, size: 0x8, addend: 0x0, symName: __ZNKSt3__18ios_base10exceptionsB8ne180100Ev, symObjAddr: 0xB6B0, symBinAddr: 0x10001C990, symSize: 0x18 }
  - { offset: 0x5A3D7, size: 0x8, addend: 0x0, symName: __ZNKSt3__19basic_iosIcNS_11char_traitsIcEEE4failB8ne180100Ev, symObjAddr: 0xB760, symBinAddr: 0x10001C9A8, symSize: 0x28 }
  - { offset: 0x5A3FB, size: 0x8, addend: 0x0, symName: __ZNKSt3__18ios_base4failB8ne180100Ev, symObjAddr: 0xB788, symBinAddr: 0x10001C9D0, symSize: 0x28 }
  - { offset: 0x5A421, size: 0x8, addend: 0x0, symName: __ZNSt3__113basic_istreamIcNS_11char_traitsIcEEEC2B8ne180100EPNS_15basic_streambufIcS2_EE, symObjAddr: 0xB7EC, symBinAddr: 0x10001C9F8, symSize: 0x64 }
  - { offset: 0x5A481, size: 0x8, addend: 0x0, symName: __ZNSt3__114basic_iostreamIcNS_11char_traitsIcEEEC2B8ne180100EPNS_15basic_streambufIcS2_EE, symObjAddr: 0xBFF8, symBinAddr: 0x10001CA5C, symSize: 0xAC }
  - { offset: 0x5A4C4, size: 0x8, addend: 0x0, symName: __ZNSt3__115basic_stringbufIcNS_11char_traitsIcEENS_9allocatorIcEEEC1B8ne180100ERKNS_12basic_stringIcS2_S4_EEj, symObjAddr: 0xC0A4, symBinAddr: 0x10001CB08, symSize: 0x3C }
  - { offset: 0x5A50B, size: 0x8, addend: 0x0, symName: __ZNSt3__113basic_ostreamIcNS_11char_traitsIcEEEC2B8ne180100Ev, symObjAddr: 0xC0E0, symBinAddr: 0x10001CB44, symSize: 0x34 }
  - { offset: 0x5A53F, size: 0x8, addend: 0x0, symName: __ZNSt3__115basic_stringbufIcNS_11char_traitsIcEENS_9allocatorIcEEEC2B8ne180100ERKNS_12basic_stringIcS2_S4_EEj, symObjAddr: 0xC114, symBinAddr: 0x10001CB78, symSize: 0xA8 }
  - { offset: 0x5A585, size: 0x8, addend: 0x0, symName: __ZNSt3__112basic_stringIcNS_11char_traitsIcEENS_9allocatorIcEEEC1B8ne180100ERKS4_, symObjAddr: 0xC1E0, symBinAddr: 0x10001CC20, symSize: 0x34 }
  - { offset: 0x5A5BC, size: 0x8, addend: 0x0, symName: __ZNSt3__112basic_stringIcNS_11char_traitsIcEENS_9allocatorIcEEEC2B8ne180100ERKS4_, symObjAddr: 0xC214, symBinAddr: 0x10001CC54, symSize: 0x4C }
  - { offset: 0x5A5F3, size: 0x8, addend: 0x0, symName: __ZNSt3__117__compressed_pairINS_12basic_stringIcNS_11char_traitsIcEENS_9allocatorIcEEE5__repES5_EC1B8ne180100INS_16__value_init_tagERKS5_EEOT_OT0_, symObjAddr: 0xC260, symBinAddr: 0x10001CCA0, symSize: 0x3C }
  - { offset: 0x5A649, size: 0x8, addend: 0x0, symName: __ZNSt3__117__compressed_pairINS_12basic_stringIcNS_11char_traitsIcEENS_9allocatorIcEEE5__repES5_EC2B8ne180100INS_16__value_init_tagERKS5_EEOT_OT0_, symObjAddr: 0xC29C, symBinAddr: 0x10001CCDC, symSize: 0x40 }
  - { offset: 0x5A69F, size: 0x8, addend: 0x0, symName: __ZNSt3__115basic_streambufIcNS_11char_traitsIcEEE5sgetcB8ne180100Ev, symObjAddr: 0xC2F4, symBinAddr: 0x10001CD1C, symSize: 0x70 }
  - { offset: 0x5A6C3, size: 0x8, addend: 0x0, symName: __ZNKSt3__15ctypeIcE2isB8ne180100Ejc, symObjAddr: 0xC364, symBinAddr: 0x10001CD8C, symSize: 0x7C }
  - { offset: 0x5A705, size: 0x8, addend: 0x0, symName: __Z7isasciii, symObjAddr: 0xC3E0, symBinAddr: 0x10001CE08, symSize: 0x24 }
...
